(dp1
S'layout'
p2
(ilayout
Layout
p3
(dp4
S'numGhosts'
p5
I2
sS'food'
p6
(igame
Grid
p7
(dp8
S'CELLS_PER_INT'
p9
I30
sS'width'
p10
I10
sS'data'
p11
(lp12
(lp13
I00
aI00
aI00
aI00
aI00
aI00
aI00
aI00
aI00
aI00
aa(lp14
I00
aI00
aI00
aI00
aI00
aI00
aI00
aI01
aI01
aI00
aa(lp15
I00
aI00
aI00
aI00
aI01
aI00
aI01
aI00
aI01
aI00
aa(lp16
I00
aI00
aI00
aI00
aI01
aI01
aI01
aI01
aI00
aI00
aa(lp17
I00
aI00
aI00
aI00
aI00
aI00
aI00
aI00
aI00
aI00
aa(lp18
I00
aI00
aI01
aI00
aI00
aI01
aI01
aI01
aI01
aI00
aa(lp19
I00
aI00
aI00
aI00
aI01
aI01
aI00
aI00
aI00
aI00
aa(lp20
I00
aI00
aI00
aI00
aI01
aI01
aI01
aI01
aI00
aI00
aa(lp21
I00
aI00
aI00
aI00
aI00
aI00
aI00
aI00
aI00
aI00
aa(lp22
I00
aI00
aI00
aI00
aI00
aI00
aI00
aI00
aI00
aI00
aasS'height'
p23
I10
sbsS'agentPositions'
p24
(lp25
(I01
(I1
I3
tp26
tp27
a(I00
(I7
I8
tp28
tp29
a(I00
(I8
I8
tp30
tp31
asg23
I10
sg10
I10
sS'walls'
p32
(igame
Grid
p33
(dp34
g9
I30
sg10
I10
sg11
(lp35
(lp36
I01
aI01
aI01
aI01
aI01
aI01
aI01
aI01
aI01
aI01
aa(lp37
I01
aI00
aI01
aI00
aI01
aI01
aI00
aI00
aI00
aI01
aa(lp38
I01
aI00
aI01
aI00
aI00
aI01
aI00
aI01
aI00
aI01
aa(lp39
I01
aI00
aI00
aI00
aI00
aI00
aI00
aI00
aI00
aI01
aa(lp40
I01
aI01
aI01
aI00
aI00
aI00
aI00
aI01
aI01
aI01
aa(lp41
I01
aI00
aI00
aI00
aI01
aI00
aI00
aI00
aI00
aI01
aa(lp42
I01
aI00
aI00
aI00
aI00
aI00
aI01
aI01
aI00
aI01
aa(lp43
I01
aI00
aI00
aI01
aI00
aI00
aI00
aI00
aI00
aI01
aa(lp44
I01
aI00
aI01
aI01
aI00
aI01
aI01
aI00
aI00
aI01
aa(lp45
I01
aI01
aI01
aI01
aI01
aI01
aI01
aI01
aI01
aI01
aasg23
I10
sbsS'layoutText'
p46
(lp47
S'%%%%%%%%%%'
p48
aS'%.. %. GG%'
p49
aS'%.%.%.%. %'
p50
aS'% .. .%.%%'
p51
aS'%%%. ...%%'
p52
aS'%%.. %.. %'
p53
aS'%P     %%%'
p54
aS'%%% %.  %%'
p55
aS'%   %    %'
p56
aS'%%%%%%%%%%'
p57
asbsS'actions'
p58
(lp59
(I0
S'East'
p60
tp61
a(I1
S'South'
p62
tp63
a(I2
g62
tp64
a(I0
S'North'
p65
tp66
a(I1
g62
tp67
a(I2
S'West'
p68
tp69
a(I0
g60
tp70
a(I1
g62
tp71
a(I2
g65
tp72
a(I0
g65
tp73
a(I1
g62
tp74
a(I2
g68
tp75
a(I0
g65
tp76
a(I1
g60
tp77
a(I2
g68
tp78
a(I0
g68
tp79
a(I1
g68
tp80
a(I2
g62
tp81
a(I0
g68
tp82
a(I1
g68
tp83
a(I2
g62
tp84
a(I0
g65
tp85
a(I1
g62
tp86
a(I2
g68
tp87
a(I0
g65
tp88
a(I1
g68
tp89
a(I2
g62
tp90
a(I0
g60
tp91
a(I1
g62
tp92
a(I2
g60
tp93
a(I0
S'Stop'
p94
tp95
a(I1
g60
tp96
a(I2
g65
tp97
a(I0
g94
tp98
a(I1
g60
tp99
a(I2
g65
tp100
a(I0
g60
tp101
a(I1
g62
tp102
a(I2
g65
tp103
a(I0
g68
tp104
a(I1
g68
tp105
a(I2
g60
tp106
a(I0
g94
tp107
a(I1
g68
tp108
a(I2
g60
tp109
a(I0
g94
tp110
a(I1
g65
tp111
a(I2
g60
tp112
a(I0
g68
tp113
a(I1
g65
tp114
a(I2
g62
tp115
a(I0
g62
tp116
a(I1
g68
tp117
a(I2
g68
tp118
a(I0
g94
tp119
a(I1
g68
tp120
a(I2
g62
tp121
a(I0
g65
tp122
a(I1
g65
tp123
a(I2
g62
tp124
a(I0
g62
tp125
a(I1
g68
tp126
a(I2
g62
tp127
a(I0
g94
tp128
a(I1
g62
tp129
a(I2
g60
tp130
a(I0
g94
tp131
a(I1
g68
tp132
a(I2
g68
tp133
a(I0
g65
tp134
a(I1
g60
tp135
a(I2
g65
tp136
a(I0
g60
tp137
a(I1
g60
tp138
a(I2
g65
tp139
a(I0
g68
tp140
a(I1
g62
tp141
a(I2
g65
tp142
a(I0
g94
tp143
a(I1
g62
tp144
a(I2
g60
tp145
a(I0
g60
tp146
a(I1
g68
tp147
a(I2
g65
tp148
a(I0
g68
tp149
a(I1
g68
tp150
a(I2
g68
tp151
a(I0
g60
tp152
a(I1
g60
tp153
a(I2
g62
tp154
a(I0
g94
tp155
a(I1
g60
tp156
a(I2
g62
tp157
a(I0
g60
tp158
a(I1
g65
tp159
a(I2
g62
tp160
a(I0
g94
tp161
a(I1
g65
tp162
a(I2
g62
tp163
a(I0
g62
tp164
a(I1
g68
tp165
a(I2
g68
tp166
a(I0
g94
tp167
a(I1
g68
tp168
a(I2
g65
tp169
a(I0
g62
tp170
a(I1
g60
tp171
a(I2
g68
tp172
a(I0
g65
tp173
a(I1
g60
tp174
a(I2
g68
tp175
a(I0
g62
tp176
a(I1
g62
tp177
a(I2
g65
tp178
a(I0
g68
tp179
a(I1
g62
tp180
a(I2
g60
tp181
a(I0
g60
tp182
a(I1
g68
tp183
a(I2
g62
tp184
a(I0
g68
tp185
a(I1
g68
tp186
a(I2
g60
tp187
a(I0
g60
tp188
a(I1
g60
tp189
a(I2
g60
tp190
a(I0
g94
tp191
a(I1
g60
tp192
a(I2
g62
tp193
a(I0
g60
tp194
a(I1
g65
tp195
a(I2
g60
tp196
a(I0
g60
tp197
a(I1
g65
tp198
a(I2
g68
tp199
a(I0
g62
tp200
a(I1
g68
tp201
a(I2
g65
tp202
a(I0
g68
tp203
a(I1
g65
tp204
a(I2
g68
tp205
a(I0
g94
tp206
a(I1
g60
tp207
a(I2
g62
tp208
a(I0
g60
tp209
a(I1
g62
tp210
a(I2
g60
tp211
a(I0
g68
tp212
a(I1
g62
tp213
a(I2
g60
tp214
a(I0
g62
tp215
a(I1
g62
tp216
a(I2
g68
tp217
a(I0
g94
tp218
a(I1
g68
tp219
a(I2
g65
tp220
a(I0
g65
tp221
a(I1
g68
tp222
a(I2
g68
tp223
a(I0
g65
tp224
a(I1
g60
tp225
a(I2
g62
tp226
a(I0
g62
tp227
a(I1
g60
tp228
a(I2
g60
tp229
a(I0
g65
tp230
a(I1
g65
tp231
a(I2
g65
tp232
a(I0
g60
tp233
a(I1
g65
tp234
a(I2
g68
tp235
a(I0
g68
tp236
a(I1
g68
tp237
a(I2
g62
tp238
a(I0
g62
tp239
a(I1
g68
tp240
a(I2
g60
tp241
a(I0
g62
tp242
a(I1
g60
tp243
a(I2
g60
tp244
a(I0
g62
tp245
a(I1
g65
tp246
a(I2
g68
tp247
a(I0
g60
tp248
a(I1
g60
tp249
a(I2
g68
tp250
a(I0
g62
tp251
a(I1
g60
tp252
a(I2
g65
tp253
a(I0
g62
tp254
a(I1
g62
tp255
a(I2
g60
tp256
a(I0
g94
tp257
a(I1
g68
tp258
a(I2
g62
tp259
a(I0
g60
tp260
a(I1
g62
tp261
a(I2
g60
tp262
a(I0
g60
tp263
a(I1
g62
tp264
a(I2
g68
tp265
a(I0
g60
tp266
a(I1
g68
tp267
a(I2
g68
tp268
a(I0
g68
tp269
a(I1
g68
tp270
a(I2
g62
tp271
a(I0
g60
tp272
a(I1
g60
tp273
a(I2
g68
tp274
a(I0
g68
tp275
a(I1
g60
tp276
a(I2
g62
tp277
a(I0
g65
tp278
a(I1
g65
tp279
a(I2
g60
tp280
a(I0
g94
tp281
a(I1
g65
tp282
a(I2
g60
tp283
as.