(dp1
S'layout'
p2
(ilayout
Layout
p3
(dp4
S'numGhosts'
p5
I2
sS'food'
p6
(igame
Grid
p7
(dp8
S'CELLS_PER_INT'
p9
I30
sS'width'
p10
I10
sS'data'
p11
(lp12
(lp13
I00
aI00
aI00
aI00
aI00
aI00
aI00
aI00
aI00
aI00
aa(lp14
I00
aI00
aI00
aI00
aI00
aI00
aI00
aI01
aI01
aI00
aa(lp15
I00
aI00
aI00
aI00
aI01
aI00
aI01
aI00
aI01
aI00
aa(lp16
I00
aI00
aI00
aI00
aI01
aI01
aI01
aI01
aI00
aI00
aa(lp17
I00
aI00
aI00
aI00
aI00
aI00
aI00
aI00
aI00
aI00
aa(lp18
I00
aI00
aI01
aI00
aI00
aI01
aI01
aI01
aI01
aI00
aa(lp19
I00
aI00
aI00
aI00
aI01
aI01
aI00
aI00
aI00
aI00
aa(lp20
I00
aI00
aI00
aI00
aI01
aI01
aI01
aI01
aI00
aI00
aa(lp21
I00
aI00
aI00
aI00
aI00
aI00
aI00
aI00
aI00
aI00
aa(lp22
I00
aI00
aI00
aI00
aI00
aI00
aI00
aI00
aI00
aI00
aasS'height'
p23
I10
sbsS'agentPositions'
p24
(lp25
(I01
(I1
I3
tp26
tp27
a(I00
(I7
I8
tp28
tp29
a(I00
(I8
I8
tp30
tp31
asg23
I10
sg10
I10
sS'walls'
p32
(igame
Grid
p33
(dp34
g9
I30
sg10
I10
sg11
(lp35
(lp36
I01
aI01
aI01
aI01
aI01
aI01
aI01
aI01
aI01
aI01
aa(lp37
I01
aI00
aI01
aI00
aI01
aI01
aI00
aI00
aI00
aI01
aa(lp38
I01
aI00
aI01
aI00
aI00
aI01
aI00
aI01
aI00
aI01
aa(lp39
I01
aI00
aI00
aI00
aI00
aI00
aI00
aI00
aI00
aI01
aa(lp40
I01
aI01
aI01
aI00
aI00
aI00
aI00
aI01
aI01
aI01
aa(lp41
I01
aI00
aI00
aI00
aI01
aI00
aI00
aI00
aI00
aI01
aa(lp42
I01
aI00
aI00
aI00
aI00
aI00
aI01
aI01
aI00
aI01
aa(lp43
I01
aI00
aI00
aI01
aI00
aI00
aI00
aI00
aI00
aI01
aa(lp44
I01
aI00
aI01
aI01
aI00
aI01
aI01
aI00
aI00
aI01
aa(lp45
I01
aI01
aI01
aI01
aI01
aI01
aI01
aI01
aI01
aI01
aasg23
I10
sbsS'layoutText'
p46
(lp47
S'%%%%%%%%%%'
p48
aS'%.. %. GG%'
p49
aS'%.%.%.%. %'
p50
aS'% .. .%.%%'
p51
aS'%%%. ...%%'
p52
aS'%%.. %.. %'
p53
aS'%P     %%%'
p54
aS'%%% %.  %%'
p55
aS'%   %    %'
p56
aS'%%%%%%%%%%'
p57
asbsS'actions'
p58
(lp59
(I0
S'East'
p60
tp61
a(I1
S'West'
p62
tp63
a(I2
S'South'
p64
tp65
a(I0
S'North'
p66
tp67
a(I1
g62
tp68
a(I2
g62
tp69
a(I0
g60
tp70
a(I1
g64
tp71
a(I2
g64
tp72
a(I0
g66
tp73
a(I1
g64
tp74
a(I2
g64
tp75
a(I0
g66
tp76
a(I1
g62
tp77
a(I2
g62
tp78
a(I0
g66
tp79
a(I1
g62
tp80
a(I2
g62
tp81
a(I0
g66
tp82
a(I1
g66
tp83
a(I2
g62
tp84
a(I0
g62
tp85
a(I1
g66
tp86
a(I2
g62
tp87
a(I0
g62
tp88
a(I1
g62
tp89
a(I2
g64
tp90
a(I0
g64
tp91
a(I1
g62
tp92
a(I2
g60
tp93
a(I0
g64
tp94
a(I1
g64
tp95
a(I2
g64
tp96
a(I0
g60
tp97
a(I1
g64
tp98
a(I2
g62
tp99
a(I0
g60
tp100
a(I1
g60
tp101
a(I2
g62
tp102
a(I0
g60
tp103
a(I1
g60
tp104
a(I2
g62
tp105
a(I0
g60
tp106
a(I1
g66
tp107
a(I2
g60
tp108
a(I0
S'Stop'
p109
tp110
a(I1
g66
tp111
a(I2
g66
tp112
a(I0
g66
tp113
a(I1
g62
tp114
a(I2
g60
tp115
a(I0
g66
tp116
a(I1
g62
tp117
a(I2
g64
tp118
a(I0
g60
tp119
a(I1
g64
tp120
a(I2
g64
tp121
a(I0
g60
tp122
a(I1
g64
tp123
a(I2
g64
tp124
a(I0
g62
tp125
a(I1
g60
tp126
a(I2
g62
tp127
a(I0
g62
tp128
a(I1
g60
tp129
a(I2
g62
tp130
a(I0
g109
tp131
a(I1
g60
tp132
a(I2
g60
tp133
a(I0
g60
tp134
a(I1
g60
tp135
a(I2
g60
tp136
a(I0
g109
tp137
a(I1
g66
tp138
a(I2
g66
tp139
a(I0
g109
tp140
a(I1
g66
tp141
a(I2
g66
tp142
a(I0
g60
tp143
a(I1
g60
tp144
a(I2
g60
tp145
a(I0
g64
tp146
a(I1
g60
tp147
a(I2
g60
tp148
a(I0
g64
tp149
a(I1
g64
tp150
a(I2
g60
tp151
a(I0
g109
tp152
a(I1
g64
tp153
as.