(dp1
S'layout'
p2
(ilayout
Layout
p3
(dp4
S'numGhosts'
p5
I2
sS'food'
p6
(igame
Grid
p7
(dp8
S'CELLS_PER_INT'
p9
I30
sS'width'
p10
I10
sS'data'
p11
(lp12
(lp13
I00
aI00
aI00
aI00
aI00
aI00
aI00
aI00
aI00
aI00
aa(lp14
I00
aI01
aI00
aI00
aI00
aI00
aI00
aI00
aI00
aI00
aa(lp15
I00
aI01
aI00
aI00
aI00
aI00
aI00
aI00
aI00
aI00
aa(lp16
I00
aI01
aI01
aI00
aI01
aI01
aI01
aI01
aI01
aI00
aa(lp17
I00
aI00
aI00
aI00
aI00
aI00
aI00
aI00
aI00
aI00
aa(lp18
I00
aI00
aI00
aI00
aI00
aI01
aI01
aI01
aI00
aI00
aa(lp19
I00
aI01
aI01
aI01
aI01
aI00
aI00
aI00
aI00
aI00
aa(lp20
I00
aI00
aI00
aI00
aI01
aI01
aI01
aI01
aI00
aI00
aa(lp21
I00
aI00
aI00
aI00
aI00
aI00
aI00
aI00
aI00
aI00
aa(lp22
I00
aI00
aI00
aI00
aI00
aI00
aI00
aI00
aI00
aI00
aasS'height'
p23
I10
sbsS'agentPositions'
p24
(lp25
(I01
(I1
I3
tp26
tp27
a(I00
(I7
I8
tp28
tp29
a(I00
(I8
I8
tp30
tp31
asg23
I10
sg10
I10
sS'walls'
p32
(igame
Grid
p33
(dp34
g9
I30
sg10
I10
sg11
(lp35
(lp36
I01
aI01
aI01
aI01
aI01
aI01
aI01
aI01
aI01
aI01
aa(lp37
I01
aI00
aI01
aI00
aI01
aI01
aI00
aI00
aI00
aI01
aa(lp38
I01
aI00
aI01
aI00
aI00
aI01
aI00
aI01
aI00
aI01
aa(lp39
I01
aI00
aI00
aI00
aI00
aI00
aI00
aI00
aI00
aI01
aa(lp40
I01
aI01
aI01
aI00
aI00
aI00
aI00
aI01
aI01
aI01
aa(lp41
I01
aI00
aI00
aI00
aI01
aI00
aI00
aI00
aI00
aI01
aa(lp42
I01
aI00
aI00
aI00
aI00
aI00
aI01
aI01
aI00
aI01
aa(lp43
I01
aI00
aI00
aI01
aI00
aI00
aI00
aI00
aI00
aI01
aa(lp44
I01
aI00
aI01
aI01
aI00
aI01
aI01
aI00
aI00
aI01
aa(lp45
I01
aI01
aI01
aI01
aI01
aI01
aI01
aI01
aI01
aI01
aasg23
I10
sbsS'layoutText'
p46
(lp47
S'%%%%%%%%%%'
p48
aS'%  .%  GG%'
p49
aS'% %.%.%. %'
p50
aS'%  . .%.%%'
p51
aS'%%%. . .%%'
p52
aS'%% . %.. %'
p53
aS'%P    .%%%'
p54
aS'%%%.% . %%'
p55
aS'%...% .  %'
p56
aS'%%%%%%%%%%'
p57
asbsS'actions'
p58
(lp59
(I0
S'East'
p60
tp61
a(I1
S'West'
p62
tp63
a(I2
g62
tp64
a(I0
g60
tp65
a(I1
g62
tp66
a(I2
g62
tp67
a(I0
S'South'
p68
tp69
a(I1
g68
tp70
a(I2
g62
tp71
a(I0
g68
tp72
a(I1
g68
tp73
a(I2
g68
tp74
a(I0
g62
tp75
a(I1
g68
tp76
a(I2
g68
tp77
a(I0
g62
tp78
a(I1
g62
tp79
a(I2
g62
tp80
a(I0
g60
tp81
a(I1
S'North'
p82
tp83
a(I2
g62
tp84
a(I0
S'Stop'
p85
tp86
a(I1
g60
tp87
a(I2
g62
tp88
a(I0
g62
tp89
a(I1
g82
tp90
a(I2
g62
tp91
a(I0
g60
tp92
a(I1
g82
tp93
a(I2
g82
tp94
a(I0
g62
tp95
a(I1
g60
tp96
a(I2
g82
tp97
a(I0
g85
tp98
a(I1
g60
tp99
a(I2
g60
tp100
a(I0
g85
tp101
a(I1
g68
tp102
a(I2
g60
tp103
a(I0
g60
tp104
a(I1
g68
tp105
a(I2
g68
tp106
a(I0
g62
tp107
a(I1
g68
tp108
a(I2
g68
tp109
a(I0
g85
tp110
a(I1
g62
tp111
a(I2
g62
tp112
a(I0
g60
tp113
a(I1
g62
tp114
a(I2
g62
tp115
a(I0
g85
tp116
a(I1
g82
tp117
a(I2
g82
tp118
a(I0
g62
tp119
a(I1
g82
tp120
a(I2
g82
tp121
a(I0
g85
tp122
a(I1
g82
tp123
a(I2
g60
tp124
a(I0
g85
tp125
a(I1
g60
tp126
a(I2
g60
tp127
a(I0
g60
tp128
a(I1
g60
tp129
a(I2
g68
tp130
a(I0
g60
tp131
a(I1
g68
tp132
a(I2
g68
tp133
a(I0
g62
tp134
a(I1
g68
tp135
a(I2
g60
tp136
a(I0
g85
tp137
a(I1
g68
tp138
a(I2
g60
tp139
a(I0
g60
tp140
a(I1
g68
tp141
a(I2
g82
tp142
a(I0
g62
tp143
a(I1
g60
tp144
a(I2
g82
tp145
a(I0
g60
tp146
a(I1
g62
tp147
a(I2
g60
tp148
a(I0
g62
tp149
a(I1
g62
tp150
a(I2
g60
tp151
a(I0
g60
tp152
a(I1
g82
tp153
a(I2
g60
tp154
a(I0
g62
tp155
a(I1
g62
tp156
a(I2
g68
tp157
a(I0
g62
tp158
a(I1
g62
tp159
a(I2
g62
tp160
a(I0
g60
tp161
a(I1
g62
tp162
a(I2
g68
tp163
a(I0
g60
tp164
a(I1
g82
tp165
a(I2
g68
tp166
a(I0
g85
tp167
a(I1
g82
tp168
a(I2
g62
tp169
a(I0
g82
tp170
a(I1
g82
tp171
a(I2
g68
tp172
a(I0
g82
tp173
a(I1
g62
tp174
a(I2
g68
tp175
a(I0
g62
tp176
a(I1
g62
tp177
a(I2
g62
tp178
a(I0
g82
tp179
a(I1
g68
tp180
a(I2
g68
tp181
a(I0
g85
tp182
a(I1
g68
tp183
a(I2
g60
tp184
a(I0
g85
tp185
a(I1
g60
tp186
a(I2
g82
tp187
a(I0
g68
tp188
a(I1
g60
tp189
a(I2
g62
tp190
a(I0
g60
tp191
a(I1
g68
tp192
a(I2
g68
tp193
a(I0
g68
tp194
a(I1
g60
tp195
a(I2
g60
tp196
a(I0
g68
tp197
a(I1
g60
tp198
a(I2
g60
tp199
a(I0
g62
tp200
a(I1
g60
tp201
a(I2
g68
tp202
a(I0
g85
tp203
a(I1
g60
tp204
a(I2
g60
tp205
a(I0
g85
tp206
a(I1
g68
tp207
a(I2
g62
tp208
a(I0
g62
tp209
a(I1
g60
tp210
a(I2
g82
tp211
a(I0
g60
tp212
a(I1
g62
tp213
a(I2
g62
tp214
a(I0
g62
tp215
a(I1
g82
tp216
a(I2
g82
tp217
a(I0
g85
tp218
a(I1
g62
tp219
a(I2
g82
tp220
a(I0
g85
tp221
a(I1
g68
tp222
a(I2
g82
tp223
a(I0
g85
tp224
a(I1
g68
tp225
a(I2
g62
tp226
a(I0
g85
tp227
a(I1
g62
tp228
a(I2
g82
tp229
a(I0
g85
tp230
a(I1
g68
tp231
a(I2
g82
tp232
a(I0
g60
tp233
a(I1
g68
tp234
a(I2
g82
tp235
a(I0
g62
tp236
a(I1
g60
tp237
a(I2
g60
tp238
a(I0
g85
tp239
a(I1
g82
tp240
a(I2
g60
tp241
a(I0
g85
tp242
a(I1
g60
tp243
a(I2
g60
tp244
a(I0
g60
tp245
a(I1
g68
tp246
a(I2
g68
tp247
a(I0
g85
tp248
a(I1
g62
tp249
a(I2
g62
tp250
a(I0
g85
tp251
a(I1
g82
tp252
a(I2
g68
tp253
a(I0
g62
tp254
a(I1
g60
tp255
a(I2
g68
tp256
a(I0
g85
tp257
a(I1
g68
tp258
a(I2
g62
tp259
a(I0
g85
tp260
a(I1
g60
tp261
a(I2
g68
tp262
a(I0
g60
tp263
a(I1
g62
tp264
a(I2
g60
tp265
a(I0
g62
tp266
a(I1
g82
tp267
a(I2
g82
tp268
a(I0
g85
tp269
a(I1
g62
tp270
a(I2
g62
tp271
a(I0
g85
tp272
a(I1
g82
tp273
a(I2
g68
tp274
a(I0
g60
tp275
a(I1
g62
tp276
a(I2
g68
tp277
a(I0
g85
tp278
a(I1
g68
tp279
a(I2
g68
tp280
a(I0
g60
tp281
a(I1
g60
tp282
a(I2
g60
tp283
a(I0
g85
tp284
a(I1
g60
tp285
a(I2
g68
tp286
a(I0
g85
tp287
a(I1
g68
tp288
a(I2
g60
tp289
a(I0
g62
tp290
a(I1
g60
tp291
a(I2
g62
tp292
a(I0
g62
tp293
a(I1
g62
tp294
a(I2
g62
tp295
a(I0
g85
tp296
a(I1
g82
tp297
a(I2
g62
tp298
a(I0
g60
tp299
a(I1
g62
tp300
a(I2
g82
tp301
a(I0
g62
tp302
a(I1
g62
tp303
a(I2
g82
tp304
a(I0
g60
tp305
a(I1
g82
tp306
a(I2
g60
tp307
a(I0
g62
tp308
a(I1
g60
tp309
a(I2
g82
tp310
a(I0
g60
tp311
a(I1
g68
tp312
a(I2
g60
tp313
a(I0
g62
tp314
a(I1
g62
tp315
a(I2
g60
tp316
a(I0
g85
tp317
a(I1
g68
tp318
a(I2
g62
tp319
a(I0
g85
tp320
a(I1
g60
tp321
a(I2
g62
tp322
a(I0
g60
tp323
a(I1
g82
tp324
a(I2
g68
tp325
a(I0
g60
tp326
a(I1
g60
tp327
a(I2
g62
tp328
a(I0
g82
tp329
a(I1
g68
tp330
a(I2
g62
tp331
a(I0
g85
tp332
a(I1
g60
tp333
a(I2
g82
tp334
a(I0
g82
tp335
a(I1
g62
tp336
a(I2
g62
tp337
a(I0
g82
tp338
as.