(dp1
S'layout'
p2
(ilayout
Layout
p3
(dp4
S'numGhosts'
p5
I2
sS'food'
p6
(igame
Grid
p7
(dp8
S'CELLS_PER_INT'
p9
I30
sS'width'
p10
I10
sS'data'
p11
(lp12
(lp13
I00
aI00
aI00
aI00
aI00
aI00
aI00
aI00
aI00
aI00
aa(lp14
I00
aI01
aI00
aI00
aI00
aI00
aI00
aI00
aI00
aI00
aa(lp15
I00
aI01
aI00
aI01
aI00
aI00
aI01
aI00
aI00
aI00
aa(lp16
I00
aI00
aI00
aI00
aI01
aI01
aI01
aI01
aI01
aI00
aa(lp17
I00
aI00
aI00
aI01
aI01
aI00
aI00
aI00
aI00
aI00
aa(lp18
I00
aI00
aI00
aI00
aI00
aI01
aI01
aI01
aI01
aI00
aa(lp19
I00
aI00
aI00
aI01
aI01
aI00
aI00
aI00
aI00
aI00
aa(lp20
I00
aI00
aI00
aI00
aI00
aI01
aI01
aI01
aI00
aI00
aa(lp21
I00
aI00
aI00
aI00
aI00
aI00
aI00
aI00
aI00
aI00
aa(lp22
I00
aI00
aI00
aI00
aI00
aI00
aI00
aI00
aI00
aI00
aasS'height'
p23
I10
sbsS'agentPositions'
p24
(lp25
(I01
(I7
I1
tp26
tp27
a(I00
(I7
I8
tp28
tp29
a(I00
(I8
I8
tp30
tp31
asg23
I10
sg10
I10
sS'walls'
p32
(igame
Grid
p33
(dp34
g9
I30
sg10
I10
sg11
(lp35
(lp36
I01
aI01
aI01
aI01
aI01
aI01
aI01
aI01
aI01
aI01
aa(lp37
I01
aI00
aI01
aI00
aI01
aI01
aI00
aI00
aI00
aI01
aa(lp38
I01
aI00
aI01
aI00
aI00
aI01
aI00
aI01
aI00
aI01
aa(lp39
I01
aI00
aI00
aI00
aI00
aI00
aI00
aI00
aI00
aI01
aa(lp40
I01
aI01
aI01
aI00
aI00
aI00
aI00
aI01
aI01
aI01
aa(lp41
I01
aI00
aI00
aI00
aI01
aI00
aI00
aI00
aI00
aI01
aa(lp42
I01
aI00
aI00
aI00
aI00
aI00
aI01
aI01
aI00
aI01
aa(lp43
I01
aI00
aI00
aI01
aI00
aI00
aI00
aI00
aI00
aI01
aa(lp44
I01
aI00
aI01
aI01
aI00
aI01
aI01
aI00
aI00
aI01
aa(lp45
I01
aI01
aI01
aI01
aI01
aI01
aI01
aI01
aI01
aI01
aasg23
I10
sbsS'layoutText'
p46
(lp47
S'%%%%%%%%%%'
p48
aS'%  .%. GG%'
p49
aS'% %.%.%. %'
p50
aS'% .. .%.%%'
p51
aS'%%%. . .%%'
p52
aS'%% ..%.  %'
p53
aS'% . . .%%%'
p54
aS'%%% %   %%'
p55
aS'%.. %  P %'
p56
aS'%%%%%%%%%%'
p57
asbsS'actions'
p58
(lp59
(I0
S'North'
p60
tp61
a(I1
S'West'
p62
tp63
a(I2
S'South'
p64
tp65
a(I0
g62
tp66
a(I1
g62
tp67
a(I2
g62
tp68
a(I0
g60
tp69
a(I1
g64
tp70
a(I2
g64
tp71
a(I0
g60
tp72
a(I1
g64
tp73
a(I2
g64
tp74
a(I0
g64
tp75
a(I1
g64
tp76
a(I2
g62
tp77
a(I0
g62
tp78
a(I1
S'East'
p79
tp80
a(I2
g62
tp81
a(I0
g62
tp82
a(I1
g64
tp83
a(I2
g62
tp84
a(I0
g62
tp85
a(I1
g79
tp86
a(I2
g62
tp87
a(I0
g64
tp88
a(I1
g79
tp89
a(I2
g60
tp90
a(I0
g60
tp91
a(I1
g62
tp92
a(I2
g60
tp93
a(I0
g60
tp94
a(I1
g60
tp95
a(I2
g60
tp96
a(I0
g62
tp97
a(I1
g62
tp98
a(I2
g62
tp99
a(I0
g64
tp100
a(I1
g64
tp101
a(I2
g62
tp102
a(I0
g62
tp103
a(I1
g79
tp104
a(I2
g64
tp105
a(I0
g79
tp106
a(I1
g79
tp107
a(I2
g64
tp108
a(I0
g60
tp109
a(I1
g62
tp110
a(I2
g79
tp111
a(I0
g79
tp112
a(I1
g60
tp113
a(I2
g79
tp114
a(I0
g64
tp115
a(I1
g62
tp116
a(I2
g60
tp117
a(I0
g60
tp118
a(I1
g62
tp119
a(I2
g60
tp120
a(I0
g62
tp121
a(I1
g60
tp122
a(I2
g62
tp123
a(I0
g64
tp124
a(I1
g62
tp125
a(I2
g62
tp126
a(I0
g62
tp127
a(I1
g62
tp128
a(I2
g64
tp129
a(I0
g79
tp130
a(I1
g60
tp131
a(I2
g64
tp132
a(I0
g79
tp133
a(I1
g60
tp134
a(I2
g79
tp135
a(I0
g64
tp136
a(I1
g62
tp137
a(I2
g79
tp138
a(I0
S'Stop'
p139
tp140
a(I1
g62
tp141
a(I2
g79
tp142
a(I0
g64
tp143
a(I1
g64
tp144
a(I2
g64
tp145
a(I0
g62
tp146
a(I1
g64
tp147
a(I2
g79
tp148
a(I0
g79
tp149
a(I1
g79
tp150
a(I2
g79
tp151
a(I0
g139
tp152
a(I1
g79
tp153
a(I2
g79
tp154
a(I0
g60
tp155
a(I1
g60
tp156
a(I2
g60
tp157
a(I0
g139
tp158
a(I1
g60
tp159
a(I2
g60
tp160
a(I0
g60
tp161
a(I1
g62
tp162
a(I2
g60
tp163
a(I0
g79
tp164
a(I1
g62
tp165
a(I2
g79
tp166
a(I0
g62
tp167
a(I1
g64
tp168
a(I2
g64
tp169
a(I0
g62
tp170
a(I1
g64
tp171
a(I2
g62
tp172
a(I0
g79
tp173
a(I1
g79
tp174
a(I2
g64
tp175
a(I0
g64
tp176
a(I1
g79
tp177
a(I2
g64
tp178
a(I0
g139
tp179
a(I1
g60
tp180
a(I2
g64
tp181
a(I0
g60
tp182
a(I1
g60
tp183
a(I2
g79
tp184
a(I0
g60
tp185
a(I1
g62
tp186
a(I2
g62
tp187
a(I0
g62
tp188
a(I1
g62
tp189
a(I2
g62
tp190
a(I0
g139
tp191
a(I1
g64
tp192
a(I2
g64
tp193
a(I0
g79
tp194
a(I1
g64
tp195
a(I2
g64
tp196
a(I0
g139
tp197
a(I1
g79
tp198
a(I2
g64
tp199
a(I0
g79
tp200
a(I1
g79
tp201
a(I2
g79
tp202
a(I0
g139
tp203
a(I1
g64
tp204
a(I2
g60
tp205
a(I0
g139
tp206
a(I1
g79
tp207
a(I2
g62
tp208
a(I0
g60
tp209
as.