(dp1
S'layout'
p2
(ilayout
Layout
p3
(dp4
S'numGhosts'
p5
I3
sS'food'
p6
(igame
Grid
p7
(dp8
S'CELLS_PER_INT'
p9
I30
sS'width'
p10
I25
sS'data'
p11
(lp12
(lp13
I00
aI00
aI00
aI00
aI00
aI00
aI00
aI00
aI00
aI00
aI00
aI00
aa(lp14
I00
aI00
aI00
aI00
aI00
aI00
aI00
aI00
aI00
aI01
aI01
aI00
aa(lp15
I00
aI00
aI01
aI01
aI00
aI01
aI00
aI00
aI00
aI01
aI00
aI00
aa(lp16
I00
aI00
aI00
aI01
aI00
aI01
aI00
aI01
aI00
aI01
aI00
aI00
aa(lp17
I00
aI00
aI01
aI00
aI00
aI01
aI00
aI01
aI00
aI00
aI00
aI00
aa(lp18
I00
aI00
aI00
aI01
aI00
aI01
aI00
aI01
aI00
aI00
aI00
aI00
aa(lp19
I00
aI01
aI00
aI01
aI00
aI01
aI01
aI01
aI00
aI00
aI01
aI00
aa(lp20
I00
aI00
aI00
aI00
aI00
aI01
aI00
aI01
aI00
aI00
aI01
aI00
aa(lp21
I00
aI01
aI00
aI01
aI00
aI01
aI00
aI01
aI00
aI01
aI00
aI00
aa(lp22
I00
aI01
aI01
aI01
aI01
aI01
aI00
aI01
aI01
aI00
aI00
aI00
aa(lp23
I00
aI00
aI01
aI00
aI00
aI00
aI00
aI00
aI00
aI00
aI00
aI00
aa(lp24
I00
aI00
aI00
aI00
aI01
aI01
aI00
aI01
aI00
aI01
aI01
aI00
aa(lp25
I00
aI01
aI00
aI00
aI01
aI01
aI01
aI01
aI00
aI00
aI00
aI00
aa(lp26
I00
aI01
aI00
aI00
aI00
aI00
aI00
aI00
aI00
aI00
aI00
aI00
aa(lp27
I00
aI01
aI00
aI01
aI01
aI01
aI00
aI01
aI00
aI00
aI00
aI00
aa(lp28
I00
aI00
aI00
aI00
aI01
aI01
aI01
aI01
aI00
aI01
aI01
aI00
aa(lp29
I00
aI01
aI01
aI01
aI00
aI01
aI00
aI01
aI00
aI00
aI00
aI00
aa(lp30
I00
aI00
aI00
aI00
aI01
aI01
aI00
aI01
aI00
aI01
aI00
aI00
aa(lp31
I00
aI00
aI00
aI00
aI00
aI00
aI00
aI00
aI00
aI00
aI00
aI00
aa(lp32
I00
aI00
aI00
aI01
aI00
aI01
aI00
aI01
aI00
aI01
aI01
aI00
aa(lp33
I00
aI00
aI00
aI00
aI00
aI00
aI00
aI00
aI00
aI00
aI00
aI00
aa(lp34
I00
aI00
aI00
aI01
aI00
aI00
aI00
aI01
aI00
aI01
aI00
aI00
aa(lp35
I00
aI00
aI00
aI00
aI00
aI01
aI00
aI00
aI00
aI00
aI00
aI00
aa(lp36
I00
aI00
aI00
aI00
aI00
aI01
aI00
aI01
aI00
aI00
aI00
aI00
aa(lp37
I00
aI00
aI00
aI00
aI00
aI00
aI00
aI00
aI00
aI00
aI00
aI00
aasS'height'
p38
I12
sbsS'agentPositions'
p39
(lp40
(I01
(I20
I1
tp41
tp42
a(I00
(I21
I10
tp43
tp44
a(I00
(I22
I10
tp45
tp46
a(I00
(I23
I10
tp47
tp48
asg38
I12
sg10
I25
sS'walls'
p49
(igame
Grid
p50
(dp51
g9
I30
sg10
I25
sg11
(lp52
(lp53
I01
aI01
aI01
aI01
aI01
aI01
aI01
aI01
aI01
aI01
aI01
aI01
aa(lp54
I01
aI00
aI00
aI00
aI01
aI00
aI00
aI00
aI01
aI00
aI00
aI01
aa(lp55
I01
aI00
aI00
aI00
aI01
aI00
aI00
aI00
aI01
aI00
aI00
aI01
aa(lp56
I01
aI00
aI00
aI00
aI01
aI00
aI00
aI00
aI01
aI00
aI00
aI01
aa(lp57
I01
aI00
aI00
aI00
aI01
aI00
aI00
aI00
aI01
aI01
aI00
aI01
aa(lp58
I01
aI00
aI00
aI00
aI01
aI00
aI00
aI00
aI00
aI01
aI00
aI01
aa(lp59
I01
aI00
aI00
aI00
aI01
aI00
aI00
aI00
aI00
aI01
aI00
aI01
aa(lp60
I01
aI01
aI00
aI01
aI01
aI00
aI01
aI00
aI00
aI00
aI00
aI01
aa(lp61
I01
aI00
aI00
aI00
aI00
aI00
aI01
aI00
aI00
aI00
aI00
aI01
aa(lp62
I01
aI00
aI00
aI00
aI00
aI00
aI00
aI00
aI00
aI01
aI00
aI01
aa(lp63
I01
aI00
aI00
aI00
aI00
aI00
aI00
aI00
aI00
aI01
aI01
aI01
aa(lp64
I01
aI00
aI00
aI00
aI00
aI00
aI00
aI00
aI00
aI00
aI00
aI01
aa(lp65
I01
aI00
aI00
aI00
aI00
aI00
aI00
aI00
aI00
aI00
aI00
aI01
aa(lp66
I01
aI00
aI00
aI00
aI00
aI01
aI00
aI00
aI00
aI00
aI00
aI01
aa(lp67
I01
aI00
aI01
aI00
aI00
aI00
aI00
aI00
aI00
aI00
aI00
aI01
aa(lp68
I01
aI00
aI01
aI00
aI00
aI00
aI00
aI00
aI00
aI00
aI00
aI01
aa(lp69
I01
aI00
aI00
aI00
aI00
aI00
aI00
aI00
aI01
aI00
aI01
aI01
aa(lp70
I01
aI00
aI00
aI00
aI00
aI00
aI00
aI00
aI01
aI00
aI00
aI01
aa(lp71
I01
aI00
aI00
aI00
aI00
aI00
aI01
aI01
aI01
aI00
aI00
aI01
aa(lp72
I01
aI00
aI00
aI00
aI00
aI00
aI00
aI00
aI00
aI00
aI00
aI01
aa(lp73
I01
aI00
aI00
aI00
aI00
aI00
aI01
aI00
aI00
aI00
aI00
aI01
aa(lp74
I01
aI00
aI00
aI00
aI00
aI00
aI01
aI00
aI00
aI00
aI00
aI01
aa(lp75
I01
aI00
aI00
aI00
aI01
aI00
aI01
aI00
aI00
aI00
aI00
aI01
aa(lp76
I01
aI00
aI00
aI01
aI01
aI00
aI01
aI00
aI00
aI00
aI00
aI01
aa(lp77
I01
aI01
aI01
aI01
aI01
aI01
aI01
aI01
aI01
aI01
aI01
aI01
aasg38
I12
sbsS'layoutText'
p78
(lp79
S'%%%%%%%%%%%%%%%%%%%%%%%%%'
p80
aS'%.    ..  %.   .%  . GGG%'
p81
aS'%...%%% .%%.   . . . .  %'
p82
aS'%%%%%    .      %%%     %'
p83
aS'%  ....... .. ....%. . .%'
p84
aS'%     .%%   .  .  % %%%%%'
p85
aS'% ........ ..%.... .  ..%'
p86
aS'%%%%%%%% . .. .. .    %%%'
p87
aS'% .. ..%..    . .  . . %%'
p88
aS'% . .    ..   %%.       %'
p89
aS'%     .%..  ... .   P   %'
p90
aS'%%%%%%%%%%%%%%%%%%%%%%%%%'
p91
asbsS'actions'
p92
(lp93
(I0
S'West'
p94
tp95
a(I1
S'East'
p96
tp97
a(I2
g94
tp98
a(I3
g94
tp99
a(I0
S'Stop'
p100
tp101
a(I1
S'South'
p102
tp103
a(I2
g94
tp104
a(I3
g94
tp105
a(I0
g96
tp106
a(I1
g94
tp107
a(I2
g94
tp108
a(I3
g94
tp109
a(I0
g100
tp110
a(I1
S'North'
p111
tp112
a(I2
g94
tp113
a(I3
g102
tp114
a(I0
g94
tp115
a(I1
g96
tp116
a(I2
g94
tp117
a(I3
g102
tp118
a(I0
g100
tp119
a(I1
g102
tp120
a(I2
g102
tp121
a(I3
g94
tp122
a(I0
g94
tp123
a(I1
g94
tp124
a(I2
g94
tp125
a(I3
g102
tp126
a(I0
g96
tp127
a(I1
g111
tp128
a(I2
g94
tp129
a(I3
g102
tp130
a(I0
g96
tp131
a(I1
g94
tp132
a(I2
g94
tp133
a(I3
g102
tp134
a(I0
g94
tp135
a(I1
g94
tp136
a(I2
g111
tp137
a(I3
g94
tp138
a(I0
g96
tp139
a(I1
g94
tp140
a(I2
g94
tp141
a(I3
g94
tp142
a(I0
g111
tp143
a(I1
g94
tp144
a(I2
g94
tp145
a(I3
g102
tp146
a(I0
g102
tp147
a(I1
g102
tp148
a(I2
g94
tp149
a(I3
g102
tp150
a(I0
g96
tp151
a(I1
g94
tp152
a(I2
g102
tp153
a(I3
g102
tp154
a(I0
g94
tp155
a(I1
g94
tp156
a(I2
g96
tp157
a(I3
g94
tp158
a(I0
g100
tp159
a(I1
g111
tp160
a(I2
g111
tp161
a(I3
g111
tp162
a(I0
g111
tp163
a(I1
g94
tp164
a(I2
g94
tp165
a(I3
g94
tp166
a(I0
g102
tp167
a(I1
g94
tp168
a(I2
g102
tp169
a(I3
g94
tp170
a(I0
g100
tp171
a(I1
g94
tp172
a(I2
g102
tp173
a(I3
g94
tp174
a(I0
g96
tp175
a(I1
g94
tp176
a(I2
g94
tp177
a(I3
g102
tp178
a(I0
g94
tp179
a(I1
g102
tp180
a(I2
g94
tp181
a(I3
g94
tp182
a(I0
g94
tp183
a(I1
g96
tp184
a(I2
g94
tp185
a(I3
g94
tp186
a(I0
g100
tp187
a(I1
g96
tp188
a(I2
g94
tp189
a(I3
g94
tp190
a(I0
g100
tp191
a(I1
g111
tp192
a(I2
g94
tp193
a(I3
g102
tp194
a(I0
g100
tp195
a(I1
g96
tp196
a(I2
g102
tp197
a(I3
g94
tp198
a(I0
g100
tp199
a(I1
g102
tp200
a(I2
g94
tp201
a(I3
g94
tp202
a(I0
g111
tp203
a(I1
g94
tp204
a(I2
g111
tp205
a(I3
g111
tp206
a(I0
g111
tp207
a(I1
g94
tp208
a(I2
g96
tp209
a(I3
g94
tp210
a(I0
g100
tp211
a(I1
g94
tp212
a(I2
g96
tp213
a(I3
g94
tp214
a(I0
g100
tp215
a(I1
g111
tp216
a(I2
g111
tp217
a(I3
g94
tp218
a(I0
g96
tp219
a(I1
g96
tp220
a(I2
g96
tp221
a(I3
g94
tp222
a(I0
g102
tp223
a(I1
g96
tp224
a(I2
g111
tp225
a(I3
g94
tp226
a(I0
g102
tp227
a(I1
g96
tp228
a(I2
g96
tp229
a(I3
g94
tp230
a(I0
g96
tp231
a(I1
g102
tp232
a(I2
g94
tp233
a(I3
g111
tp234
a(I0
g100
tp235
a(I1
g94
tp236
a(I2
g102
tp237
a(I3
g96
tp238
a(I0
g100
tp239
a(I1
g111
tp240
a(I2
g102
tp241
a(I3
g96
tp242
a(I0
g96
tp243
a(I1
g94
tp244
a(I2
g96
tp245
a(I3
g102
tp246
a(I0
g111
tp247
a(I1
g94
tp248
a(I2
g102
tp249
a(I3
g94
tp250
a(I0
g94
tp251
a(I1
g102
tp252
a(I2
g96
tp253
a(I3
g111
tp254
a(I0
g94
tp255
a(I1
g102
tp256
a(I2
g102
tp257
a(I3
g94
tp258
a(I0
g94
tp259
a(I1
g94
tp260
a(I2
g102
tp261
a(I3
g102
tp262
a(I0
g94
tp263
a(I1
g102
tp264
a(I2
g102
tp265
a(I3
g96
tp266
a(I0
g96
tp267
a(I1
g96
tp268
a(I2
g96
tp269
a(I3
g111
tp270
a(I0
g96
tp271
a(I1
g111
tp272
a(I2
g102
tp273
a(I3
g96
tp274
a(I0
g111
tp275
a(I1
g111
tp276
a(I2
g96
tp277
a(I3
g96
tp278
a(I0
g102
tp279
a(I1
g111
tp280
a(I2
g111
tp281
a(I3
g96
tp282
a(I0
g100
tp283
a(I1
g96
tp284
a(I2
g96
tp285
a(I3
g102
tp286
a(I0
g111
tp287
a(I1
g102
tp288
a(I2
g102
tp289
a(I3
g94
tp290
a(I0
g102
tp291
a(I1
g94
tp292
a(I2
g102
tp293
a(I3
g111
tp294
a(I0
g100
tp295
a(I1
g111
tp296
a(I2
g94
tp297
a(I3
g94
tp298
a(I0
g100
tp299
a(I1
g96
tp300
a(I2
g94
tp301
a(I3
g94
tp302
a(I0
g102
tp303
a(I1
g102
tp304
a(I2
g102
tp305
a(I3
g102
tp306
a(I0
g100
tp307
a(I1
g94
tp308
a(I2
g94
tp309
a(I3
g102
tp310
a(I0
g94
tp311
a(I1
g111
tp312
a(I2
g111
tp313
a(I3
g94
tp314
a(I0
g111
tp315
a(I1
g96
tp316
a(I2
g94
tp317
a(I3
g111
tp318
a(I0
g96
tp319
a(I1
g96
tp320
a(I2
g94
tp321
a(I3
g111
tp322
a(I0
g111
tp323
a(I1
g102
tp324
a(I2
g102
tp325
a(I3
g96
tp326
a(I0
g111
tp327
a(I1
g94
tp328
a(I2
g96
tp329
a(I3
g96
tp330
a(I0
g96
tp331
a(I1
g94
tp332
a(I2
g111
tp333
a(I3
g96
tp334
a(I0
g94
tp335
a(I1
g111
tp336
a(I2
g94
tp337
a(I3
g96
tp338
a(I0
g100
tp339
a(I1
g96
tp340
a(I2
g102
tp341
a(I3
g102
tp342
a(I0
g100
tp343
a(I1
g96
tp344
a(I2
g96
tp345
a(I3
g94
tp346
a(I0
g94
tp347
a(I1
g96
tp348
a(I2
g111
tp349
a(I3
g102
tp350
a(I0
g100
tp351
a(I1
g102
tp352
a(I2
g94
tp353
a(I3
g94
tp354
a(I0
g111
tp355
a(I1
g94
tp356
a(I2
g94
tp357
a(I3
g111
tp358
a(I0
g94
tp359
a(I1
g94
tp360
a(I2
g94
tp361
a(I3
g94
tp362
a(I0
g96
tp363
a(I1
g111
tp364
a(I2
g94
tp365
a(I3
g94
tp366
a(I0
g102
tp367
a(I1
g94
tp368
a(I2
g94
tp369
a(I3
g111
tp370
a(I0
g96
tp371
a(I1
g102
tp372
a(I2
g111
tp373
a(I3
g96
tp374
a(I0
g94
tp375
a(I1
g102
tp376
a(I2
g94
tp377
a(I3
g96
tp378
a(I0
g94
tp379
a(I1
g94
tp380
a(I2
g94
tp381
a(I3
g102
tp382
a(I0
g94
tp383
a(I1
g94
tp384
a(I2
g94
tp385
a(I3
g94
tp386
a(I0
g100
tp387
a(I1
g94
tp388
a(I2
g102
tp389
a(I3
g94
tp390
a(I0
g96
tp391
a(I1
g111
tp392
a(I2
g96
tp393
a(I3
g111
tp394
a(I0
g96
tp395
a(I1
g111
tp396
a(I2
g111
tp397
a(I3
g94
tp398
a(I0
g96
tp399
a(I1
g96
tp400
a(I2
g94
tp401
a(I3
g102
tp402
a(I0
g100
tp403
a(I1
g94
tp404
a(I2
g102
tp405
a(I3
g96
tp406
a(I0
g96
tp407
a(I1
g102
tp408
a(I2
g96
tp409
a(I3
g111
tp410
a(I0
g100
tp411
a(I1
g102
tp412
a(I2
g111
tp413
a(I3
g94
tp414
a(I0
g100
tp415
a(I1
g96
tp416
a(I2
g96
tp417
a(I3
g102
tp418
a(I0
g100
tp419
a(I1
g96
tp420
a(I2
g102
tp421
a(I3
g96
tp422
a(I0
g94
tp423
a(I1
g102
tp424
a(I2
g94
tp425
a(I3
g111
tp426
a(I0
g94
tp427
a(I1
g94
tp428
a(I2
g111
tp429
a(I3
g96
tp430
a(I0
g94
tp431
a(I1
g111
tp432
a(I2
g96
tp433
a(I3
g96
tp434
a(I0
g100
tp435
a(I1
g96
tp436
a(I2
g96
tp437
a(I3
g96
tp438
a(I0
g102
tp439
a(I1
g96
tp440
a(I2
g102
tp441
a(I3
g96
tp442
a(I0
g111
tp443
a(I1
g111
tp444
a(I2
g94
tp445
a(I3
g102
tp446
a(I0
g96
tp447
a(I1
g96
tp448
a(I2
g94
tp449
a(I3
g96
tp450
a(I0
g111
tp451
a(I1
g111
tp452
a(I2
g111
tp453
a(I3
g96
tp454
a(I0
g102
tp455
a(I1
g96
tp456
a(I2
g96
tp457
a(I3
g102
tp458
a(I0
g102
tp459
a(I1
g102
tp460
a(I2
g102
tp461
a(I3
g96
tp462
a(I0
g102
tp463
a(I1
g94
tp464
a(I2
g102
tp465
a(I3
g96
tp466
a(I0
g102
tp467
a(I1
g102
tp468
a(I2
g94
tp469
a(I3
g111
tp470
a(I0
g96
tp471
a(I1
g94
tp472
a(I2
g111
tp473
a(I3
g111
tp474
a(I0
g111
tp475
a(I1
g111
tp476
a(I2
g111
tp477
a(I3
g111
tp478
a(I0
g100
tp479
a(I1
g111
tp480
a(I2
g94
tp481
a(I3
g96
tp482
a(I0
g111
tp483
a(I1
g96
tp484
a(I2
g102
tp485
a(I3
g96
tp486
a(I0
g102
tp487
a(I1
g96
tp488
a(I2
g96
tp489
a(I3
g96
tp490
a(I0
g111
tp491
a(I1
g96
tp492
a(I2
g96
tp493
a(I3
g96
tp494
a(I0
g96
tp495
a(I1
g96
tp496
a(I2
g111
tp497
a(I3
g111
tp498
a(I0
g96
tp499
a(I1
g102
tp500
a(I2
g94
tp501
a(I3
g96
tp502
a(I0
g102
tp503
a(I1
g94
tp504
a(I2
g102
tp505
a(I3
g102
tp506
a(I0
g96
tp507
a(I1
g94
tp508
a(I2
g96
tp509
a(I3
g94
tp510
a(I0
g94
tp511
a(I1
g111
tp512
a(I2
g111
tp513
a(I3
g94
tp514
a(I0
g100
tp515
a(I1
g94
tp516
a(I2
g96
tp517
a(I3
g94
tp518
a(I0
g94
tp519
a(I1
g102
tp520
a(I2
g102
tp521
a(I3
g94
tp522
a(I0
g94
tp523
a(I1
g96
tp524
a(I2
g96
tp525
a(I3
g94
tp526
a(I0
g102
tp527
a(I1
g111
tp528
a(I2
g96
tp529
a(I3
g111
tp530
a(I0
g96
tp531
a(I1
g94
tp532
a(I2
g96
tp533
a(I3
g111
tp534
a(I0
g96
tp535
a(I1
g102
tp536
a(I2
g96
tp537
a(I3
g94
tp538
a(I0
g100
tp539
a(I1
g94
tp540
a(I2
g96
tp541
a(I3
g111
tp542
a(I0
g96
tp543
a(I1
g111
tp544
a(I2
g96
tp545
a(I3
g111
tp546
a(I0
g94
tp547
a(I1
g96
tp548
a(I2
g111
tp549
a(I3
g96
tp550
a(I0
g96
tp551
a(I1
g96
tp552
a(I2
g111
tp553
a(I3
g96
tp554
a(I0
g111
tp555
a(I1
g96
tp556
a(I2
g111
tp557
a(I3
g111
tp558
a(I0
g102
tp559
a(I1
g102
tp560
a(I2
g111
tp561
a(I3
g111
tp562
a(I0
g94
tp563
a(I1
g94
tp564
a(I2
g111
tp565
a(I3
g96
tp566
a(I0
g94
tp567
a(I1
g94
tp568
a(I2
g111
tp569
a(I3
g102
tp570
a(I0
g111
tp571
a(I1
g94
tp572
a(I2
g96
tp573
a(I3
g102
tp574
a(I0
g94
tp575
a(I1
g102
tp576
a(I2
g111
tp577
a(I3
g94
tp578
a(I0
g100
tp579
a(I1
g94
tp580
a(I2
g111
tp581
a(I3
g111
tp582
a(I0
g100
tp583
a(I1
g94
tp584
a(I2
g96
tp585
a(I3
g96
tp586
a(I0
g100
tp587
a(I1
g94
tp588
a(I2
g102
tp589
a(I3
g111
tp590
a(I0
g102
tp591
a(I1
g94
tp592
a(I2
g94
tp593
a(I3
g94
tp594
a(I0
g111
tp595
a(I1
g111
tp596
a(I2
g111
tp597
a(I3
g102
tp598
a(I0
g94
tp599
a(I1
g111
tp600
a(I2
g96
tp601
a(I3
g102
tp602
a(I0
g96
tp603
a(I1
g94
tp604
a(I2
g96
tp605
a(I3
g94
tp606
a(I0
g111
tp607
a(I1
g94
tp608
a(I2
g96
tp609
a(I3
g94
tp610
a(I0
g94
tp611
a(I1
g94
tp612
a(I2
g102
tp613
a(I3
g102
tp614
a(I0
g111
tp615
a(I1
g94
tp616
a(I2
g94
tp617
a(I3
g96
tp618
a(I0
g111
tp619
a(I1
g94
tp620
a(I2
g111
tp621
a(I3
g96
tp622
a(I0
g100
tp623
a(I1
g102
tp624
a(I2
g94
tp625
a(I3
g102
tp626
a(I0
g102
tp627
a(I1
g96
tp628
a(I2
g94
tp629
a(I3
g96
tp630
a(I0
g94
tp631
a(I1
g111
tp632
a(I2
g102
tp633
a(I3
g111
tp634
a(I0
g94
tp635
a(I1
g94
tp636
a(I2
g96
tp637
a(I3
g111
tp638
a(I0
g102
tp639
a(I1
g102
tp640
a(I2
g111
tp641
a(I3
g94
tp642
a(I0
g100
tp643
a(I1
g96
tp644
a(I2
g94
tp645
a(I3
g102
tp646
a(I0
g111
tp647
a(I1
g111
tp648
a(I2
g102
tp649
a(I3
g94
tp650
a(I0
g100
tp651
a(I1
g96
tp652
a(I2
g96
tp653
a(I3
g111
tp654
a(I0
g94
tp655
a(I1
g96
tp656
a(I2
g111
tp657
a(I3
g94
tp658
a(I0
g96
tp659
a(I1
g96
tp660
a(I2
g94
tp661
a(I3
g94
tp662
a(I0
g94
tp663
a(I1
g96
tp664
a(I2
g102
tp665
a(I3
g111
tp666
a(I0
g102
tp667
a(I1
g102
tp668
a(I2
g102
tp669
a(I3
g94
tp670
a(I0
g96
tp671
a(I1
g96
tp672
a(I2
g94
tp673
a(I3
g111
tp674
a(I0
g100
tp675
a(I1
g111
tp676
a(I2
g102
tp677
a(I3
g96
tp678
a(I0
g102
tp679
a(I1
g94
tp680
a(I2
g94
tp681
a(I3
g96
tp682
a(I0
g96
tp683
a(I1
g94
tp684
a(I2
g102
tp685
a(I3
g94
tp686
a(I0
g111
tp687
a(I1
g94
tp688
a(I2
g96
tp689
a(I3
g94
tp690
a(I0
g100
tp691
a(I1
g94
tp692
a(I2
g111
tp693
a(I3
g102
tp694
a(I0
g96
tp695
a(I1
g94
tp696
a(I2
g94
tp697
a(I3
g96
tp698
a(I0
g96
tp699
a(I1
g102
tp700
a(I2
g111
tp701
a(I3
g111
tp702
a(I0
g94
tp703
a(I1
g94
tp704
a(I2
g96
tp705
a(I3
g96
tp706
a(I0
g100
tp707
a(I1
g111
tp708
a(I2
g96
tp709
a(I3
g94
tp710
a(I0
g96
tp711
a(I1
g96
tp712
a(I2
g111
tp713
a(I3
g94
tp714
a(I0
g96
tp715
a(I1
g96
tp716
a(I2
g96
tp717
a(I3
g94
tp718
a(I0
g96
tp719
a(I1
g96
tp720
a(I2
g111
tp721
a(I3
g94
tp722
a(I0
g100
tp723
a(I1
g96
tp724
a(I2
g94
tp725
a(I3
g94
tp726
a(I0
g100
tp727
a(I1
g96
tp728
a(I2
g102
tp729
a(I3
g94
tp730
a(I0
g100
tp731
a(I1
g96
tp732
a(I2
g102
tp733
a(I3
g102
tp734
a(I0
g94
tp735
a(I1
g102
tp736
a(I2
g96
tp737
a(I3
g94
tp738
a(I0
g96
tp739
a(I1
g94
tp740
a(I2
g111
tp741
a(I3
g111
tp742
a(I0
g102
tp743
a(I1
g111
tp744
a(I2
g96
tp745
a(I3
g96
tp746
a(I0
g94
tp747
a(I1
g94
tp748
a(I2
g111
tp749
a(I3
g96
tp750
a(I0
g100
tp751
a(I1
g94
tp752
a(I2
g94
tp753
a(I3
g96
tp754
a(I0
g102
tp755
a(I1
g94
tp756
a(I2
g94
tp757
a(I3
g96
tp758
a(I0
g100
tp759
a(I1
g94
tp760
a(I2
g102
tp761
a(I3
g96
tp762
a(I0
g111
tp763
a(I1
g102
tp764
a(I2
g96
tp765
a(I3
g96
tp766
a(I0
g102
tp767
a(I1
g94
tp768
a(I2
g111
tp769
a(I3
g96
tp770
a(I0
g94
tp771
a(I1
g111
tp772
a(I2
g94
tp773
a(I3
g94
tp774
a(I0
g94
tp775
a(I1
g96
tp776
a(I2
g102
tp777
a(I3
g102
tp778
a(I0
g111
tp779
a(I1
g102
tp780
a(I2
g96
tp781
a(I3
g102
tp782
a(I0
g111
tp783
a(I1
g94
tp784
a(I2
g111
tp785
a(I3
g96
tp786
a(I0
g111
tp787
a(I1
g94
tp788
a(I2
g94
tp789
a(I3
g96
tp790
a(I0
g94
tp791
a(I1
g111
tp792
a(I2
g102
tp793
a(I3
g96
tp794
a(I0
g94
tp795
a(I1
g96
tp796
a(I2
g96
tp797
a(I3
g111
tp798
a(I0
g94
tp799
a(I1
g96
tp800
a(I2
g111
tp801
a(I3
g111
tp802
a(I0
g102
tp803
a(I1
g102
tp804
a(I2
g94
tp805
a(I3
g96
tp806
a(I0
g102
tp807
a(I1
g94
tp808
a(I2
g102
tp809
a(I3
g96
tp810
a(I0
g100
tp811
a(I1
g111
tp812
a(I2
g102
tp813
a(I3
g96
tp814
a(I0
g111
tp815
a(I1
g94
tp816
a(I2
g102
tp817
a(I3
g102
tp818
a(I0
g100
tp819
a(I1
g102
tp820
a(I2
g94
tp821
a(I3
g94
tp822
a(I0
g100
tp823
a(I1
g96
tp824
a(I2
g111
tp825
a(I3
g94
tp826
a(I0
g102
tp827
a(I1
g96
tp828
a(I2
g94
tp829
a(I3
g94
tp830
a(I0
g102
tp831
a(I1
g111
tp832
a(I2
g94
tp833
a(I3
g111
tp834
a(I0
g111
tp835
a(I1
g94
tp836
a(I2
g94
tp837
a(I3
g96
tp838
a(I0
g100
tp839
a(I1
g94
tp840
a(I2
g111
tp841
a(I3
g96
tp842
a(I0
g96
tp843
a(I1
g102
tp844
a(I2
g111
tp845
a(I3
g102
tp846
a(I0
g111
tp847
a(I1
g96
tp848
a(I2
g96
tp849
a(I3
g94
tp850
a(I0
g102
tp851
a(I1
g111
tp852
a(I2
g96
tp853
a(I3
g111
tp854
a(I0
g100
tp855
a(I1
g96
tp856
a(I2
g94
tp857
a(I3
g94
tp858
a(I0
g111
tp859
a(I1
g102
tp860
a(I2
g94
tp861
a(I3
g102
tp862
a(I0
g96
tp863
a(I1
g94
tp864
a(I2
g94
tp865
a(I3
g102
tp866
a(I0
g94
tp867
a(I1
g111
tp868
a(I2
g94
tp869
a(I3
g94
tp870
a(I0
g100
tp871
a(I1
g96
tp872
a(I2
g94
tp873
a(I3
g102
tp874
a(I0
g111
tp875
a(I1
g96
tp876
a(I2
g94
tp877
a(I3
g102
tp878
a(I0
g102
tp879
a(I1
g96
tp880
a(I2
g102
tp881
a(I3
g102
tp882
a(I0
g100
tp883
a(I1
g96
tp884
a(I2
g94
tp885
a(I3
g94
tp886
a(I0
g100
tp887
a(I1
g96
tp888
a(I2
g111
tp889
a(I3
g102
tp890
a(I0
g96
tp891
a(I1
g102
tp892
a(I2
g96
tp893
a(I3
g94
tp894
a(I0
g100
tp895
a(I1
g102
tp896
a(I2
g96
tp897
a(I3
g102
tp898
a(I0
g102
tp899
a(I1
g94
tp900
a(I2
g96
tp901
a(I3
g96
tp902
a(I0
g102
tp903
a(I1
g94
tp904
a(I2
g96
tp905
a(I3
g111
tp906
a(I0
g111
tp907
a(I1
g102
tp908
a(I2
g96
tp909
a(I3
g96
tp910
a(I0
g94
tp911
a(I1
g94
tp912
a(I2
g96
tp913
a(I3
g111
tp914
a(I0
g111
tp915
a(I1
g94
tp916
a(I2
g96
tp917
a(I3
g111
tp918
a(I0
g94
tp919
a(I1
g102
tp920
a(I2
g94
tp921
a(I3
g111
tp922
a(I0
g102
tp923
a(I1
g96
tp924
a(I2
g94
tp925
a(I3
g111
tp926
a(I0
g96
tp927
a(I1
g111
tp928
a(I2
g94
tp929
a(I3
g94
tp930
a(I0
g94
tp931
a(I1
g94
tp932
a(I2
g94
tp933
a(I3
g94
tp934
a(I0
g100
tp935
a(I1
g102
tp936
a(I2
g94
tp937
a(I3
g111
tp938
a(I0
g102
tp939
a(I1
g102
tp940
a(I2
g94
tp941
a(I3
g111
tp942
a(I0
g96
tp943
a(I1
g94
tp944
a(I2
g94
tp945
a(I3
g96
tp946
a(I0
g94
tp947
a(I1
g111
tp948
a(I2
g102
tp949
a(I3
g94
tp950
a(I0
g100
tp951
a(I1
g96
tp952
a(I2
g96
tp953
a(I3
g102
tp954
a(I0
g111
tp955
a(I1
g102
tp956
a(I2
g111
tp957
a(I3
g102
tp958
a(I0
g100
tp959
a(I1
g96
tp960
a(I2
g96
tp961
a(I3
g96
tp962
a(I0
g111
tp963
a(I1
g96
tp964
a(I2
g96
tp965
a(I3
g96
tp966
a(I0
g100
tp967
a(I1
g111
tp968
a(I2
g96
tp969
a(I3
g102
tp970
a(I0
g111
tp971
a(I1
g96
tp972
a(I2
g96
tp973
a(I3
g94
tp974
a(I0
g94
tp975
a(I1
g111
tp976
a(I2
g102
tp977
a(I3
g111
tp978
a(I0
g102
tp979
a(I1
g96
tp980
a(I2
g96
tp981
a(I3
g96
tp982
a(I0
g100
tp983
a(I1
g96
tp984
a(I2
g111
tp985
a(I3
g102
tp986
a(I0
g96
tp987
a(I1
g96
tp988
a(I2
g94
tp989
a(I3
g96
tp990
a(I0
g96
tp991
a(I1
g96
tp992
a(I2
g102
tp993
a(I3
g111
tp994
a(I0
g111
tp995
a(I1
g102
tp996
a(I2
g102
tp997
a(I3
g94
tp998
a(I0
g111
tp999
a(I1
g102
tp1000
a(I2
g94
tp1001
a(I3
g102
tp1002
a(I0
g111
tp1003
a(I1
g102
tp1004
a(I2
g94
tp1005
a(I3
g94
tp1006
a(I0
g94
tp1007
a(I1
g94
tp1008
a(I2
g102
tp1009
a(I3
g111
tp1010
a(I0
g111
tp1011
a(I1
g111
tp1012
a(I2
g94
tp1013
a(I3
g96
tp1014
a(I0
g96
tp1015
a(I1
g94
tp1016
a(I2
g94
tp1017
a(I3
g102
tp1018
a(I0
g100
tp1019
a(I1
g94
tp1020
a(I2
g94
tp1021
a(I3
g96
tp1022
a(I0
g94
tp1023
a(I1
g94
tp1024
a(I2
g94
tp1025
a(I3
g111
tp1026
a(I0
g102
tp1027
a(I1
g94
tp1028
a(I2
g102
tp1029
a(I3
g111
tp1030
a(I0
g102
tp1031
a(I1
g94
tp1032
a(I2
g102
tp1033
a(I3
g111
tp1034
a(I0
g111
tp1035
a(I1
g94
tp1036
a(I2
g96
tp1037
a(I3
g96
tp1038
a(I0
g96
tp1039
a(I1
g94
tp1040
a(I2
g96
tp1041
a(I3
g96
tp1042
a(I0
g102
tp1043
a(I1
g111
tp1044
a(I2
g111
tp1045
a(I3
g102
tp1046
a(I0
g94
tp1047
a(I1
g111
tp1048
a(I2
g111
tp1049
a(I3
g94
tp1050
a(I0
g111
tp1051
a(I1
g94
tp1052
a(I2
g94
tp1053
a(I3
g111
tp1054
a(I0
g94
tp1055
a(I1
g102
tp1056
a(I2
g102
tp1057
a(I3
g94
tp1058
a(I0
g102
tp1059
a(I1
g102
tp1060
a(I2
g96
tp1061
a(I3
g102
tp1062
a(I0
g96
tp1063
a(I1
g96
tp1064
a(I2
g111
tp1065
a(I3
g96
tp1066
a(I0
g102
tp1067
a(I1
g111
tp1068
a(I2
g94
tp1069
a(I3
g111
tp1070
a(I0
g96
tp1071
a(I1
g94
tp1072
a(I2
g102
tp1073
a(I3
g94
tp1074
a(I0
g102
tp1075
a(I1
g102
tp1076
a(I2
g96
tp1077
a(I3
g102
tp1078
a(I0
g100
tp1079
a(I1
g96
tp1080
a(I2
g111
tp1081
a(I3
g96
tp1082
a(I0
g111
tp1083
a(I1
g96
tp1084
a(I2
g94
tp1085
a(I3
g111
tp1086
a(I0
g111
tp1087
a(I1
g96
tp1088
a(I2
g102
tp1089
a(I3
g94
tp1090
a(I0
g102
tp1091
a(I1
g111
tp1092
a(I2
g96
tp1093
a(I3
g102
tp1094
a(I0
g111
tp1095
a(I1
g94
tp1096
a(I2
g111
tp1097
a(I3
g102
tp1098
a(I0
g102
tp1099
a(I1
g94
tp1100
a(I2
g96
tp1101
a(I3
g94
tp1102
a(I0
g111
tp1103
a(I1
g102
tp1104
a(I2
g102
tp1105
a(I3
g102
tp1106
a(I0
g102
tp1107
a(I1
g94
tp1108
a(I2
g96
tp1109
a(I3
g96
tp1110
a(I0
g100
tp1111
a(I1
g111
tp1112
a(I2
g102
tp1113
a(I3
g111
tp1114
a(I0
g102
tp1115
a(I1
g96
tp1116
a(I2
g96
tp1117
a(I3
g111
tp1118
a(I0
g94
tp1119
a(I1
g102
tp1120
a(I2
g96
tp1121
a(I3
g111
tp1122
a(I0
g111
tp1123
a(I1
g94
tp1124
a(I2
g96
tp1125
a(I3
g96
tp1126
a(I0
g94
tp1127
a(I1
g111
tp1128
a(I2
g102
tp1129
a(I3
g102
tp1130
a(I0
g100
tp1131
a(I1
g96
tp1132
a(I2
g96
tp1133
a(I3
g94
tp1134
a(I0
g94
tp1135
a(I1
g102
tp1136
a(I2
g96
tp1137
a(I3
g111
tp1138
a(I0
g111
tp1139
a(I1
g96
tp1140
a(I2
g111
tp1141
a(I3
g96
tp1142
a(I0
g100
tp1143
a(I1
g96
tp1144
a(I2
g96
tp1145
a(I3
g96
tp1146
a(I0
g96
tp1147
a(I1
g96
tp1148
a(I2
g102
tp1149
a(I3
g96
tp1150
a(I0
g111
tp1151
a(I1
g96
tp1152
a(I2
g94
tp1153
a(I3
g96
tp1154
a(I0
g100
tp1155
a(I1
g96
tp1156
a(I2
g111
tp1157
a(I3
g102
tp1158
a(I0
g111
tp1159
a(I1
g96
tp1160
a(I2
g94
tp1161
a(I3
g94
tp1162
a(I0
g96
tp1163
a(I1
g96
tp1164
a(I2
g111
tp1165
a(I3
g111
tp1166
a(I0
g100
tp1167
a(I1
g102
tp1168
a(I2
g96
tp1169
a(I3
g94
tp1170
a(I0
g94
tp1171
a(I1
g96
tp1172
a(I2
g111
tp1173
a(I3
g94
tp1174
a(I0
g94
tp1175
a(I1
g111
tp1176
a(I2
g111
tp1177
a(I3
g94
tp1178
a(I0
g111
tp1179
a(I1
g111
tp1180
a(I2
g94
tp1181
a(I3
g102
tp1182
a(I0
g102
tp1183
a(I1
g94
tp1184
a(I2
g94
tp1185
a(I3
g96
tp1186
a(I0
g100
tp1187
a(I1
g102
tp1188
a(I2
g94
tp1189
a(I3
g111
tp1190
a(I0
g111
tp1191
a(I1
g102
tp1192
a(I2
g111
tp1193
a(I3
g94
tp1194
a(I0
g102
tp1195
a(I1
g96
tp1196
a(I2
g111
tp1197
a(I3
g102
tp1198
a(I0
g102
tp1199
a(I1
g111
tp1200
a(I2
g94
tp1201
a(I3
g96
tp1202
a(I0
g94
tp1203
a(I1
g111
tp1204
a(I2
g94
tp1205
a(I3
g111
tp1206
a(I0
g96
tp1207
a(I1
g111
tp1208
a(I2
g94
tp1209
a(I3
g94
tp1210
a(I0
g94
tp1211
a(I1
g96
tp1212
a(I2
g94
tp1213
a(I3
g102
tp1214
a(I0
g111
tp1215
a(I1
g111
tp1216
a(I2
g94
tp1217
a(I3
g96
tp1218
a(I0
g94
tp1219
a(I1
g96
tp1220
a(I2
g94
tp1221
a(I3
g111
tp1222
a(I0
g96
tp1223
a(I1
g102
tp1224
a(I2
g102
tp1225
a(I3
g94
tp1226
a(I0
g96
tp1227
a(I1
g94
tp1228
a(I2
g96
tp1229
a(I3
g102
tp1230
a(I0
g94
tp1231
a(I1
g111
tp1232
a(I2
g96
tp1233
a(I3
g96
tp1234
a(I0
g102
tp1235
a(I1
g94
tp1236
a(I2
g111
tp1237
a(I3
g102
tp1238
a(I0
g94
tp1239
a(I1
g94
tp1240
a(I2
g96
tp1241
a(I3
g102
tp1242
a(I0
g94
tp1243
a(I1
g102
tp1244
a(I2
g96
tp1245
a(I3
g94
tp1246
a(I0
g111
tp1247
as.