(dp1
S'layout'
p2
(ilayout
Layout
p3
(dp4
S'numGhosts'
p5
I3
sS'food'
p6
(igame
Grid
p7
(dp8
S'CELLS_PER_INT'
p9
I30
sS'width'
p10
I25
sS'data'
p11
(lp12
(lp13
I00
aI00
aI00
aI00
aI00
aI00
aI00
aI00
aI00
aI00
aI00
aI00
aa(lp14
I00
aI00
aI00
aI00
aI00
aI01
aI00
aI01
aI00
aI01
aI01
aI00
aa(lp15
I00
aI00
aI01
aI00
aI00
aI01
aI01
aI01
aI00
aI01
aI01
aI00
aa(lp16
I00
aI00
aI00
aI00
aI00
aI01
aI00
aI01
aI00
aI01
aI01
aI00
aa(lp17
I00
aI00
aI01
aI01
aI00
aI01
aI00
aI00
aI00
aI00
aI00
aI00
aa(lp18
I00
aI00
aI00
aI01
aI00
aI01
aI01
aI01
aI00
aI00
aI01
aI00
aa(lp19
I00
aI00
aI00
aI01
aI00
aI01
aI00
aI01
aI01
aI00
aI01
aI00
aa(lp20
I00
aI00
aI00
aI00
aI00
aI01
aI00
aI01
aI00
aI00
aI00
aI00
aa(lp21
I00
aI01
aI00
aI01
aI00
aI00
aI00
aI01
aI01
aI00
aI01
aI00
aa(lp22
I00
aI01
aI00
aI01
aI01
aI01
aI01
aI00
aI00
aI00
aI00
aI00
aa(lp23
I00
aI00
aI00
aI01
aI00
aI00
aI00
aI01
aI00
aI00
aI00
aI00
aa(lp24
I00
aI00
aI00
aI00
aI00
aI01
aI00
aI01
aI00
aI01
aI01
aI00
aa(lp25
I00
aI01
aI00
aI01
aI00
aI01
aI00
aI00
aI00
aI00
aI00
aI00
aa(lp26
I00
aI00
aI00
aI00
aI01
aI00
aI00
aI00
aI00
aI00
aI00
aI00
aa(lp27
I00
aI00
aI00
aI01
aI01
aI01
aI01
aI01
aI00
aI00
aI01
aI00
aa(lp28
I00
aI01
aI00
aI01
aI01
aI01
aI01
aI01
aI01
aI00
aI00
aI00
aa(lp29
I00
aI00
aI00
aI01
aI01
aI00
aI00
aI00
aI00
aI00
aI00
aI00
aa(lp30
I00
aI00
aI00
aI01
aI00
aI01
aI00
aI01
aI00
aI01
aI00
aI00
aa(lp31
I00
aI00
aI00
aI01
aI00
aI00
aI00
aI00
aI00
aI00
aI01
aI00
aa(lp32
I00
aI00
aI00
aI01
aI00
aI01
aI00
aI00
aI01
aI00
aI01
aI00
aa(lp33
I00
aI00
aI00
aI00
aI00
aI00
aI00
aI00
aI00
aI01
aI00
aI00
aa(lp34
I00
aI00
aI00
aI01
aI01
aI00
aI00
aI01
aI00
aI00
aI00
aI00
aa(lp35
I00
aI00
aI00
aI00
aI00
aI00
aI00
aI01
aI00
aI00
aI00
aI00
aa(lp36
I00
aI00
aI00
aI00
aI00
aI01
aI00
aI00
aI00
aI00
aI00
aI00
aa(lp37
I00
aI00
aI00
aI00
aI00
aI00
aI00
aI00
aI00
aI00
aI00
aI00
aasS'height'
p38
I12
sbsS'agentPositions'
p39
(lp40
(I01
(I1
I2
tp41
tp42
a(I00
(I21
I10
tp43
tp44
a(I00
(I22
I10
tp45
tp46
a(I00
(I23
I10
tp47
tp48
asg38
I12
sg10
I25
sS'walls'
p49
(igame
Grid
p50
(dp51
g9
I30
sg10
I25
sg11
(lp52
(lp53
I01
aI01
aI01
aI01
aI01
aI01
aI01
aI01
aI01
aI01
aI01
aI01
aa(lp54
I01
aI00
aI00
aI00
aI01
aI00
aI00
aI00
aI01
aI00
aI00
aI01
aa(lp55
I01
aI00
aI00
aI00
aI01
aI00
aI00
aI00
aI01
aI00
aI00
aI01
aa(lp56
I01
aI00
aI00
aI00
aI01
aI00
aI00
aI00
aI01
aI00
aI00
aI01
aa(lp57
I01
aI00
aI00
aI00
aI01
aI00
aI00
aI00
aI01
aI01
aI00
aI01
aa(lp58
I01
aI00
aI00
aI00
aI01
aI00
aI00
aI00
aI00
aI01
aI00
aI01
aa(lp59
I01
aI00
aI00
aI00
aI01
aI00
aI00
aI00
aI00
aI01
aI00
aI01
aa(lp60
I01
aI01
aI00
aI01
aI01
aI00
aI01
aI00
aI00
aI00
aI00
aI01
aa(lp61
I01
aI00
aI00
aI00
aI00
aI00
aI01
aI00
aI00
aI00
aI00
aI01
aa(lp62
I01
aI00
aI00
aI00
aI00
aI00
aI00
aI00
aI00
aI01
aI00
aI01
aa(lp63
I01
aI00
aI00
aI00
aI00
aI00
aI00
aI00
aI00
aI01
aI01
aI01
aa(lp64
I01
aI00
aI00
aI00
aI00
aI00
aI00
aI00
aI00
aI00
aI00
aI01
aa(lp65
I01
aI00
aI00
aI00
aI00
aI00
aI00
aI00
aI00
aI00
aI00
aI01
aa(lp66
I01
aI00
aI00
aI00
aI00
aI01
aI00
aI00
aI00
aI00
aI00
aI01
aa(lp67
I01
aI00
aI01
aI00
aI00
aI00
aI00
aI00
aI00
aI00
aI00
aI01
aa(lp68
I01
aI00
aI01
aI00
aI00
aI00
aI00
aI00
aI00
aI00
aI00
aI01
aa(lp69
I01
aI00
aI00
aI00
aI00
aI00
aI00
aI00
aI01
aI00
aI01
aI01
aa(lp70
I01
aI00
aI00
aI00
aI00
aI00
aI00
aI00
aI01
aI00
aI00
aI01
aa(lp71
I01
aI00
aI00
aI00
aI00
aI00
aI01
aI01
aI01
aI00
aI00
aI01
aa(lp72
I01
aI00
aI00
aI00
aI00
aI00
aI00
aI00
aI00
aI00
aI00
aI01
aa(lp73
I01
aI00
aI00
aI00
aI00
aI00
aI01
aI00
aI00
aI00
aI00
aI01
aa(lp74
I01
aI00
aI00
aI00
aI00
aI00
aI01
aI00
aI00
aI00
aI00
aI01
aa(lp75
I01
aI00
aI00
aI00
aI01
aI00
aI01
aI00
aI00
aI00
aI00
aI01
aa(lp76
I01
aI00
aI00
aI01
aI01
aI00
aI01
aI00
aI00
aI00
aI00
aI01
aa(lp77
I01
aI01
aI01
aI01
aI01
aI01
aI01
aI01
aI01
aI01
aI01
aI01
aasg38
I12
sbsS'layoutText'
p78
(lp79
S'%%%%%%%%%%%%%%%%%%%%%%%%%'
p80
aS'%... .. . %.  . % .. GGG%'
p81
aS'%...%%%  %%.     .  .   %'
p82
aS'%%%%% . .      .%%%.    %'
p83
aS'%... .... ..  .. .%  .. %'
p84
aS'% .  . %%.    ..  % %%%%%'
p85
aS'%....... . ..%.. . .   .%'
p86
aS'%%%%%%%% .   ....    .%%%'
p87
aS'%   ...%... . ...... . %%'
p88
aS'%P. .         %%        %'
p89
aS'%      %..  .  .        %'
p90
aS'%%%%%%%%%%%%%%%%%%%%%%%%%'
p91
asbsS'actions'
p92
(lp93
(I0
S'South'
p94
tp95
a(I1
g94
tp96
a(I2
g94
tp97
a(I3
S'West'
p98
tp99
a(I0
S'East'
p100
tp101
a(I1
g94
tp102
a(I2
g94
tp103
a(I3
g98
tp104
a(I0
g100
tp105
a(I1
g98
tp106
a(I2
g94
tp107
a(I3
g98
tp108
a(I0
g98
tp109
a(I1
g98
tp110
a(I2
g98
tp111
a(I3
g98
tp112
a(I0
S'North'
p113
tp114
a(I1
g113
tp115
a(I2
g113
tp116
a(I3
g98
tp117
a(I0
g113
tp118
a(I1
g113
tp119
a(I2
g98
tp120
a(I3
g98
tp121
a(I0
g94
tp122
a(I1
g98
tp123
a(I2
g98
tp124
a(I3
g94
tp125
a(I0
S'Stop'
p126
tp127
a(I1
g94
tp128
a(I2
g94
tp129
a(I3
g98
tp130
a(I0
g98
tp131
a(I1
g98
tp132
a(I2
g94
tp133
a(I3
g98
tp134
a(I0
g100
tp135
a(I1
g98
tp136
a(I2
g94
tp137
a(I3
g98
tp138
a(I0
g94
tp139
a(I1
g98
tp140
a(I2
g94
tp141
a(I3
g113
tp142
a(I0
g126
tp143
a(I1
g98
tp144
a(I2
g98
tp145
a(I3
g98
tp146
a(I0
g113
tp147
a(I1
g98
tp148
a(I2
g113
tp149
a(I3
g98
tp150
a(I0
g98
tp151
a(I1
g94
tp152
a(I2
g100
tp153
a(I3
g98
tp154
a(I0
g126
tp155
a(I1
g98
tp156
a(I2
g94
tp157
a(I3
g94
tp158
a(I0
g126
tp159
a(I1
g94
tp160
a(I2
g98
tp161
a(I3
g94
tp162
a(I0
g126
tp163
a(I1
g94
tp164
a(I2
g98
tp165
a(I3
g100
tp166
a(I0
g94
tp167
a(I1
g94
tp168
a(I2
g98
tp169
a(I3
g113
tp170
a(I0
g100
tp171
a(I1
g94
tp172
a(I2
g98
tp173
a(I3
g113
tp174
a(I0
g113
tp175
a(I1
g94
tp176
a(I2
g98
tp177
a(I3
g98
tp178
a(I0
g126
tp179
a(I1
g98
tp180
a(I2
g98
tp181
a(I3
g94
tp182
a(I0
g126
tp183
a(I1
g98
tp184
a(I2
g98
tp185
a(I3
g100
tp186
a(I0
g113
tp187
a(I1
g113
tp188
a(I2
g98
tp189
a(I3
g113
tp190
a(I0
g94
tp191
a(I1
g98
tp192
a(I2
g98
tp193
a(I3
g98
tp194
a(I0
g98
tp195
a(I1
g98
tp196
a(I2
g113
tp197
a(I3
g94
tp198
a(I0
g113
tp199
a(I1
g94
tp200
a(I2
g98
tp201
a(I3
g94
tp202
a(I0
g94
tp203
a(I1
g94
tp204
a(I2
g113
tp205
a(I3
g98
tp206
a(I0
g126
tp207
a(I1
g98
tp208
a(I2
g113
tp209
a(I3
g98
tp210
a(I0
g113
tp211
a(I1
g98
tp212
a(I2
g98
tp213
a(I3
g98
tp214
a(I0
g126
tp215
a(I1
g113
tp216
a(I2
g98
tp217
a(I3
g113
tp218
a(I0
g126
tp219
a(I1
g98
tp220
a(I2
g98
tp221
a(I3
g113
tp222
a(I0
g126
tp223
a(I1
g94
tp224
a(I2
g98
tp225
a(I3
g100
tp226
a(I0
g94
tp227
a(I1
g98
tp228
a(I2
g113
tp229
a(I3
g98
tp230
a(I0
g113
tp231
a(I1
g98
tp232
a(I2
g100
tp233
a(I3
g94
tp234
a(I0
g100
tp235
a(I1
g113
tp236
a(I2
g100
tp237
a(I3
g98
tp238
a(I0
g126
tp239
a(I1
g100
tp240
a(I2
g113
tp241
a(I3
g113
tp242
a(I0
g126
tp243
a(I1
g94
tp244
a(I2
g113
tp245
a(I3
g100
tp246
a(I0
g126
tp247
a(I1
g98
tp248
a(I2
g98
tp249
a(I3
g100
tp250
a(I0
g100
tp251
a(I1
g113
tp252
as.