(dp1
S'layout'
p2
(ilayout
Layout
p3
(dp4
S'numGhosts'
p5
I3
sS'food'
p6
(igame
Grid
p7
(dp8
S'CELLS_PER_INT'
p9
I30
sS'width'
p10
I25
sS'data'
p11
(lp12
(lp13
I00
aI00
aI00
aI00
aI00
aI00
aI00
aI00
aI00
aI00
aI00
aI00
aa(lp14
I00
aI00
aI00
aI00
aI00
aI00
aI00
aI01
aI00
aI01
aI01
aI00
aa(lp15
I00
aI00
aI00
aI00
aI00
aI00
aI00
aI01
aI00
aI00
aI01
aI00
aa(lp16
I00
aI00
aI01
aI01
aI00
aI01
aI00
aI01
aI00
aI01
aI00
aI00
aa(lp17
I00
aI00
aI01
aI00
aI00
aI01
aI00
aI00
aI00
aI00
aI01
aI00
aa(lp18
I00
aI00
aI00
aI00
aI00
aI01
aI00
aI01
aI01
aI00
aI01
aI00
aa(lp19
I00
aI01
aI00
aI01
aI00
aI01
aI00
aI01
aI01
aI00
aI01
aI00
aa(lp20
I00
aI00
aI00
aI00
aI00
aI00
aI00
aI01
aI01
aI00
aI00
aI00
aa(lp21
I00
aI01
aI01
aI01
aI01
aI01
aI00
aI01
aI01
aI01
aI00
aI00
aa(lp22
I00
aI00
aI00
aI00
aI01
aI01
aI00
aI01
aI00
aI00
aI00
aI00
aa(lp23
I00
aI00
aI00
aI00
aI00
aI00
aI01
aI00
aI00
aI00
aI00
aI00
aa(lp24
I00
aI00
aI01
aI00
aI00
aI01
aI00
aI00
aI00
aI01
aI00
aI00
aa(lp25
I00
aI00
aI00
aI00
aI00
aI00
aI00
aI01
aI00
aI00
aI00
aI00
aa(lp26
I00
aI00
aI00
aI01
aI00
aI00
aI01
aI00
aI00
aI00
aI00
aI00
aa(lp27
I00
aI01
aI00
aI01
aI00
aI00
aI01
aI01
aI00
aI00
aI00
aI00
aa(lp28
I00
aI01
aI00
aI01
aI00
aI01
aI00
aI01
aI01
aI00
aI00
aI00
aa(lp29
I00
aI01
aI00
aI01
aI01
aI01
aI01
aI01
aI00
aI00
aI00
aI00
aa(lp30
I00
aI00
aI00
aI01
aI00
aI00
aI01
aI01
aI00
aI01
aI00
aI00
aa(lp31
I00
aI00
aI00
aI00
aI01
aI00
aI00
aI00
aI00
aI01
aI00
aI00
aa(lp32
I00
aI01
aI00
aI01
aI00
aI01
aI00
aI00
aI00
aI01
aI01
aI00
aa(lp33
I00
aI00
aI00
aI00
aI00
aI00
aI00
aI01
aI00
aI00
aI01
aI00
aa(lp34
I00
aI00
aI01
aI00
aI01
aI01
aI00
aI01
aI00
aI01
aI00
aI00
aa(lp35
I00
aI00
aI00
aI01
aI00
aI00
aI00
aI00
aI01
aI00
aI00
aI00
aa(lp36
I00
aI00
aI00
aI00
aI00
aI01
aI00
aI00
aI01
aI00
aI00
aI00
aa(lp37
I00
aI00
aI00
aI00
aI00
aI00
aI00
aI00
aI00
aI00
aI00
aI00
aasS'height'
p38
I12
sbsS'agentPositions'
p39
(lp40
(I01
(I20
I1
tp41
tp42
a(I00
(I21
I10
tp43
tp44
a(I00
(I22
I10
tp45
tp46
a(I00
(I23
I10
tp47
tp48
asg38
I12
sg10
I25
sS'walls'
p49
(igame
Grid
p50
(dp51
g9
I30
sg10
I25
sg11
(lp52
(lp53
I01
aI01
aI01
aI01
aI01
aI01
aI01
aI01
aI01
aI01
aI01
aI01
aa(lp54
I01
aI00
aI00
aI00
aI01
aI00
aI00
aI00
aI01
aI00
aI00
aI01
aa(lp55
I01
aI00
aI00
aI00
aI01
aI00
aI00
aI00
aI01
aI00
aI00
aI01
aa(lp56
I01
aI00
aI00
aI00
aI01
aI00
aI00
aI00
aI01
aI00
aI00
aI01
aa(lp57
I01
aI00
aI00
aI00
aI01
aI00
aI00
aI00
aI01
aI01
aI00
aI01
aa(lp58
I01
aI00
aI00
aI00
aI01
aI00
aI00
aI00
aI00
aI01
aI00
aI01
aa(lp59
I01
aI00
aI00
aI00
aI01
aI00
aI00
aI00
aI00
aI01
aI00
aI01
aa(lp60
I01
aI01
aI00
aI01
aI01
aI00
aI01
aI00
aI00
aI00
aI00
aI01
aa(lp61
I01
aI00
aI00
aI00
aI00
aI00
aI01
aI00
aI00
aI00
aI00
aI01
aa(lp62
I01
aI00
aI00
aI00
aI00
aI00
aI00
aI00
aI00
aI01
aI00
aI01
aa(lp63
I01
aI00
aI00
aI00
aI00
aI00
aI00
aI00
aI00
aI01
aI01
aI01
aa(lp64
I01
aI00
aI00
aI00
aI00
aI00
aI00
aI00
aI00
aI00
aI00
aI01
aa(lp65
I01
aI00
aI00
aI00
aI00
aI00
aI00
aI00
aI00
aI00
aI00
aI01
aa(lp66
I01
aI00
aI00
aI00
aI00
aI01
aI00
aI00
aI00
aI00
aI00
aI01
aa(lp67
I01
aI00
aI01
aI00
aI00
aI00
aI00
aI00
aI00
aI00
aI00
aI01
aa(lp68
I01
aI00
aI01
aI00
aI00
aI00
aI00
aI00
aI00
aI00
aI00
aI01
aa(lp69
I01
aI00
aI00
aI00
aI00
aI00
aI00
aI00
aI01
aI00
aI01
aI01
aa(lp70
I01
aI00
aI00
aI00
aI00
aI00
aI00
aI00
aI01
aI00
aI00
aI01
aa(lp71
I01
aI00
aI00
aI00
aI00
aI00
aI01
aI01
aI01
aI00
aI00
aI01
aa(lp72
I01
aI00
aI00
aI00
aI00
aI00
aI00
aI00
aI00
aI00
aI00
aI01
aa(lp73
I01
aI00
aI00
aI00
aI00
aI00
aI01
aI00
aI00
aI00
aI00
aI01
aa(lp74
I01
aI00
aI00
aI00
aI00
aI00
aI01
aI00
aI00
aI00
aI00
aI01
aa(lp75
I01
aI00
aI00
aI00
aI01
aI00
aI01
aI00
aI00
aI00
aI00
aI01
aa(lp76
I01
aI00
aI00
aI01
aI01
aI00
aI01
aI00
aI00
aI00
aI00
aI01
aa(lp77
I01
aI01
aI01
aI01
aI01
aI01
aI01
aI01
aI01
aI01
aI01
aI01
aasg38
I12
sbsS'layoutText'
p78
(lp79
S'%%%%%%%%%%%%%%%%%%%%%%%%%'
p80
aS'%.. ...   %     %  ..GGG%'
p81
aS'%. .%%% .%%.     ... .  %'
p82
aS'%%%%%....      .%%%   ..%'
p83
aS'%... .....  . ....% ..  %'
p84
aS'%      %% .  .. ..% %%%%%'
p85
aS'%  .... .. . % ..  . . .%'
p86
aS'%%%%%%%%..      . .  .%%%'
p87
aS'%  .  .%.    ..... .  .%%'
p88
aS'%  ..   .  .  %%     .  %'
p89
aS'%     .%.     ...  .P   %'
p90
aS'%%%%%%%%%%%%%%%%%%%%%%%%%'
p91
asbsS'actions'
p92
(lp93
(I0
S'East'
p94
tp95
a(I1
S'West'
p96
tp97
a(I2
g96
tp98
a(I3
S'South'
p99
tp100
a(I0
g96
tp101
a(I1
g99
tp102
a(I2
g96
tp103
a(I3
g99
tp104
a(I0
g96
tp105
a(I1
g99
tp106
a(I2
g96
tp107
a(I3
g99
tp108
a(I0
g94
tp109
a(I1
g99
tp110
a(I2
g96
tp111
a(I3
g96
tp112
a(I0
S'Stop'
p113
tp114
a(I1
g96
tp115
a(I2
g96
tp116
a(I3
g96
tp117
a(I0
g113
tp118
a(I1
g99
tp119
a(I2
g99
tp120
a(I3
g96
tp121
a(I0
g94
tp122
a(I1
g99
tp123
a(I2
g96
tp124
a(I3
g96
tp125
a(I0
g113
tp126
a(I1
g96
tp127
a(I2
g96
tp128
a(I3
S'North'
p129
tp130
a(I0
g94
tp131
a(I1
g99
tp132
a(I2
g129
tp133
a(I3
g94
tp134
a(I0
g96
tp135
a(I1
g96
tp136
a(I2
g96
tp137
a(I3
g94
tp138
a(I0
g113
tp139
a(I1
g96
tp140
a(I2
g96
tp141
a(I3
g99
tp142
a(I0
g129
tp143
a(I1
g99
tp144
a(I2
g96
tp145
a(I3
g96
tp146
a(I0
g129
tp147
a(I1
g99
tp148
a(I2
g99
tp149
a(I3
g96
tp150
a(I0
g113
tp151
a(I1
g99
tp152
a(I2
g96
tp153
a(I3
g99
tp154
a(I0
g96
tp155
a(I1
g94
tp156
a(I2
g129
tp157
a(I3
g99
tp158
a(I0
g113
tp159
a(I1
g129
tp160
a(I2
g94
tp161
a(I3
g99
tp162
a(I0
g94
tp163
a(I1
g96
tp164
a(I2
g94
tp165
a(I3
g99
tp166
a(I0
g99
tp167
a(I1
g129
tp168
a(I2
g99
tp169
a(I3
g96
tp170
a(I0
g113
tp171
a(I1
g129
tp172
a(I2
g99
tp173
a(I3
g99
tp174
a(I0
g94
tp175
a(I1
g96
tp176
a(I2
g96
tp177
a(I3
g99
tp178
a(I0
g96
tp179
a(I1
g99
tp180
a(I2
g96
tp181
a(I3
g96
tp182
a(I0
g129
tp183
a(I1
g94
tp184
a(I2
g96
tp185
a(I3
g96
tp186
a(I0
g96
tp187
a(I1
g129
tp188
a(I2
g99
tp189
a(I3
g129
tp190
a(I0
g94
tp191
a(I1
g96
tp192
a(I2
g99
tp193
a(I3
g94
tp194
a(I0
g129
tp195
a(I1
g96
tp196
a(I2
g99
tp197
a(I3
g94
tp198
a(I0
g113
tp199
a(I1
g129
tp200
a(I2
g99
tp201
a(I3
g99
tp202
a(I0
g113
tp203
a(I1
g129
tp204
a(I2
g94
tp205
a(I3
g94
tp206
a(I0
g129
tp207
a(I1
g129
tp208
a(I2
g129
tp209
a(I3
g94
tp210
a(I0
g99
tp211
a(I1
g129
tp212
a(I2
g96
tp213
a(I3
g129
tp214
a(I0
g99
tp215
a(I1
g129
tp216
a(I2
g99
tp217
a(I3
g129
tp218
a(I0
g94
tp219
a(I1
g129
tp220
a(I2
g96
tp221
a(I3
g96
tp222
a(I0
g96
tp223
a(I1
g96
tp224
a(I2
g96
tp225
a(I3
g96
tp226
a(I0
g99
tp227
a(I1
g96
tp228
a(I2
g129
tp229
a(I3
g129
tp230
a(I0
g94
tp231
a(I1
g96
tp232
a(I2
g96
tp233
a(I3
g129
tp234
a(I0
g94
tp235
a(I1
g99
tp236
a(I2
g96
tp237
a(I3
g96
tp238
a(I0
g99
tp239
a(I1
g94
tp240
a(I2
g96
tp241
a(I3
g129
tp242
a(I0
g96
tp243
a(I1
g129
tp244
a(I2
g96
tp245
a(I3
g129
tp246
a(I0
g129
tp247
a(I1
g96
tp248
a(I2
g96
tp249
a(I3
g96
tp250
a(I0
g96
tp251
a(I1
g99
tp252
a(I2
g129
tp253
a(I3
g96
tp254
a(I0
g113
tp255
a(I1
g94
tp256
a(I2
g94
tp257
a(I3
g129
tp258
a(I0
g96
tp259
a(I1
g129
tp260
a(I2
g94
tp261
a(I3
g129
tp262
a(I0
g99
tp263
a(I1
g96
tp264
a(I2
g99
tp265
a(I3
g94
tp266
a(I0
g129
tp267
a(I1
g99
tp268
a(I2
g94
tp269
a(I3
g94
tp270
a(I0
g94
tp271
a(I1
g99
tp272
a(I2
g94
tp273
a(I3
g129
tp274
a(I0
g96
tp275
a(I1
g96
tp276
a(I2
g94
tp277
a(I3
g94
tp278
a(I0
g113
tp279
a(I1
g96
tp280
a(I2
g94
tp281
a(I3
g99
tp282
a(I0
g99
tp283
a(I1
g96
tp284
a(I2
g94
tp285
a(I3
g96
tp286
a(I0
g94
tp287
a(I1
g129
tp288
a(I2
g99
tp289
a(I3
g129
tp290
a(I0
g96
tp291
a(I1
g129
tp292
a(I2
g96
tp293
a(I3
g94
tp294
a(I0
g96
tp295
a(I1
g94
tp296
a(I2
g129
tp297
a(I3
g94
tp298
a(I0
g94
tp299
a(I1
g96
tp300
a(I2
g129
tp301
a(I3
g94
tp302
a(I0
g96
tp303
a(I1
g99
tp304
a(I2
g94
tp305
a(I3
g99
tp306
a(I0
g94
tp307
a(I1
g99
tp308
a(I2
g129
tp309
a(I3
g96
tp310
a(I0
g94
tp311
a(I1
g94
tp312
a(I2
g129
tp313
a(I3
g129
tp314
a(I0
g96
tp315
a(I1
g94
tp316
a(I2
g96
tp317
a(I3
g96
tp318
a(I0
g94
tp319
a(I1
g99
tp320
a(I2
g99
tp321
a(I3
g96
tp322
a(I0
g113
tp323
a(I1
g99
tp324
a(I2
g94
tp325
a(I3
g99
tp326
a(I0
g129
tp327
a(I1
g99
tp328
a(I2
g129
tp329
a(I3
g96
tp330
a(I0
g99
tp331
a(I1
g94
tp332
a(I2
g94
tp333
a(I3
g96
tp334
a(I0
g113
tp335
a(I1
g129
tp336
a(I2
g129
tp337
a(I3
g96
tp338
a(I0
g94
tp339
a(I1
g129
tp340
a(I2
g129
tp341
a(I3
g99
tp342
a(I0
g96
tp343
a(I1
g96
tp344
a(I2
g94
tp345
a(I3
g94
tp346
a(I0
g96
tp347
a(I1
g129
tp348
a(I2
g99
tp349
a(I3
g129
tp350
a(I0
g129
tp351
a(I1
g96
tp352
a(I2
g96
tp353
a(I3
g96
tp354
a(I0
g99
tp355
a(I1
g99
tp356
a(I2
g129
tp357
a(I3
g96
tp358
a(I0
g129
tp359
a(I1
g94
tp360
a(I2
g94
tp361
a(I3
g129
tp362
a(I0
g99
tp363
a(I1
g129
tp364
a(I2
g99
tp365
a(I3
g96
tp366
a(I0
g113
tp367
a(I1
g96
tp368
a(I2
g96
tp369
a(I3
g96
tp370
a(I0
g113
tp371
a(I1
g96
tp372
a(I2
g129
tp373
a(I3
g99
tp374
a(I0
g94
tp375
a(I1
g96
tp376
a(I2
g94
tp377
a(I3
g94
tp378
a(I0
g129
tp379
a(I1
g129
tp380
a(I2
g94
tp381
a(I3
g129
tp382
a(I0
g99
tp383
a(I1
g129
tp384
a(I2
g94
tp385
a(I3
g96
tp386
a(I0
g96
tp387
a(I1
g94
tp388
a(I2
g94
tp389
a(I3
g99
tp390
a(I0
g113
tp391
a(I1
g94
tp392
a(I2
g99
tp393
a(I3
g94
tp394
a(I0
g96
tp395
a(I1
g96
tp396
a(I2
g96
tp397
a(I3
g129
tp398
a(I0
g96
tp399
a(I1
g99
tp400
a(I2
g99
tp401
a(I3
g96
tp402
a(I0
g129
tp403
a(I1
g96
tp404
a(I2
g99
tp405
a(I3
g99
tp406
a(I0
g99
tp407
a(I1
g129
tp408
a(I2
g99
tp409
a(I3
g99
tp410
a(I0
g94
tp411
a(I1
g94
tp412
a(I2
g99
tp413
a(I3
g96
tp414
a(I0
g96
tp415
a(I1
g94
tp416
a(I2
g99
tp417
a(I3
g96
tp418
a(I0
g96
tp419
a(I1
g96
tp420
a(I2
g96
tp421
a(I3
g96
tp422
a(I0
g113
tp423
a(I1
g99
tp424
a(I2
g99
tp425
a(I3
g96
tp426
a(I0
g129
tp427
a(I1
g96
tp428
a(I2
g99
tp429
a(I3
g129
tp430
a(I0
g99
tp431
a(I1
g99
tp432
a(I2
g96
tp433
a(I3
g94
tp434
a(I0
g94
tp435
a(I1
g99
tp436
a(I2
g96
tp437
a(I3
g129
tp438
a(I0
g129
tp439
a(I1
g96
tp440
a(I2
g96
tp441
a(I3
g94
tp442
a(I0
g129
tp443
a(I1
g96
tp444
a(I2
g96
tp445
a(I3
g96
tp446
a(I0
g94
tp447
a(I1
g96
tp448
a(I2
g99
tp449
a(I3
g99
tp450
a(I0
g113
tp451
a(I1
g96
tp452
a(I2
g94
tp453
a(I3
g99
tp454
a(I0
g99
tp455
a(I1
g96
tp456
a(I2
g129
tp457
a(I3
g94
tp458
a(I0
g129
tp459
a(I1
g99
tp460
a(I2
g96
tp461
a(I3
g94
tp462
a(I0
g99
tp463
a(I1
g99
tp464
a(I2
g96
tp465
a(I3
g99
tp466
a(I0
g99
tp467
a(I1
g94
tp468
a(I2
g129
tp469
a(I3
g94
tp470
a(I0
g96
tp471
a(I1
g129
tp472
a(I2
g129
tp473
a(I3
g129
tp474
a(I0
g94
tp475
a(I1
g94
tp476
a(I2
g129
tp477
a(I3
g96
tp478
a(I0
g94
tp479
a(I1
g94
tp480
a(I2
g96
tp481
a(I3
g96
tp482
a(I0
g94
tp483
a(I1
g94
tp484
a(I2
g96
tp485
a(I3
g96
tp486
a(I0
g129
tp487
a(I1
g129
tp488
a(I2
g129
tp489
a(I3
g129
tp490
a(I0
g99
tp491
a(I1
g94
tp492
a(I2
g96
tp493
a(I3
g96
tp494
a(I0
g113
tp495
a(I1
g94
tp496
a(I2
g96
tp497
a(I3
g99
tp498
a(I0
g129
tp499
a(I1
g129
tp500
a(I2
g96
tp501
a(I3
g96
tp502
a(I0
g94
tp503
a(I1
g94
tp504
a(I2
g96
tp505
a(I3
g96
tp506
a(I0
g113
tp507
a(I1
g94
tp508
a(I2
g99
tp509
a(I3
g99
tp510
a(I0
g129
tp511
a(I1
g99
tp512
a(I2
g94
tp513
a(I3
g99
tp514
a(I0
g96
tp515
a(I1
g96
tp516
a(I2
g129
tp517
a(I3
g99
tp518
a(I0
g113
tp519
a(I1
g129
tp520
a(I2
g96
tp521
a(I3
g96
tp522
a(I0
g94
tp523
a(I1
g94
tp524
a(I2
g99
tp525
a(I3
g96
tp526
a(I0
g96
tp527
a(I1
g99
tp528
a(I2
g96
tp529
a(I3
g96
tp530
a(I0
g113
tp531
a(I1
g96
tp532
a(I2
g129
tp533
a(I3
g129
tp534
a(I0
g94
tp535
a(I1
g96
tp536
a(I2
g94
tp537
a(I3
g129
tp538
a(I0
g96
tp539
a(I1
g129
tp540
a(I2
g129
tp541
a(I3
g94
tp542
a(I0
g113
tp543
a(I1
g129
tp544
a(I2
g96
tp545
a(I3
g94
tp546
a(I0
g99
tp547
a(I1
g129
tp548
a(I2
g99
tp549
a(I3
g99
tp550
a(I0
g129
tp551
a(I1
g96
tp552
a(I2
g94
tp553
a(I3
g99
tp554
a(I0
g99
tp555
a(I1
g96
tp556
a(I2
g99
tp557
a(I3
g96
tp558
a(I0
g96
tp559
a(I1
g96
tp560
a(I2
g94
tp561
a(I3
g96
tp562
a(I0
g96
tp563
a(I1
g96
tp564
a(I2
g94
tp565
a(I3
g129
tp566
a(I0
g96
tp567
a(I1
g96
tp568
a(I2
g94
tp569
a(I3
g94
tp570
a(I0
g129
tp571
a(I1
g99
tp572
a(I2
g94
tp573
a(I3
g99
tp574
a(I0
g129
tp575
a(I1
g96
tp576
a(I2
g129
tp577
a(I3
g96
tp578
a(I0
g113
tp579
a(I1
g129
tp580
a(I2
g96
tp581
a(I3
g96
tp582
a(I0
g99
tp583
a(I1
g94
tp584
a(I2
g99
tp585
a(I3
g129
tp586
a(I0
g94
tp587
a(I1
g94
tp588
a(I2
g96
tp589
a(I3
g94
tp590
a(I0
g96
tp591
a(I1
g94
tp592
a(I2
g129
tp593
a(I3
g129
tp594
a(I0
g113
tp595
a(I1
g94
tp596
a(I2
g129
tp597
a(I3
g94
tp598
a(I0
g129
tp599
a(I1
g94
tp600
a(I2
g96
tp601
a(I3
g99
tp602
a(I0
g99
tp603
a(I1
g94
tp604
a(I2
g96
tp605
a(I3
g99
tp606
a(I0
g113
tp607
a(I1
g99
tp608
a(I2
g99
tp609
a(I3
g94
tp610
a(I0
g99
tp611
a(I1
g96
tp612
a(I2
g99
tp613
a(I3
g94
tp614
a(I0
g99
tp615
a(I1
g129
tp616
a(I2
g96
tp617
a(I3
g94
tp618
a(I0
g129
tp619
a(I1
g96
tp620
a(I2
g129
tp621
a(I3
g94
tp622
a(I0
g113
tp623
a(I1
g96
tp624
a(I2
g94
tp625
a(I3
g94
tp626
a(I0
g96
tp627
a(I1
g96
tp628
a(I2
g99
tp629
a(I3
g99
tp630
a(I0
g99
tp631
a(I1
g96
tp632
a(I2
g96
tp633
a(I3
g99
tp634
a(I0
g113
tp635
a(I1
g96
tp636
a(I2
g129
tp637
a(I3
g94
tp638
a(I0
g94
tp639
a(I1
g99
tp640
a(I2
g94
tp641
a(I3
g94
tp642
a(I0
g113
tp643
a(I1
g94
tp644
a(I2
g99
tp645
a(I3
g129
tp646
a(I0
g129
tp647
a(I1
g129
tp648
a(I2
g94
tp649
a(I3
g129
tp650
a(I0
g94
tp651
a(I1
g94
tp652
a(I2
g94
tp653
a(I3
g129
tp654
a(I0
g96
tp655
a(I1
g94
tp656
a(I2
g129
tp657
a(I3
g129
tp658
a(I0
g96
tp659
a(I1
g94
tp660
a(I2
g96
tp661
a(I3
g129
tp662
a(I0
g129
tp663
a(I1
g94
tp664
a(I2
g99
tp665
a(I3
g94
tp666
a(I0
g94
tp667
a(I1
g94
tp668
a(I2
g96
tp669
a(I3
g129
tp670
a(I0
g96
tp671
a(I1
g99
tp672
a(I2
g96
tp673
a(I3
g129
tp674
a(I0
g96
tp675
a(I1
g96
tp676
a(I2
g129
tp677
a(I3
g94
tp678
a(I0
g96
tp679
a(I1
g99
tp680
a(I2
g94
tp681
a(I3
g94
tp682
a(I0
g94
tp683
a(I1
g96
tp684
a(I2
g99
tp685
a(I3
g99
tp686
a(I0
g99
tp687
a(I1
g99
tp688
a(I2
g94
tp689
a(I3
g96
tp690
a(I0
g129
tp691
a(I1
g96
tp692
a(I2
g94
tp693
a(I3
g96
tp694
a(I0
g96
tp695
a(I1
g99
tp696
a(I2
g94
tp697
a(I3
g129
tp698
a(I0
g113
tp699
a(I1
g96
tp700
a(I2
g94
tp701
a(I3
g94
tp702
a(I0
g96
tp703
a(I1
g129
tp704
a(I2
g129
tp705
a(I3
g94
tp706
a(I0
g113
tp707
a(I1
g96
tp708
a(I2
g96
tp709
a(I3
g99
tp710
a(I0
g94
tp711
a(I1
g99
tp712
a(I2
g129
tp713
a(I3
g96
tp714
a(I0
g94
tp715
a(I1
g99
tp716
a(I2
g96
tp717
a(I3
g96
tp718
a(I0
g94
tp719
a(I1
g94
tp720
a(I2
g99
tp721
a(I3
g129
tp722
a(I0
g96
tp723
a(I1
g94
tp724
a(I2
g99
tp725
a(I3
g94
tp726
a(I0
g96
tp727
a(I1
g94
tp728
a(I2
g96
tp729
a(I3
g94
tp730
a(I0
g129
tp731
a(I1
g94
tp732
a(I2
g96
tp733
a(I3
g94
tp734
a(I0
g96
tp735
a(I1
g94
tp736
a(I2
g129
tp737
a(I3
g94
tp738
a(I0
g96
tp739
a(I1
g94
tp740
a(I2
g129
tp741
a(I3
g99
tp742
a(I0
g113
tp743
a(I1
g99
tp744
a(I2
g94
tp745
a(I3
g96
tp746
a(I0
g99
tp747
a(I1
g94
tp748
a(I2
g94
tp749
a(I3
g129
tp750
a(I0
g113
tp751
a(I1
g129
tp752
a(I2
g94
tp753
a(I3
g96
tp754
a(I0
g113
tp755
a(I1
g94
tp756
a(I2
g94
tp757
a(I3
g96
tp758
a(I0
g113
tp759
a(I1
g99
tp760
a(I2
g94
tp761
a(I3
g96
tp762
a(I0
g129
tp763
a(I1
g96
tp764
a(I2
g129
tp765
a(I3
g99
tp766
a(I0
g99
tp767
a(I1
g96
tp768
a(I2
g129
tp769
a(I3
g99
tp770
a(I0
g94
tp771
a(I1
g99
tp772
a(I2
g94
tp773
a(I3
g96
tp774
a(I0
g129
tp775
a(I1
g96
tp776
a(I2
g99
tp777
a(I3
g96
tp778
a(I0
g94
tp779
a(I1
g99
tp780
a(I2
g99
tp781
a(I3
g99
tp782
a(I0
g113
tp783
a(I1
g96
tp784
a(I2
g94
tp785
a(I3
g96
tp786
a(I0
g94
tp787
a(I1
g96
tp788
a(I2
g94
tp789
a(I3
g129
tp790
a(I0
g99
tp791
a(I1
g129
tp792
a(I2
g99
tp793
a(I3
g96
tp794
a(I0
g96
tp795
a(I1
g96
tp796
a(I2
g99
tp797
a(I3
g129
tp798
a(I0
g94
tp799
a(I1
g96
tp800
a(I2
g96
tp801
a(I3
g129
tp802
a(I0
g99
tp803
a(I1
g96
tp804
a(I2
g99
tp805
a(I3
g96
tp806
a(I0
g129
tp807
a(I1
g96
tp808
a(I2
g94
tp809
a(I3
g96
tp810
a(I0
g113
tp811
a(I1
g99
tp812
a(I2
g129
tp813
a(I3
g96
tp814
a(I0
g99
tp815
a(I1
g94
tp816
a(I2
g129
tp817
a(I3
g96
tp818
a(I0
g129
tp819
a(I1
g94
tp820
a(I2
g129
tp821
a(I3
g96
tp822
a(I0
g99
tp823
a(I1
g94
tp824
a(I2
g129
tp825
a(I3
g99
tp826
a(I0
g99
tp827
a(I1
g94
tp828
a(I2
g96
tp829
a(I3
g94
tp830
a(I0
g94
tp831
a(I1
g94
tp832
a(I2
g99
tp833
a(I3
g129
tp834
a(I0
g96
tp835
a(I1
g94
tp836
a(I2
g94
tp837
a(I3
g94
tp838
a(I0
g129
tp839
a(I1
g94
tp840
a(I2
g129
tp841
a(I3
g94
tp842
a(I0
g94
tp843
a(I1
g94
tp844
a(I2
g94
tp845
a(I3
g94
tp846
a(I0
g129
tp847
a(I1
g129
tp848
a(I2
g129
tp849
a(I3
g94
tp850
a(I0
g94
tp851
a(I1
g94
tp852
a(I2
g129
tp853
a(I3
g99
tp854
a(I0
g94
tp855
a(I1
g129
tp856
a(I2
g94
tp857
a(I3
g99
tp858
a(I0
g129
tp859
a(I1
g96
tp860
a(I2
g99
tp861
a(I3
g96
tp862
a(I0
g94
tp863
a(I1
g99
tp864
a(I2
g96
tp865
a(I3
g99
tp866
a(I0
g129
tp867
a(I1
g96
tp868
a(I2
g129
tp869
a(I3
g99
tp870
a(I0
g99
tp871
a(I1
g99
tp872
a(I2
g94
tp873
a(I3
g96
tp874
a(I0
g94
tp875
a(I1
g96
tp876
a(I2
g99
tp877
a(I3
g96
tp878
a(I0
g113
tp879
a(I1
g96
tp880
a(I2
g96
tp881
a(I3
g96
tp882
a(I0
g129
tp883
a(I1
g96
tp884
a(I2
g129
tp885
a(I3
g96
tp886
a(I0
g99
tp887
a(I1
g96
tp888
a(I2
g94
tp889
a(I3
g129
tp890
a(I0
g113
tp891
a(I1
g129
tp892
a(I2
g99
tp893
a(I3
g94
tp894
a(I0
g113
tp895
a(I1
g96
tp896
a(I2
g96
tp897
a(I3
g94
tp898
a(I0
g96
tp899
a(I1
g96
tp900
a(I2
g129
tp901
a(I3
g94
tp902
a(I0
g99
tp903
a(I1
g99
tp904
a(I2
g94
tp905
a(I3
g129
tp906
a(I0
g94
tp907
a(I1
g96
tp908
a(I2
g94
tp909
a(I3
g94
tp910
a(I0
g94
tp911
a(I1
g99
tp912
a(I2
g99
tp913
a(I3
g94
tp914
a(I0
g99
tp915
a(I1
g96
tp916
a(I2
g99
tp917
a(I3
g129
tp918
a(I0
g96
tp919
a(I1
g129
tp920
a(I2
g96
tp921
a(I3
g129
tp922
a(I0
g96
tp923
a(I1
g94
tp924
a(I2
g96
tp925
a(I3
g96
tp926
a(I0
g99
tp927
a(I1
g94
tp928
a(I2
g129
tp929
a(I3
g96
tp930
a(I0
g113
tp931
a(I1
g94
tp932
a(I2
g129
tp933
a(I3
g96
tp934
a(I0
g96
tp935
a(I1
g94
tp936
a(I2
g94
tp937
a(I3
g96
tp938
a(I0
g96
tp939
a(I1
g129
tp940
a(I2
g99
tp941
a(I3
g96
tp942
a(I0
g94
tp943
a(I1
g94
tp944
a(I2
g99
tp945
a(I3
g96
tp946
a(I0
g113
tp947
a(I1
g99
tp948
a(I2
g96
tp949
a(I3
g99
tp950
a(I0
g96
tp951
a(I1
g96
tp952
a(I2
g129
tp953
a(I3
g94
tp954
a(I0
g96
tp955
a(I1
g129
tp956
a(I2
g129
tp957
a(I3
g129
tp958
a(I0
g96
tp959
a(I1
g96
tp960
a(I2
g94
tp961
a(I3
g94
tp962
a(I0
g94
tp963
a(I1
g96
tp964
a(I2
g94
tp965
a(I3
g94
tp966
a(I0
g113
tp967
a(I1
g96
tp968
a(I2
g99
tp969
a(I3
g94
tp970
a(I0
g94
tp971
a(I1
g99
tp972
a(I2
g96
tp973
a(I3
g94
tp974
a(I0
g94
tp975
a(I1
g96
tp976
a(I2
g129
tp977
a(I3
g94
tp978
a(I0
g96
tp979
a(I1
g129
tp980
a(I2
g96
tp981
a(I3
g99
tp982
a(I0
g129
tp983
a(I1
g94
tp984
a(I2
g99
tp985
a(I3
g94
tp986
a(I0
g96
tp987
a(I1
g94
tp988
a(I2
g99
tp989
a(I3
g129
tp990
a(I0
g129
tp991
a(I1
g94
tp992
a(I2
g96
tp993
a(I3
g96
tp994
a(I0
g96
tp995
a(I1
g99
tp996
a(I2
g99
tp997
a(I3
g96
tp998
a(I0
g96
tp999
a(I1
g96
tp1000
a(I2
g96
tp1001
a(I3
g96
tp1002
a(I0
g113
tp1003
a(I1
g129
tp1004
a(I2
g129
tp1005
a(I3
g96
tp1006
a(I0
g94
tp1007
a(I1
g94
tp1008
a(I2
g94
tp1009
a(I3
g96
tp1010
a(I0
g113
tp1011
a(I1
g94
tp1012
a(I2
g94
tp1013
a(I3
g99
tp1014
a(I0
g94
tp1015
a(I1
g99
tp1016
a(I2
g129
tp1017
a(I3
g96
tp1018
a(I0
g94
tp1019
a(I1
g96
tp1020
a(I2
g129
tp1021
a(I3
g129
tp1022
a(I0
g113
tp1023
a(I1
g96
tp1024
a(I2
g94
tp1025
a(I3
g94
tp1026
a(I0
g99
tp1027
a(I1
g96
tp1028
a(I2
g99
tp1029
a(I3
g94
tp1030
a(I0
g129
tp1031
a(I1
g129
tp1032
a(I2
g96
tp1033
a(I3
g94
tp1034
a(I0
g96
tp1035
a(I1
g94
tp1036
a(I2
g129
tp1037
a(I3
g94
tp1038
a(I0
g99
tp1039
a(I1
g94
tp1040
a(I2
g94
tp1041
a(I3
g94
tp1042
a(I0
g94
tp1043
a(I1
g94
tp1044
a(I2
g99
tp1045
a(I3
g99
tp1046
a(I0
g129
tp1047
a(I1
g94
tp1048
a(I2
g96
tp1049
a(I3
g94
tp1050
a(I0
g129
tp1051
a(I1
g99
tp1052
a(I2
g129
tp1053
a(I3
g129
tp1054
a(I0
g94
tp1055
a(I1
g99
tp1056
a(I2
g94
tp1057
a(I3
g96
tp1058
a(I0
g99
tp1059
a(I1
g96
tp1060
a(I2
g99
tp1061
a(I3
g96
tp1062
a(I0
g129
tp1063
a(I1
g129
tp1064
a(I2
g96
tp1065
a(I3
g96
tp1066
a(I0
g113
tp1067
a(I1
g129
tp1068
a(I2
g129
tp1069
a(I3
g96
tp1070
a(I0
g96
tp1071
a(I1
g94
tp1072
a(I2
g94
tp1073
a(I3
g96
tp1074
a(I0
g94
tp1075
a(I1
g99
tp1076
a(I2
g94
tp1077
a(I3
g99
tp1078
a(I0
g94
tp1079
a(I1
g94
tp1080
a(I2
g99
tp1081
a(I3
g96
tp1082
a(I0
g113
tp1083
a(I1
g94
tp1084
a(I2
g96
tp1085
a(I3
g129
tp1086
a(I0
g99
tp1087
a(I1
g94
tp1088
a(I2
g96
tp1089
a(I3
g94
tp1090
a(I0
g94
tp1091
a(I1
g129
tp1092
a(I2
g129
tp1093
a(I3
g94
tp1094
a(I0
g96
tp1095
a(I1
g94
tp1096
a(I2
g94
tp1097
a(I3
g94
tp1098
a(I0
g99
tp1099
a(I1
g129
tp1100
a(I2
g99
tp1101
a(I3
g94
tp1102
a(I0
g129
tp1103
a(I1
g129
tp1104
a(I2
g96
tp1105
a(I3
g94
tp1106
a(I0
g99
tp1107
a(I1
g129
tp1108
a(I2
g129
tp1109
a(I3
g94
tp1110
a(I0
g96
tp1111
a(I1
g129
tp1112
a(I2
g94
tp1113
a(I3
g99
tp1114
a(I0
g94
tp1115
a(I1
g129
tp1116
a(I2
g94
tp1117
a(I3
g99
tp1118
a(I0
g113
tp1119
a(I1
g96
tp1120
a(I2
g94
tp1121
a(I3
g99
tp1122
a(I0
g113
tp1123
a(I1
g99
tp1124
a(I2
g99
tp1125
a(I3
g94
tp1126
a(I0
g94
tp1127
a(I1
g94
tp1128
a(I2
g96
tp1129
a(I3
g94
tp1130
a(I0
g99
tp1131
a(I1
g129
tp1132
a(I2
g96
tp1133
a(I3
g99
tp1134
a(I0
g94
tp1135
a(I1
g94
tp1136
a(I2
g96
tp1137
a(I3
g99
tp1138
a(I0
g129
tp1139
a(I1
g129
tp1140
a(I2
g129
tp1141
a(I3
g99
tp1142
a(I0
g99
tp1143
a(I1
g129
tp1144
a(I2
g94
tp1145
a(I3
g96
tp1146
a(I0
g94
tp1147
a(I1
g94
tp1148
a(I2
g94
tp1149
a(I3
g96
tp1150
a(I0
g129
tp1151
a(I1
g94
tp1152
a(I2
g94
tp1153
a(I3
g129
tp1154
a(I0
g99
tp1155
a(I1
g99
tp1156
a(I2
g94
tp1157
a(I3
g94
tp1158
a(I0
g113
tp1159
a(I1
g96
tp1160
a(I2
g99
tp1161
a(I3
g94
tp1162
a(I0
g96
tp1163
a(I1
g96
tp1164
a(I2
g96
tp1165
a(I3
g99
tp1166
a(I0
g94
tp1167
a(I1
g129
tp1168
a(I2
g129
tp1169
a(I3
g94
tp1170
a(I0
g113
tp1171
a(I1
g94
tp1172
a(I2
g96
tp1173
a(I3
g94
tp1174
a(I0
g113
tp1175
a(I1
g94
tp1176
a(I2
g96
tp1177
a(I3
g94
tp1178
a(I0
g129
tp1179
a(I1
g94
tp1180
a(I2
g96
tp1181
a(I3
g99
tp1182
a(I0
g113
tp1183
a(I1
g99
tp1184
a(I2
g99
tp1185
a(I3
g96
tp1186
a(I0
g113
tp1187
a(I1
g96
tp1188
a(I2
g99
tp1189
a(I3
g129
tp1190
a(I0
g113
tp1191
a(I1
g96
tp1192
a(I2
g96
tp1193
a(I3
g96
tp1194
a(I0
g99
tp1195
a(I1
g129
tp1196
a(I2
g96
tp1197
a(I3
g96
tp1198
a(I0
g96
tp1199
a(I1
g96
tp1200
a(I2
g99
tp1201
a(I3
g129
tp1202
a(I0
g129
tp1203
a(I1
g99
tp1204
a(I2
g94
tp1205
a(I3
g129
tp1206
a(I0
g94
tp1207
a(I1
g99
tp1208
a(I2
g129
tp1209
a(I3
g129
tp1210
a(I0
g113
tp1211
a(I1
g96
tp1212
a(I2
g96
tp1213
a(I3
g129
tp1214
a(I0
g113
tp1215
a(I1
g96
tp1216
a(I2
g99
tp1217
a(I3
g96
tp1218
a(I0
g96
tp1219
a(I1
g96
tp1220
a(I2
g94
tp1221
a(I3
g99
tp1222
a(I0
g113
tp1223
a(I1
g99
tp1224
a(I2
g99
tp1225
a(I3
g99
tp1226
a(I0
g96
tp1227
a(I1
g96
tp1228
a(I2
g94
tp1229
a(I3
g94
tp1230
a(I0
g96
tp1231
a(I1
g96
tp1232
a(I2
g129
tp1233
a(I3
g99
tp1234
a(I0
g94
tp1235
a(I1
g129
tp1236
a(I2
g96
tp1237
a(I3
g99
tp1238
a(I0
g113
tp1239
a(I1
g96
tp1240
a(I2
g129
tp1241
a(I3
g96
tp1242
a(I0
g113
tp1243
a(I1
g99
tp1244
a(I2
g94
tp1245
a(I3
g96
tp1246
a(I0
g113
tp1247
a(I1
g96
tp1248
a(I2
g94
tp1249
a(I3
g99
tp1250
a(I0
g96
tp1251
a(I1
g96
tp1252
a(I2
g129
tp1253
a(I3
g99
tp1254
a(I0
g96
tp1255
a(I1
g96
tp1256
a(I2
g96
tp1257
a(I3
g96
tp1258
a(I0
g129
tp1259
a(I1
g99
tp1260
a(I2
g129
tp1261
a(I3
g96
tp1262
a(I0
g129
tp1263
a(I1
g94
tp1264
a(I2
g94
tp1265
a(I3
g96
tp1266
a(I0
g96
tp1267
a(I1
g129
tp1268
a(I2
g99
tp1269
a(I3
g96
tp1270
a(I0
g129
tp1271
a(I1
g94
tp1272
a(I2
g96
tp1273
a(I3
g96
tp1274
a(I0
g113
tp1275
a(I1
g94
tp1276
a(I2
g99
tp1277
a(I3
g96
tp1278
a(I0
g113
tp1279
a(I1
g129
tp1280
a(I2
g96
tp1281
a(I3
g129
tp1282
a(I0
g94
tp1283
a(I1
g94
tp1284
a(I2
g99
tp1285
a(I3
g94
tp1286
a(I0
g129
tp1287
a(I1
g99
tp1288
a(I2
g96
tp1289
a(I3
g94
tp1290
a(I0
g113
tp1291
a(I1
g94
tp1292
a(I2
g129
tp1293
a(I3
g94
tp1294
a(I0
g113
tp1295
a(I1
g94
tp1296
a(I2
g94
tp1297
a(I3
g99
tp1298
a(I0
g99
tp1299
a(I1
g94
tp1300
a(I2
g94
tp1301
a(I3
g94
tp1302
a(I0
g99
tp1303
a(I1
g99
tp1304
a(I2
g129
tp1305
a(I3
g94
tp1306
a(I0
g113
tp1307
a(I1
g99
tp1308
a(I2
g129
tp1309
a(I3
g94
tp1310
a(I0
g113
tp1311
a(I1
g94
tp1312
a(I2
g94
tp1313
a(I3
g129
tp1314
a(I0
g94
tp1315
a(I1
g99
tp1316
a(I2
g99
tp1317
a(I3
g129
tp1318
a(I0
g96
tp1319
a(I1
g94
tp1320
a(I2
g96
tp1321
a(I3
g94
tp1322
a(I0
g129
tp1323
a(I1
g129
tp1324
a(I2
g129
tp1325
a(I3
g94
tp1326
a(I0
g129
tp1327
a(I1
g96
tp1328
a(I2
g94
tp1329
a(I3
g129
tp1330
a(I0
g129
tp1331
a(I1
g99
tp1332
a(I2
g99
tp1333
a(I3
g129
tp1334
a(I0
g129
tp1335
a(I1
g99
tp1336
a(I2
g96
tp1337
a(I3
g129
tp1338
a(I0
g99
tp1339
a(I1
g96
tp1340
a(I2
g129
tp1341
a(I3
g129
tp1342
a(I0
g99
tp1343
a(I1
g129
tp1344
a(I2
g94
tp1345
a(I3
g96
tp1346
a(I0
g99
tp1347
a(I1
g129
tp1348
a(I2
g99
tp1349
a(I3
g99
tp1350
a(I0
g96
tp1351
a(I1
g96
tp1352
a(I2
g96
tp1353
a(I3
g96
tp1354
a(I0
g99
tp1355
a(I1
g96
tp1356
a(I2
g129
tp1357
a(I3
g96
tp1358
a(I0
g99
tp1359
a(I1
g96
tp1360
a(I2
g94
tp1361
a(I3
g129
tp1362
a(I0
g99
tp1363
a(I1
g129
tp1364
a(I2
g99
tp1365
a(I3
g129
tp1366
a(I0
g129
tp1367
a(I1
g129
tp1368
a(I2
g96
tp1369
a(I3
g129
tp1370
a(I0
g99
tp1371
a(I1
g129
tp1372
a(I2
g129
tp1373
a(I3
g96
tp1374
a(I0
g129
tp1375
a(I1
g94
tp1376
a(I2
g94
tp1377
a(I3
g96
tp1378
a(I0
g99
tp1379
a(I1
g129
tp1380
a(I2
g99
tp1381
a(I3
g96
tp1382
a(I0
g94
tp1383
a(I1
g129
tp1384
a(I2
g96
tp1385
a(I3
g96
tp1386
a(I0
g96
tp1387
a(I1
g94
tp1388
a(I2
g129
tp1389
a(I3
g96
tp1390
a(I0
g96
tp1391
a(I1
g94
tp1392
a(I2
g94
tp1393
a(I3
g96
tp1394
a(I0
g129
tp1395
a(I1
g96
tp1396
a(I2
g94
tp1397
a(I3
g99
tp1398
a(I0
g113
tp1399
a(I1
g96
tp1400
a(I2
g94
tp1401
a(I3
g94
tp1402
a(I0
g94
tp1403
a(I1
g96
tp1404
a(I2
g94
tp1405
a(I3
g94
tp1406
a(I0
g96
tp1407
a(I1
g96
tp1408
a(I2
g99
tp1409
a(I3
g129
tp1410
a(I0
g99
tp1411
a(I1
g96
tp1412
a(I2
g96
tp1413
a(I3
g96
tp1414
a(I0
g99
tp1415
a(I1
g96
tp1416
a(I2
g129
tp1417
a(I3
g99
tp1418
a(I0
g94
tp1419
a(I1
g99
tp1420
a(I2
g96
tp1421
a(I3
g94
tp1422
a(I0
g94
tp1423
a(I1
g96
tp1424
a(I2
g96
tp1425
a(I3
g129
tp1426
a(I0
g94
tp1427
a(I1
g96
tp1428
a(I2
g96
tp1429
a(I3
g96
tp1430
a(I0
g94
tp1431
a(I1
g129
tp1432
a(I2
g99
tp1433
a(I3
g99
tp1434
a(I0
g129
tp1435
a(I1
g94
tp1436
a(I2
g94
tp1437
a(I3
g94
tp1438
a(I0
g94
tp1439
a(I1
g94
tp1440
a(I2
g129
tp1441
a(I3
g129
tp1442
a(I0
g129
tp1443
a(I1
g94
tp1444
a(I2
g96
tp1445
a(I3
g94
tp1446
a(I0
g96
tp1447
a(I1
g94
tp1448
a(I2
g99
tp1449
a(I3
g94
tp1450
a(I0
g113
tp1451
a(I1
g94
tp1452
a(I2
g94
tp1453
a(I3
g94
tp1454
a(I0
g94
tp1455
a(I1
g94
tp1456
a(I2
g129
tp1457
a(I3
g94
tp1458
a(I0
g99
tp1459
a(I1
g94
tp1460
a(I2
g96
tp1461
a(I3
g99
tp1462
a(I0
g94
tp1463
a(I1
g94
tp1464
a(I2
g99
tp1465
a(I3
g94
tp1466
a(I0
g96
tp1467
a(I1
g96
tp1468
a(I2
g94
tp1469
a(I3
g129
tp1470
a(I0
g94
tp1471
a(I1
g99
tp1472
a(I2
g99
tp1473
a(I3
g94
tp1474
a(I0
g99
tp1475
a(I1
g99
tp1476
a(I2
g96
tp1477
a(I3
g96
tp1478
a(I0
g96
tp1479
a(I1
g94
tp1480
a(I2
g96
tp1481
a(I3
g96
tp1482
a(I0
g129
tp1483
a(I1
g94
tp1484
a(I2
g96
tp1485
a(I3
g96
tp1486
a(I0
g94
tp1487
a(I1
g99
tp1488
a(I2
g99
tp1489
a(I3
g96
tp1490
a(I0
g96
tp1491
a(I1
g94
tp1492
a(I2
g94
tp1493
a(I3
g96
tp1494
a(I0
g96
tp1495
a(I1
g129
tp1496
a(I2
g129
tp1497
a(I3
g96
tp1498
a(I0
g94
tp1499
a(I1
g96
tp1500
a(I2
g96
tp1501
a(I3
g96
tp1502
a(I0
g99
tp1503
a(I1
g99
tp1504
a(I2
g99
tp1505
a(I3
g99
tp1506
a(I0
g94
tp1507
a(I1
g99
tp1508
a(I2
g94
tp1509
a(I3
g94
tp1510
a(I0
g96
tp1511
a(I1
g99
tp1512
a(I2
g129
tp1513
a(I3
g129
tp1514
a(I0
g113
tp1515
a(I1
g99
tp1516
a(I2
g96
tp1517
a(I3
g94
tp1518
a(I0
g129
tp1519
a(I1
g96
tp1520
a(I2
g96
tp1521
a(I3
g94
tp1522
a(I0
g94
tp1523
a(I1
g96
tp1524
a(I2
g129
tp1525
a(I3
g94
tp1526
a(I0
g96
tp1527
a(I1
g129
tp1528
a(I2
g129
tp1529
a(I3
g94
tp1530
a(I0
g113
tp1531
a(I1
g94
tp1532
a(I2
g94
tp1533
a(I3
g94
tp1534
a(I0
g99
tp1535
a(I1
g94
tp1536
a(I2
g96
tp1537
a(I3
g94
tp1538
a(I0
g94
tp1539
a(I1
g99
tp1540
a(I2
g99
tp1541
a(I3
g96
tp1542
a(I0
g129
tp1543
a(I1
g99
tp1544
a(I2
g99
tp1545
a(I3
g96
tp1546
a(I0
g99
tp1547
a(I1
g96
tp1548
a(I2
g94
tp1549
a(I3
g96
tp1550
a(I0
g129
tp1551
a(I1
g99
tp1552
a(I2
g94
tp1553
a(I3
g96
tp1554
a(I0
g96
tp1555
a(I1
g96
tp1556
a(I2
g99
tp1557
a(I3
g96
tp1558
a(I0
g129
tp1559
a(I1
g96
tp1560
a(I2
g99
tp1561
a(I3
g96
tp1562
a(I0
g99
tp1563
a(I1
g96
tp1564
a(I2
g94
tp1565
a(I3
g99
tp1566
a(I0
g129
tp1567
a(I1
g96
tp1568
a(I2
g129
tp1569
a(I3
g96
tp1570
a(I0
g96
tp1571
a(I1
g96
tp1572
a(I2
g129
tp1573
a(I3
g129
tp1574
a(I0
g99
tp1575
a(I1
g96
tp1576
a(I2
g96
tp1577
a(I3
g94
tp1578
a(I0
g94
tp1579
a(I1
g96
tp1580
a(I2
g99
tp1581
a(I3
g99
tp1582
a(I0
g113
tp1583
a(I1
g96
tp1584
a(I2
g99
tp1585
a(I3
g96
tp1586
a(I0
g94
tp1587
a(I1
g129
tp1588
a(I2
g99
tp1589
a(I3
g96
tp1590
a(I0
g113
tp1591
a(I1
g94
tp1592
a(I2
g99
tp1593
a(I3
g129
tp1594
a(I0
g113
tp1595
a(I1
g94
tp1596
a(I2
g94
tp1597
a(I3
g94
tp1598
a(I0
g96
tp1599
a(I1
g99
tp1600
a(I2
g129
tp1601
a(I3
g94
tp1602
a(I0
g99
tp1603
a(I1
g94
tp1604
a(I2
g96
tp1605
a(I3
g94
tp1606
a(I0
g129
tp1607
a(I1
g94
tp1608
a(I2
g129
tp1609
a(I3
g94
tp1610
a(I0
g94
tp1611
a(I1
g94
tp1612
a(I2
g129
tp1613
a(I3
g94
tp1614
a(I0
g96
tp1615
a(I1
g94
tp1616
a(I2
g129
tp1617
a(I3
g94
tp1618
a(I0
g94
tp1619
a(I1
g94
tp1620
a(I2
g96
tp1621
a(I3
g94
tp1622
a(I0
g96
tp1623
a(I1
g129
tp1624
a(I2
g96
tp1625
a(I3
g94
tp1626
a(I0
g99
tp1627
a(I1
g129
tp1628
a(I2
g129
tp1629
a(I3
g96
tp1630
a(I0
g96
tp1631
a(I1
g94
tp1632
a(I2
g129
tp1633
a(I3
g99
tp1634
a(I0
g113
tp1635
a(I1
g94
tp1636
a(I2
g94
tp1637
a(I3
g96
tp1638
a(I0
g113
tp1639
a(I1
g94
tp1640
a(I2
g96
tp1641
a(I3
g129
tp1642
a(I0
g96
tp1643
a(I1
g99
tp1644
a(I2
g99
tp1645
a(I3
g94
tp1646
a(I0
g94
tp1647
a(I1
g96
tp1648
a(I2
g99
tp1649
a(I3
g94
tp1650
a(I0
g129
tp1651
a(I1
g129
tp1652
a(I2
g94
tp1653
a(I3
g96
tp1654
a(I0
g129
tp1655
a(I1
g129
tp1656
a(I2
g94
tp1657
a(I3
g96
tp1658
a(I0
g94
tp1659
a(I1
g129
tp1660
a(I2
g94
tp1661
a(I3
g96
tp1662
a(I0
g99
tp1663
a(I1
g129
tp1664
a(I2
g129
tp1665
a(I3
g96
tp1666
a(I0
g96
tp1667
a(I1
g129
tp1668
a(I2
g129
tp1669
a(I3
g96
tp1670
a(I0
g94
tp1671
a(I1
g94
tp1672
a(I2
g94
tp1673
a(I3
g96
tp1674
a(I0
g94
tp1675
a(I1
g129
tp1676
a(I2
g94
tp1677
a(I3
g99
tp1678
a(I0
g113
tp1679
a(I1
g129
tp1680
a(I2
g99
tp1681
a(I3
g96
tp1682
a(I0
g113
tp1683
a(I1
g94
tp1684
a(I2
g94
tp1685
a(I3
g129
tp1686
a(I0
g96
tp1687
a(I1
g99
tp1688
a(I2
g129
tp1689
a(I3
g94
tp1690
a(I0
g96
tp1691
a(I1
g96
tp1692
a(I2
g96
tp1693
a(I3
g94
tp1694
a(I0
g94
tp1695
a(I1
g129
tp1696
a(I2
g96
tp1697
a(I3
g94
tp1698
a(I0
g99
tp1699
a(I1
g94
tp1700
a(I2
g96
tp1701
a(I3
g94
tp1702
a(I0
g113
tp1703
a(I1
g94
tp1704
a(I2
g99
tp1705
a(I3
g94
tp1706
a(I0
g129
tp1707
a(I1
g94
tp1708
a(I2
g99
tp1709
a(I3
g94
tp1710
a(I0
g94
tp1711
a(I1
g99
tp1712
a(I2
g96
tp1713
a(I3
g94
tp1714
a(I0
g99
tp1715
a(I1
g96
tp1716
a(I2
g96
tp1717
a(I3
g96
tp1718
a(I0
g96
tp1719
a(I1
g96
tp1720
a(I2
g99
tp1721
a(I3
g96
tp1722
a(I0
g113
tp1723
a(I1
g99
tp1724
a(I2
g96
tp1725
a(I3
g96
tp1726
a(I0
g96
tp1727
a(I1
g96
tp1728
a(I2
g129
tp1729
a(I3
g96
tp1730
a(I0
g113
tp1731
a(I1
g96
tp1732
a(I2
g96
tp1733
a(I3
g96
tp1734
a(I0
g129
tp1735
a(I1
g96
tp1736
a(I2
g129
tp1737
a(I3
g96
tp1738
a(I0
g113
tp1739
a(I1
g99
tp1740
a(I2
g94
tp1741
a(I3
g96
tp1742
a(I0
g129
tp1743
a(I1
g99
tp1744
a(I2
g99
tp1745
a(I3
g99
tp1746
a(I0
g113
tp1747
a(I1
g99
tp1748
a(I2
g94
tp1749
a(I3
g94
tp1750
a(I0
g113
tp1751
a(I1
g99
tp1752
a(I2
g94
tp1753
a(I3
g129
tp1754
a(I0
g99
tp1755
a(I1
g99
tp1756
a(I2
g99
tp1757
a(I3
g94
tp1758
a(I0
g129
tp1759
a(I1
g96
tp1760
a(I2
g94
tp1761
a(I3
g94
tp1762
a(I0
g99
tp1763
a(I1
g99
tp1764
a(I2
g129
tp1765
a(I3
g94
tp1766
a(I0
g96
tp1767
a(I1
g96
tp1768
a(I2
g96
tp1769
a(I3
g94
tp1770
a(I0
g129
tp1771
a(I1
g96
tp1772
a(I2
g96
tp1773
a(I3
g99
tp1774
a(I0
g129
tp1775
a(I1
g96
tp1776
a(I2
g96
tp1777
a(I3
g94
tp1778
a(I0
g94
tp1779
a(I1
g96
tp1780
a(I2
g129
tp1781
a(I3
g129
tp1782
a(I0
g96
tp1783
a(I1
g96
tp1784
a(I2
g129
tp1785
a(I3
g96
tp1786
a(I0
g94
tp1787
a(I1
g96
tp1788
a(I2
g94
tp1789
a(I3
g96
tp1790
a(I0
g96
tp1791
a(I1
g129
tp1792
a(I2
g96
tp1793
a(I3
g96
tp1794
a(I0
g113
tp1795
a(I1
g94
tp1796
a(I2
g96
tp1797
a(I3
g96
tp1798
a(I0
g99
tp1799
a(I1
g94
tp1800
a(I2
g99
tp1801
a(I3
g96
tp1802
a(I0
g94
tp1803
a(I1
g94
tp1804
a(I2
g94
tp1805
a(I3
g99
tp1806
a(I0
g113
tp1807
a(I1
g94
tp1808
a(I2
g129
tp1809
a(I3
g96
tp1810
a(I0
g96
tp1811
a(I1
g99
tp1812
a(I2
g94
tp1813
a(I3
g129
tp1814
a(I0
g129
tp1815
a(I1
g99
tp1816
a(I2
g96
tp1817
a(I3
g94
tp1818
a(I0
g96
tp1819
a(I1
g96
tp1820
a(I2
g99
tp1821
a(I3
g94
tp1822
a(I0
g99
tp1823
a(I1
g129
tp1824
a(I2
g96
tp1825
a(I3
g94
tp1826
a(I0
g94
tp1827
a(I1
g94
tp1828
a(I2
g99
tp1829
a(I3
g94
tp1830
a(I0
g94
tp1831
a(I1
g94
tp1832
a(I2
g94
tp1833
a(I3
g94
tp1834
a(I0
g96
tp1835
a(I1
g94
tp1836
a(I2
g94
tp1837
a(I3
g99
tp1838
a(I0
g113
tp1839
a(I1
g129
tp1840
a(I2
g94
tp1841
a(I3
g94
tp1842
a(I0
g113
tp1843
a(I1
g94
tp1844
a(I2
g99
tp1845
a(I3
g129
tp1846
a(I0
g94
tp1847
a(I1
g129
tp1848
a(I2
g96
tp1849
a(I3
g94
tp1850
a(I0
g113
tp1851
a(I1
g94
tp1852
a(I2
g129
tp1853
a(I3
g96
tp1854
a(I0
g94
tp1855
a(I1
g129
tp1856
a(I2
g94
tp1857
a(I3
g96
tp1858
a(I0
g99
tp1859
a(I1
g129
tp1860
a(I2
g99
tp1861
a(I3
g96
tp1862
a(I0
g99
tp1863
a(I1
g129
tp1864
a(I2
g96
tp1865
a(I3
g96
tp1866
a(I0
g113
tp1867
a(I1
g129
tp1868
a(I2
g129
tp1869
a(I3
g96
tp1870
a(I0
g96
tp1871
a(I1
g94
tp1872
a(I2
g94
tp1873
a(I3
g96
tp1874
a(I0
g94
tp1875
a(I1
g129
tp1876
a(I2
g94
tp1877
a(I3
g99
tp1878
a(I0
g96
tp1879
a(I1
g129
tp1880
a(I2
g129
tp1881
a(I3
g96
tp1882
a(I0
g129
tp1883
a(I1
g94
tp1884
a(I2
g129
tp1885
a(I3
g96
tp1886
a(I0
g113
tp1887
a(I1
g99
tp1888
a(I2
g94
tp1889
a(I3
g129
tp1890
a(I0
g94
tp1891
a(I1
g96
tp1892
a(I2
g99
tp1893
a(I3
g94
tp1894
a(I0
g99
tp1895
a(I1
g129
tp1896
a(I2
g96
tp1897
a(I3
g99
tp1898
a(I0
g96
tp1899
a(I1
g94
tp1900
a(I2
g129
tp1901
a(I3
g94
tp1902
a(I0
g129
tp1903
a(I1
g94
tp1904
a(I2
g94
tp1905
a(I3
g129
tp1906
a(I0
g99
tp1907
a(I1
g94
tp1908
a(I2
g99
tp1909
a(I3
g94
tp1910
a(I0
g96
tp1911
a(I1
g99
tp1912
a(I2
g96
tp1913
a(I3
g94
tp1914
a(I0
g113
tp1915
a(I1
g96
tp1916
a(I2
g129
tp1917
a(I3
g94
tp1918
a(I0
g94
tp1919
a(I1
g129
tp1920
a(I2
g94
tp1921
a(I3
g94
tp1922
a(I0
g113
tp1923
a(I1
g94
tp1924
a(I2
g99
tp1925
a(I3
g94
tp1926
a(I0
g113
tp1927
a(I1
g99
tp1928
a(I2
g94
tp1929
a(I3
g94
tp1930
a(I0
g96
tp1931
a(I1
g96
tp1932
a(I2
g129
tp1933
a(I3
g96
tp1934
a(I0
g113
tp1935
a(I1
g96
tp1936
a(I2
g96
tp1937
a(I3
g99
tp1938
a(I0
g129
tp1939
a(I1
g96
tp1940
a(I2
g96
tp1941
a(I3
g96
tp1942
a(I0
g96
tp1943
a(I1
g129
tp1944
a(I2
g99
tp1945
a(I3
g129
tp1946
a(I0
g96
tp1947
a(I1
g94
tp1948
a(I2
g99
tp1949
a(I3
g94
tp1950
a(I0
g96
tp1951
a(I1
g99
tp1952
a(I2
g96
tp1953
a(I3
g94
tp1954
a(I0
g113
tp1955
a(I1
g96
tp1956
a(I2
g99
tp1957
a(I3
g96
tp1958
a(I0
g94
tp1959
a(I1
g99
tp1960
a(I2
g96
tp1961
a(I3
g99
tp1962
a(I0
g129
tp1963
a(I1
g96
tp1964
a(I2
g96
tp1965
a(I3
g96
tp1966
a(I0
g113
tp1967
a(I1
g96
tp1968
a(I2
g129
tp1969
a(I3
g129
tp1970
a(I0
g96
tp1971
a(I1
g99
tp1972
a(I2
g94
tp1973
a(I3
g94
tp1974
a(I0
g129
tp1975
a(I1
g96
tp1976
a(I2
g94
tp1977
a(I3
g94
tp1978
a(I0
g129
tp1979
a(I1
g96
tp1980
a(I2
g99
tp1981
a(I3
g96
tp1982
a(I0
g96
tp1983
a(I1
g96
tp1984
a(I2
g94
tp1985
a(I3
g96
tp1986
a(I0
g99
tp1987
a(I1
g96
tp1988
a(I2
g129
tp1989
a(I3
g99
tp1990
a(I0
g99
tp1991
a(I1
g99
tp1992
a(I2
g96
tp1993
a(I3
g94
tp1994
a(I0
g99
tp1995
a(I1
g99
tp1996
a(I2
g99
tp1997
a(I3
g129
tp1998
a(I0
g129
tp1999
a(I1
g96
tp2000
a(I2
g94
tp2001
a(I3
g94
tp2002
a(I0
g99
tp2003
a(I1
g96
tp2004
a(I2
g129
tp2005
a(I3
g96
tp2006
a(I0
g113
tp2007
a(I1
g96
tp2008
a(I2
g129
tp2009
a(I3
g99
tp2010
a(I0
g113
tp2011
a(I1
g129
tp2012
a(I2
g129
tp2013
a(I3
g99
tp2014
a(I0
g99
tp2015
a(I1
g96
tp2016
a(I2
g94
tp2017
a(I3
g99
tp2018
a(I0
g96
tp2019
a(I1
g99
tp2020
a(I2
g99
tp2021
a(I3
g94
tp2022
a(I0
g96
tp2023
a(I1
g94
tp2024
a(I2
g96
tp2025
a(I3
g129
tp2026
a(I0
g94
tp2027
a(I1
g94
tp2028
a(I2
g129
tp2029
a(I3
g94
tp2030
a(I0
g113
tp2031
a(I1
g94
tp2032
a(I2
g94
tp2033
a(I3
g94
tp2034
a(I0
g96
tp2035
a(I1
g94
tp2036
a(I2
g99
tp2037
a(I3
g129
tp2038
a(I0
g94
tp2039
a(I1
g129
tp2040
a(I2
g96
tp2041
a(I3
g129
tp2042
a(I0
g96
tp2043
a(I1
g96
tp2044
a(I2
g129
tp2045
a(I3
g94
tp2046
a(I0
g96
tp2047
a(I1
g99
tp2048
a(I2
g94
tp2049
a(I3
g99
tp2050
a(I0
g113
tp2051
a(I1
g96
tp2052
a(I2
g99
tp2053
a(I3
g96
tp2054
a(I0
g113
tp2055
a(I1
g129
tp2056
a(I2
g96
tp2057
a(I3
g129
tp2058
a(I0
g113
tp2059
a(I1
g94
tp2060
a(I2
g99
tp2061
a(I3
g94
tp2062
a(I0
g96
tp2063
a(I1
g129
tp2064
a(I2
g96
tp2065
a(I3
g99
tp2066
a(I0
g96
tp2067
a(I1
g94
tp2068
a(I2
g99
tp2069
a(I3
g99
tp2070
a(I0
g129
tp2071
a(I1
g94
tp2072
a(I2
g99
tp2073
a(I3
g96
tp2074
a(I0
g113
tp2075
a(I1
g129
tp2076
a(I2
g96
tp2077
a(I3
g96
tp2078
a(I0
g113
tp2079
a(I1
g94
tp2080
a(I2
g129
tp2081
a(I3
g99
tp2082
a(I0
g96
tp2083
a(I1
g129
tp2084
a(I2
g94
tp2085
a(I3
g96
tp2086
a(I0
g94
tp2087
a(I1
g94
tp2088
a(I2
g129
tp2089
a(I3
g99
tp2090
a(I0
g129
tp2091
a(I1
g129
tp2092
a(I2
g94
tp2093
a(I3
g94
tp2094
a(I0
g129
tp2095
a(I1
g94
tp2096
a(I2
g129
tp2097
a(I3
g129
tp2098
a(I0
g96
tp2099
a(I1
g96
tp2100
a(I2
g129
tp2101
a(I3
g94
tp2102
a(I0
g94
tp2103
a(I1
g99
tp2104
a(I2
g94
tp2105
a(I3
g129
tp2106
a(I0
g129
tp2107
a(I1
g99
tp2108
a(I2
g99
tp2109
a(I3
g96
tp2110
a(I0
g99
tp2111
a(I1
g99
tp2112
a(I2
g96
tp2113
a(I3
g99
tp2114
a(I0
g96
tp2115
a(I1
g94
tp2116
a(I2
g129
tp2117
a(I3
g96
tp2118
a(I0
g96
tp2119
a(I1
g94
tp2120
a(I2
g94
tp2121
a(I3
g129
tp2122
a(I0
g113
tp2123
a(I1
g129
tp2124
a(I2
g94
tp2125
a(I3
g96
tp2126
a(I0
g113
tp2127
a(I1
g96
tp2128
a(I2
g99
tp2129
a(I3
g129
tp2130
a(I0
g113
tp2131
a(I1
g96
tp2132
a(I2
g96
tp2133
a(I3
g129
tp2134
a(I0
g99
tp2135
a(I1
g129
tp2136
a(I2
g129
tp2137
a(I3
g96
tp2138
a(I0
g113
tp2139
a(I1
g129
tp2140
a(I2
g96
tp2141
a(I3
g96
tp2142
a(I0
g96
tp2143
a(I1
g94
tp2144
a(I2
g99
tp2145
a(I3
g96
tp2146
a(I0
g99
tp2147
a(I1
g96
tp2148
a(I2
g99
tp2149
a(I3
g96
tp2150
a(I0
g94
tp2151
a(I1
g99
tp2152
a(I2
g96
tp2153
a(I3
g96
tp2154
a(I0
g129
tp2155
a(I1
g96
tp2156
a(I2
g96
tp2157
a(I3
g99
tp2158
a(I0
g94
tp2159
a(I1
g129
tp2160
a(I2
g99
tp2161
a(I3
g96
tp2162
a(I0
g129
tp2163
a(I1
g94
tp2164
a(I2
g94
tp2165
a(I3
g129
tp2166
a(I0
g129
tp2167
a(I1
g94
tp2168
a(I2
g129
tp2169
a(I3
g94
tp2170
a(I0
g99
tp2171
a(I1
g96
tp2172
a(I2
g94
tp2173
a(I3
g94
tp2174
a(I0
g129
tp2175
a(I1
g99
tp2176
a(I2
g129
tp2177
a(I3
g94
tp2178
a(I0
g94
tp2179
a(I1
g99
tp2180
a(I2
g129
tp2181
a(I3
g94
tp2182
a(I0
g113
tp2183
a(I1
g94
tp2184
a(I2
g94
tp2185
a(I3
g94
tp2186
a(I0
g96
tp2187
a(I1
g94
tp2188
a(I2
g99
tp2189
a(I3
g94
tp2190
a(I0
g94
tp2191
a(I1
g99
tp2192
a(I2
g96
tp2193
a(I3
g94
tp2194
a(I0
g94
tp2195
a(I1
g94
tp2196
a(I2
g129
tp2197
a(I3
g96
tp2198
a(I0
g96
tp2199
a(I1
g129
tp2200
a(I2
g94
tp2201
a(I3
g99
tp2202
a(I0
g129
tp2203
a(I1
g129
tp2204
a(I2
g94
tp2205
a(I3
g96
tp2206
a(I0
g129
tp2207
a(I1
g129
tp2208
a(I2
g99
tp2209
a(I3
g129
tp2210
a(I0
g96
tp2211
a(I1
g94
tp2212
a(I2
g96
tp2213
a(I3
g94
tp2214
a(I0
g99
tp2215
a(I1
g99
tp2216
a(I2
g96
tp2217
a(I3
g94
tp2218
a(I0
g99
tp2219
a(I1
g96
tp2220
a(I2
g129
tp2221
a(I3
g96
tp2222
a(I0
g99
tp2223
a(I1
g129
tp2224
a(I2
g94
tp2225
a(I3
g99
tp2226
a(I0
g94
tp2227
a(I1
g94
tp2228
a(I2
g94
tp2229
a(I3
g99
tp2230
a(I0
g129
tp2231
a(I1
g94
tp2232
a(I2
g94
tp2233
a(I3
g94
tp2234
a(I0
g113
tp2235
a(I1
g99
tp2236
a(I2
g94
tp2237
a(I3
g99
tp2238
a(I0
g96
tp2239
a(I1
g96
tp2240
a(I2
g99
tp2241
a(I3
g99
tp2242
a(I0
g113
tp2243
a(I1
g129
tp2244
a(I2
g96
tp2245
a(I3
g99
tp2246
a(I0
g96
tp2247
as.