(dp1
S'layout'
p2
(ilayout
Layout
p3
(dp4
S'numGhosts'
p5
I3
sS'food'
p6
(igame
Grid
p7
(dp8
S'CELLS_PER_INT'
p9
I30
sS'width'
p10
I25
sS'data'
p11
(lp12
(lp13
I00
aI00
aI00
aI00
aI00
aI00
aI00
aI00
aI00
aI00
aI00
aI00
aa(lp14
I00
aI00
aI00
aI00
aI00
aI00
aI00
aI01
aI00
aI01
aI00
aI00
aa(lp15
I00
aI00
aI00
aI00
aI00
aI00
aI01
aI01
aI00
aI01
aI01
aI00
aa(lp16
I00
aI00
aI01
aI01
aI00
aI01
aI00
aI01
aI00
aI01
aI00
aI00
aa(lp17
I00
aI00
aI00
aI01
aI00
aI00
aI00
aI01
aI00
aI00
aI00
aI00
aa(lp18
I00
aI00
aI00
aI00
aI00
aI01
aI00
aI01
aI01
aI00
aI01
aI00
aa(lp19
I00
aI01
aI00
aI01
aI00
aI01
aI00
aI01
aI00
aI00
aI00
aI00
aa(lp20
I00
aI00
aI00
aI00
aI00
aI01
aI00
aI01
aI00
aI01
aI00
aI00
aa(lp21
I00
aI01
aI00
aI01
aI00
aI01
aI00
aI01
aI01
aI01
aI01
aI00
aa(lp22
I00
aI01
aI00
aI01
aI01
aI01
aI00
aI01
aI00
aI00
aI00
aI00
aa(lp23
I00
aI00
aI00
aI00
aI00
aI00
aI00
aI00
aI01
aI00
aI00
aI00
aa(lp24
I00
aI00
aI00
aI00
aI00
aI01
aI00
aI01
aI00
aI00
aI01
aI00
aa(lp25
I00
aI01
aI00
aI00
aI00
aI00
aI00
aI00
aI00
aI00
aI00
aI00
aa(lp26
I00
aI00
aI00
aI01
aI01
aI00
aI01
aI01
aI00
aI00
aI00
aI00
aa(lp27
I00
aI01
aI00
aI01
aI00
aI01
aI01
aI01
aI01
aI00
aI00
aI00
aa(lp28
I00
aI01
aI00
aI01
aI01
aI01
aI01
aI01
aI00
aI00
aI01
aI00
aa(lp29
I00
aI00
aI00
aI01
aI01
aI01
aI01
aI01
aI00
aI00
aI00
aI00
aa(lp30
I00
aI00
aI00
aI01
aI01
aI01
aI00
aI01
aI00
aI01
aI00
aI00
aa(lp31
I00
aI01
aI00
aI01
aI00
aI00
aI00
aI00
aI00
aI00
aI01
aI00
aa(lp32
I00
aI00
aI00
aI00
aI00
aI01
aI00
aI01
aI00
aI01
aI01
aI00
aa(lp33
I00
aI00
aI00
aI01
aI00
aI00
aI00
aI00
aI00
aI00
aI00
aI00
aa(lp34
I00
aI00
aI00
aI00
aI00
aI00
aI00
aI00
aI00
aI00
aI00
aI00
aa(lp35
I00
aI00
aI00
aI00
aI00
aI01
aI00
aI01
aI00
aI00
aI00
aI00
aa(lp36
I00
aI00
aI00
aI00
aI00
aI01
aI00
aI01
aI00
aI00
aI00
aI00
aa(lp37
I00
aI00
aI00
aI00
aI00
aI00
aI00
aI00
aI00
aI00
aI00
aI00
aasS'height'
p38
I12
sbsS'agentPositions'
p39
(lp40
(I01
(I20
I1
tp41
tp42
a(I00
(I21
I10
tp43
tp44
a(I00
(I22
I10
tp45
tp46
a(I00
(I23
I10
tp47
tp48
asg38
I12
sg10
I25
sS'walls'
p49
(igame
Grid
p50
(dp51
g9
I30
sg10
I25
sg11
(lp52
(lp53
I01
aI01
aI01
aI01
aI01
aI01
aI01
aI01
aI01
aI01
aI01
aI01
aa(lp54
I01
aI00
aI00
aI00
aI01
aI00
aI00
aI00
aI01
aI00
aI00
aI01
aa(lp55
I01
aI00
aI00
aI00
aI01
aI00
aI00
aI00
aI01
aI00
aI00
aI01
aa(lp56
I01
aI00
aI00
aI00
aI01
aI00
aI00
aI00
aI01
aI00
aI00
aI01
aa(lp57
I01
aI00
aI00
aI00
aI01
aI00
aI00
aI00
aI01
aI01
aI00
aI01
aa(lp58
I01
aI00
aI00
aI00
aI01
aI00
aI00
aI00
aI00
aI01
aI00
aI01
aa(lp59
I01
aI00
aI00
aI00
aI01
aI00
aI00
aI00
aI00
aI01
aI00
aI01
aa(lp60
I01
aI01
aI00
aI01
aI01
aI00
aI01
aI00
aI00
aI00
aI00
aI01
aa(lp61
I01
aI00
aI00
aI00
aI00
aI00
aI01
aI00
aI00
aI00
aI00
aI01
aa(lp62
I01
aI00
aI00
aI00
aI00
aI00
aI00
aI00
aI00
aI01
aI00
aI01
aa(lp63
I01
aI00
aI00
aI00
aI00
aI00
aI00
aI00
aI00
aI01
aI01
aI01
aa(lp64
I01
aI00
aI00
aI00
aI00
aI00
aI00
aI00
aI00
aI00
aI00
aI01
aa(lp65
I01
aI00
aI00
aI00
aI00
aI00
aI00
aI00
aI00
aI00
aI00
aI01
aa(lp66
I01
aI00
aI00
aI00
aI00
aI01
aI00
aI00
aI00
aI00
aI00
aI01
aa(lp67
I01
aI00
aI01
aI00
aI00
aI00
aI00
aI00
aI00
aI00
aI00
aI01
aa(lp68
I01
aI00
aI01
aI00
aI00
aI00
aI00
aI00
aI00
aI00
aI00
aI01
aa(lp69
I01
aI00
aI00
aI00
aI00
aI00
aI00
aI00
aI01
aI00
aI01
aI01
aa(lp70
I01
aI00
aI00
aI00
aI00
aI00
aI00
aI00
aI01
aI00
aI00
aI01
aa(lp71
I01
aI00
aI00
aI00
aI00
aI00
aI01
aI01
aI01
aI00
aI00
aI01
aa(lp72
I01
aI00
aI00
aI00
aI00
aI00
aI00
aI00
aI00
aI00
aI00
aI01
aa(lp73
I01
aI00
aI00
aI00
aI00
aI00
aI01
aI00
aI00
aI00
aI00
aI01
aa(lp74
I01
aI00
aI00
aI00
aI00
aI00
aI01
aI00
aI00
aI00
aI00
aI01
aa(lp75
I01
aI00
aI00
aI00
aI01
aI00
aI01
aI00
aI00
aI00
aI00
aI01
aa(lp76
I01
aI00
aI00
aI01
aI01
aI00
aI01
aI00
aI00
aI00
aI00
aI01
aa(lp77
I01
aI01
aI01
aI01
aI01
aI01
aI01
aI01
aI01
aI01
aI01
aI01
aasg38
I12
sbsS'layoutText'
p78
(lp79
S'%%%%%%%%%%%%%%%%%%%%%%%%%'
p80
aS'% .  .  . %.   .% .. GGG%'
p81
aS'%...%%%..%%      . .    %'
p82
aS'%%%%%.  . .   . %%%     %'
p83
aS'%......... . .....%.  ..%'
p84
aS'% .    %%    .... % %%%%%'
p85
aS'%  . ..... . %.... .  ..%'
p86
aS'%%%%%%%% .   . ...    %%%'
p87
aS'%  .. .%..   ...... .  %%'
p88
aS'%  .          %%        %'
p89
aS'%     .%..  . ..  . P   %'
p90
aS'%%%%%%%%%%%%%%%%%%%%%%%%%'
p91
asbsS'actions'
p92
(lp93
(I0
S'East'
p94
tp95
a(I1
S'South'
p96
tp97
a(I2
S'West'
p98
tp99
a(I3
g96
tp100
a(I0
g98
tp101
a(I1
g96
tp102
a(I2
g98
tp103
a(I3
g98
tp104
a(I0
g98
tp105
a(I1
g96
tp106
a(I2
g98
tp107
a(I3
g96
tp108
a(I0
g94
tp109
a(I1
g98
tp110
a(I2
g98
tp111
a(I3
g96
tp112
a(I0
g98
tp113
a(I1
g98
tp114
a(I2
g96
tp115
a(I3
g98
tp116
a(I0
S'North'
p117
tp118
a(I1
g96
tp119
a(I2
g94
tp120
a(I3
g98
tp121
a(I0
S'Stop'
p122
tp123
a(I1
g96
tp124
a(I2
g96
tp125
a(I3
g98
tp126
a(I0
g94
tp127
a(I1
g98
tp128
a(I2
g96
tp129
a(I3
g96
tp130
a(I0
g94
tp131
a(I1
g96
tp132
a(I2
g96
tp133
a(I3
g96
tp134
a(I0
g117
tp135
a(I1
g98
tp136
a(I2
g96
tp137
a(I3
g98
tp138
a(I0
g94
tp139
a(I1
g96
tp140
a(I2
g98
tp141
a(I3
g96
tp142
a(I0
g96
tp143
a(I1
g96
tp144
a(I2
g96
tp145
a(I3
g98
tp146
a(I0
g98
tp147
a(I1
g98
tp148
a(I2
g98
tp149
a(I3
g117
tp150
a(I0
g98
tp151
a(I1
g117
tp152
a(I2
g98
tp153
a(I3
g117
tp154
a(I0
g96
tp155
a(I1
g98
tp156
a(I2
g96
tp157
a(I3
g98
tp158
a(I0
g122
tp159
a(I1
g98
tp160
a(I2
g98
tp161
a(I3
g96
tp162
a(I0
g122
tp163
a(I1
g98
tp164
a(I2
g98
tp165
a(I3
g98
tp166
a(I0
g98
tp167
a(I1
g96
tp168
a(I2
g98
tp169
a(I3
g98
tp170
a(I0
g94
tp171
a(I1
g98
tp172
a(I2
g98
tp173
a(I3
g96
tp174
a(I0
g98
tp175
a(I1
g98
tp176
a(I2
g98
tp177
a(I3
g96
tp178
a(I0
g122
tp179
a(I1
g117
tp180
a(I2
g96
tp181
a(I3
g98
tp182
a(I0
g98
tp183
a(I1
g98
tp184
a(I2
g98
tp185
a(I3
g98
tp186
a(I0
g94
tp187
a(I1
g98
tp188
a(I2
g98
tp189
a(I3
g96
tp190
a(I0
g94
tp191
a(I1
g98
tp192
a(I2
g98
tp193
a(I3
g98
tp194
a(I0
g122
tp195
a(I1
g96
tp196
a(I2
g98
tp197
a(I3
g98
tp198
a(I0
g98
tp199
a(I1
g98
tp200
a(I2
g98
tp201
a(I3
g98
tp202
a(I0
g122
tp203
a(I1
g98
tp204
a(I2
g98
tp205
a(I3
g96
tp206
a(I0
g117
tp207
a(I1
g98
tp208
a(I2
g98
tp209
a(I3
g98
tp210
a(I0
g94
tp211
a(I1
g98
tp212
a(I2
g98
tp213
a(I3
g117
tp214
a(I0
g98
tp215
a(I1
g98
tp216
a(I2
g98
tp217
a(I3
g98
tp218
a(I0
g94
tp219
a(I1
g98
tp220
a(I2
g117
tp221
a(I3
g98
tp222
a(I0
g96
tp223
a(I1
g98
tp224
a(I2
g94
tp225
a(I3
g98
tp226
a(I0
g117
tp227
a(I1
g117
tp228
a(I2
g94
tp229
a(I3
g98
tp230
a(I0
g117
tp231
a(I1
g94
tp232
a(I2
g94
tp233
a(I3
g98
tp234
a(I0
g94
tp235
a(I1
g96
tp236
a(I2
g94
tp237
a(I3
g117
tp238
a(I0
g96
tp239
a(I1
g98
tp240
a(I2
g96
tp241
a(I3
g98
tp242
a(I0
g98
tp243
a(I1
g117
tp244
a(I2
g94
tp245
a(I3
g96
tp246
a(I0
g117
tp247
a(I1
g94
tp248
a(I2
g94
tp249
a(I3
g94
tp250
a(I0
g117
tp251
a(I1
g94
tp252
a(I2
g117
tp253
a(I3
g117
tp254
a(I0
g94
tp255
a(I1
g94
tp256
a(I2
g117
tp257
a(I3
g94
tp258
a(I0
g122
tp259
a(I1
g94
tp260
a(I2
g117
tp261
a(I3
g94
tp262
a(I0
g122
tp263
a(I1
g94
tp264
a(I2
g94
tp265
a(I3
g94
tp266
a(I0
g96
tp267
a(I1
g96
tp268
a(I2
g94
tp269
a(I3
g96
tp270
a(I0
g117
tp271
a(I1
g94
tp272
a(I2
g117
tp273
a(I3
g94
tp274
a(I0
g98
tp275
a(I1
g94
tp276
a(I2
g117
tp277
a(I3
g94
tp278
a(I0
g122
tp279
a(I1
g94
tp280
a(I2
g94
tp281
a(I3
g117
tp282
a(I0
g98
tp283
a(I1
g117
tp284
a(I2
g117
tp285
a(I3
g94
tp286
a(I0
g98
tp287
a(I1
g94
tp288
a(I2
g94
tp289
a(I3
g117
tp290
a(I0
g94
tp291
a(I1
g117
tp292
a(I2
g117
tp293
a(I3
g117
tp294
a(I0
g98
tp295
a(I1
g117
tp296
a(I2
g98
tp297
a(I3
g94
tp298
a(I0
g122
tp299
a(I1
g117
tp300
a(I2
g117
tp301
a(I3
g117
tp302
a(I0
g94
tp303
a(I1
g117
tp304
a(I2
g94
tp305
a(I3
g117
tp306
a(I0
g96
tp307
a(I1
g117
tp308
a(I2
g96
tp309
a(I3
g117
tp310
a(I0
g117
tp311
a(I1
g98
tp312
a(I2
g98
tp313
a(I3
g98
tp314
a(I0
g122
tp315
a(I1
g96
tp316
a(I2
g117
tp317
a(I3
g98
tp318
a(I0
g96
tp319
a(I1
g94
tp320
a(I2
g94
tp321
a(I3
g117
tp322
a(I0
g122
tp323
a(I1
g94
tp324
a(I2
g96
tp325
a(I3
g117
tp326
a(I0
g96
tp327
a(I1
g117
tp328
a(I2
g98
tp329
a(I3
g94
tp330
a(I0
g122
tp331
a(I1
g98
tp332
a(I2
g96
tp333
a(I3
g98
tp334
a(I0
g96
tp335
a(I1
g98
tp336
a(I2
g98
tp337
a(I3
g98
tp338
a(I0
g122
tp339
a(I1
g98
tp340
a(I2
g98
tp341
a(I3
g98
tp342
a(I0
g122
tp343
a(I1
g117
tp344
a(I2
g96
tp345
a(I3
g98
tp346
a(I0
g94
tp347
a(I1
g117
tp348
a(I2
g98
tp349
a(I3
g98
tp350
a(I0
g94
tp351
a(I1
g94
tp352
a(I2
g117
tp353
a(I3
g98
tp354
a(I0
g117
tp355
a(I1
g98
tp356
a(I2
g98
tp357
a(I3
g96
tp358
a(I0
g98
tp359
a(I1
g98
tp360
a(I2
g98
tp361
a(I3
g98
tp362
a(I0
g94
tp363
a(I1
g98
tp364
a(I2
g98
tp365
a(I3
g117
tp366
a(I0
g98
tp367
a(I1
g98
tp368
a(I2
g96
tp369
a(I3
g98
tp370
a(I0
g96
tp371
a(I1
g98
tp372
a(I2
g98
tp373
a(I3
g96
tp374
a(I0
g94
tp375
a(I1
g98
tp376
a(I2
g98
tp377
a(I3
g94
tp378
a(I0
g94
tp379
a(I1
g96
tp380
a(I2
g96
tp381
a(I3
g94
tp382
a(I0
g122
tp383
a(I1
g98
tp384
a(I2
g98
tp385
a(I3
g117
tp386
a(I0
g117
tp387
a(I1
g117
tp388
a(I2
g117
tp389
a(I3
g98
tp390
a(I0
g96
tp391
a(I1
g94
tp392
a(I2
g94
tp393
a(I3
g96
tp394
a(I0
g117
tp395
a(I1
g94
tp396
a(I2
g94
tp397
a(I3
g94
tp398
a(I0
g98
tp399
a(I1
g94
tp400
a(I2
g96
tp401
a(I3
g117
tp402
a(I0
g98
tp403
a(I1
g94
tp404
a(I2
g96
tp405
a(I3
g94
tp406
a(I0
g98
tp407
a(I1
g94
tp408
a(I2
g98
tp409
a(I3
g94
tp410
a(I0
g96
tp411
a(I1
g94
tp412
a(I2
g117
tp413
a(I3
g94
tp414
a(I0
g117
tp415
a(I1
g94
tp416
a(I2
g117
tp417
a(I3
g94
tp418
a(I0
g117
tp419
a(I1
g98
tp420
a(I2
g94
tp421
a(I3
g94
tp422
a(I0
g117
tp423
a(I1
g96
tp424
a(I2
g96
tp425
a(I3
g94
tp426
a(I0
g96
tp427
a(I1
g98
tp428
a(I2
g98
tp429
a(I3
g98
tp430
a(I0
g122
tp431
a(I1
g117
tp432
a(I2
g117
tp433
a(I3
g98
tp434
a(I0
g96
tp435
a(I1
g94
tp436
a(I2
g98
tp437
a(I3
g98
tp438
a(I0
g117
tp439
a(I1
g94
tp440
a(I2
g96
tp441
a(I3
g98
tp442
a(I0
g94
tp443
a(I1
g98
tp444
a(I2
g94
tp445
a(I3
g98
tp446
a(I0
g94
tp447
a(I1
g98
tp448
a(I2
g117
tp449
a(I3
g98
tp450
a(I0
g122
tp451
a(I1
g98
tp452
a(I2
g94
tp453
a(I3
g96
tp454
a(I0
g117
tp455
a(I1
g98
tp456
a(I2
g96
tp457
a(I3
g98
tp458
a(I0
g117
tp459
a(I1
g98
tp460
a(I2
g98
tp461
a(I3
g117
tp462
a(I0
g98
tp463
a(I1
g98
tp464
a(I2
g117
tp465
a(I3
g94
tp466
a(I0
g96
tp467
a(I1
g98
tp468
a(I2
g98
tp469
a(I3
g94
tp470
a(I0
g98
tp471
a(I1
g98
tp472
a(I2
g98
tp473
a(I3
g94
tp474
a(I0
g94
tp475
a(I1
g96
tp476
a(I2
g96
tp477
a(I3
g94
tp478
a(I0
g94
tp479
a(I1
g94
tp480
a(I2
g94
tp481
a(I3
g94
tp482
a(I0
g117
tp483
a(I1
g117
tp484
a(I2
g94
tp485
a(I3
g94
tp486
a(I0
g94
tp487
a(I1
g94
tp488
a(I2
g117
tp489
a(I3
g94
tp490
a(I0
g98
tp491
a(I1
g94
tp492
a(I2
g98
tp493
a(I3
g98
tp494
a(I0
g122
tp495
a(I1
g94
tp496
a(I2
g96
tp497
a(I3
g98
tp498
a(I0
g122
tp499
a(I1
g94
tp500
a(I2
g94
tp501
a(I3
g96
tp502
a(I0
g98
tp503
a(I1
g94
tp504
a(I2
g117
tp505
a(I3
g94
tp506
a(I0
g122
tp507
a(I1
g96
tp508
a(I2
g98
tp509
a(I3
g117
tp510
a(I0
g98
tp511
a(I1
g94
tp512
a(I2
g96
tp513
a(I3
g94
tp514
a(I0
g94
tp515
a(I1
g117
tp516
a(I2
g94
tp517
a(I3
g98
tp518
a(I0
g122
tp519
a(I1
g94
tp520
a(I2
g117
tp521
a(I3
g96
tp522
a(I0
g122
tp523
a(I1
g98
tp524
a(I2
g94
tp525
a(I3
g96
tp526
a(I0
g122
tp527
a(I1
g96
tp528
a(I2
g94
tp529
a(I3
g94
tp530
a(I0
g96
tp531
a(I1
g96
tp532
a(I2
g117
tp533
a(I3
g94
tp534
a(I0
g122
tp535
a(I1
g94
tp536
a(I2
g94
tp537
a(I3
g94
tp538
a(I0
g96
tp539
a(I1
g94
tp540
a(I2
g94
tp541
a(I3
g117
tp542
a(I0
g122
tp543
a(I1
g94
tp544
a(I2
g117
tp545
a(I3
g117
tp546
a(I0
g96
tp547
a(I1
g117
tp548
a(I2
g94
tp549
a(I3
g94
tp550
a(I0
g96
tp551
a(I1
g117
tp552
a(I2
g117
tp553
a(I3
g94
tp554
a(I0
g94
tp555
a(I1
g94
tp556
a(I2
g98
tp557
a(I3
g94
tp558
a(I0
g122
tp559
a(I1
g96
tp560
a(I2
g98
tp561
a(I3
g96
tp562
a(I0
g122
tp563
a(I1
g98
tp564
a(I2
g98
tp565
a(I3
g98
tp566
a(I0
g117
tp567
a(I1
g117
tp568
a(I2
g98
tp569
a(I3
g98
tp570
a(I0
g122
tp571
a(I1
g94
tp572
a(I2
g98
tp573
a(I3
g98
tp574
a(I0
g117
tp575
a(I1
g96
tp576
a(I2
g98
tp577
a(I3
g117
tp578
a(I0
g98
tp579
a(I1
g98
tp580
a(I2
g96
tp581
a(I3
g94
tp582
a(I0
g122
tp583
a(I1
g117
tp584
a(I2
g94
tp585
a(I3
g94
tp586
a(I0
g98
tp587
a(I1
g94
tp588
a(I2
g117
tp589
a(I3
g96
tp590
a(I0
g117
tp591
a(I1
g96
tp592
a(I2
g98
tp593
a(I3
g98
tp594
a(I0
g94
tp595
a(I1
g98
tp596
a(I2
g96
tp597
a(I3
g98
tp598
a(I0
g98
tp599
a(I1
g117
tp600
a(I2
g94
tp601
a(I3
g117
tp602
a(I0
g96
tp603
a(I1
g94
tp604
a(I2
g117
tp605
a(I3
g94
tp606
a(I0
g117
tp607
a(I1
g94
tp608
a(I2
g98
tp609
a(I3
g94
tp610
a(I0
g122
tp611
a(I1
g96
tp612
a(I2
g98
tp613
a(I3
g96
tp614
a(I0
g94
tp615
a(I1
g98
tp616
a(I2
g96
tp617
a(I3
g98
tp618
a(I0
g98
tp619
a(I1
g117
tp620
a(I2
g94
tp621
a(I3
g117
tp622
a(I0
g98
tp623
a(I1
g98
tp624
a(I2
g94
tp625
a(I3
g98
tp626
a(I0
g94
tp627
a(I1
g96
tp628
a(I2
g117
tp629
a(I3
g96
tp630
a(I0
g117
tp631
a(I1
g94
tp632
a(I2
g94
tp633
a(I3
g96
tp634
a(I0
g117
tp635
a(I1
g94
tp636
a(I2
g94
tp637
a(I3
g96
tp638
a(I0
g96
tp639
a(I1
g117
tp640
a(I2
g94
tp641
a(I3
g98
tp642
a(I0
g96
tp643
a(I1
g98
tp644
a(I2
g94
tp645
a(I3
g117
tp646
a(I0
g98
tp647
a(I1
g98
tp648
a(I2
g96
tp649
a(I3
g98
tp650
a(I0
g94
tp651
a(I1
g96
tp652
a(I2
g94
tp653
a(I3
g98
tp654
a(I0
g98
tp655
a(I1
g96
tp656
a(I2
g117
tp657
a(I3
g117
tp658
a(I0
g98
tp659
a(I1
g98
tp660
a(I2
g98
tp661
a(I3
g117
tp662
a(I0
g94
tp663
a(I1
g96
tp664
a(I2
g98
tp665
a(I3
g94
tp666
a(I0
g96
tp667
a(I1
g98
tp668
a(I2
g98
tp669
a(I3
g98
tp670
a(I0
g98
tp671
a(I1
g98
tp672
a(I2
g98
tp673
a(I3
g98
tp674
a(I0
g117
tp675
a(I1
g98
tp676
a(I2
g98
tp677
a(I3
g98
tp678
a(I0
g94
tp679
a(I1
g117
tp680
a(I2
g96
tp681
a(I3
g98
tp682
a(I0
g117
tp683
a(I1
g117
tp684
a(I2
g98
tp685
a(I3
g98
tp686
a(I0
g94
tp687
a(I1
g117
tp688
a(I2
g98
tp689
a(I3
g98
tp690
a(I0
g94
tp691
a(I1
g98
tp692
a(I2
g117
tp693
a(I3
g98
tp694
a(I0
g98
tp695
a(I1
g98
tp696
a(I2
g94
tp697
a(I3
g98
tp698
a(I0
g96
tp699
a(I1
g98
tp700
a(I2
g94
tp701
a(I3
g96
tp702
a(I0
g117
tp703
a(I1
g98
tp704
a(I2
g94
tp705
a(I3
g94
tp706
a(I0
g117
tp707
a(I1
g96
tp708
a(I2
g94
tp709
a(I3
g94
tp710
a(I0
g122
tp711
a(I1
g98
tp712
a(I2
g94
tp713
a(I3
g117
tp714
a(I0
g117
tp715
a(I1
g117
tp716
a(I2
g94
tp717
a(I3
g94
tp718
a(I0
g94
tp719
a(I1
g94
tp720
a(I2
g96
tp721
a(I3
g94
tp722
a(I0
g117
tp723
a(I1
g94
tp724
a(I2
g94
tp725
a(I3
g94
tp726
a(I0
g98
tp727
a(I1
g94
tp728
a(I2
g117
tp729
a(I3
g94
tp730
a(I0
g122
tp731
a(I1
g94
tp732
a(I2
g98
tp733
a(I3
g94
tp734
a(I0
g117
tp735
a(I1
g94
tp736
a(I2
g98
tp737
a(I3
g94
tp738
a(I0
g117
tp739
a(I1
g96
tp740
a(I2
g98
tp741
a(I3
g98
tp742
a(I0
g94
tp743
a(I1
g94
tp744
a(I2
g98
tp745
a(I3
g98
tp746
a(I0
g122
tp747
a(I1
g117
tp748
a(I2
g98
tp749
a(I3
g98
tp750
a(I0
g94
tp751
a(I1
g98
tp752
a(I2
g96
tp753
a(I3
g98
tp754
a(I0
g94
tp755
a(I1
g98
tp756
a(I2
g98
tp757
a(I3
g98
tp758
a(I0
g94
tp759
a(I1
g98
tp760
a(I2
g117
tp761
a(I3
g98
tp762
a(I0
g96
tp763
a(I1
g98
tp764
a(I2
g94
tp765
a(I3
g98
tp766
a(I0
g98
tp767
a(I1
g98
tp768
a(I2
g94
tp769
a(I3
g96
tp770
a(I0
g98
tp771
a(I1
g96
tp772
a(I2
g94
tp773
a(I3
g94
tp774
a(I0
g122
tp775
a(I1
g98
tp776
a(I2
g94
tp777
a(I3
g117
tp778
a(I0
g96
tp779
a(I1
g117
tp780
a(I2
g94
tp781
a(I3
g94
tp782
a(I0
g96
tp783
a(I1
g94
tp784
a(I2
g96
tp785
a(I3
g94
tp786
a(I0
g122
tp787
a(I1
g96
tp788
a(I2
g96
tp789
a(I3
g94
tp790
a(I0
g94
tp791
a(I1
g98
tp792
a(I2
g98
tp793
a(I3
g94
tp794
a(I0
g98
tp795
a(I1
g117
tp796
a(I2
g98
tp797
a(I3
g94
tp798
a(I0
g98
tp799
a(I1
g94
tp800
a(I2
g96
tp801
a(I3
g94
tp802
a(I0
g94
tp803
a(I1
g94
tp804
a(I2
g98
tp805
a(I3
g98
tp806
a(I0
g122
tp807
a(I1
g94
tp808
a(I2
g98
tp809
a(I3
g98
tp810
a(I0
g94
tp811
a(I1
g94
tp812
a(I2
g98
tp813
a(I3
g96
tp814
a(I0
g98
tp815
a(I1
g94
tp816
a(I2
g96
tp817
a(I3
g94
tp818
a(I0
g122
tp819
a(I1
g96
tp820
a(I2
g94
tp821
a(I3
g117
tp822
a(I0
g117
tp823
a(I1
g96
tp824
a(I2
g117
tp825
a(I3
g94
tp826
a(I0
g94
tp827
a(I1
g98
tp828
a(I2
g98
tp829
a(I3
g98
tp830
a(I0
g122
tp831
a(I1
g98
tp832
a(I2
g98
tp833
a(I3
g98
tp834
a(I0
g94
tp835
a(I1
g96
tp836
a(I2
g96
tp837
a(I3
g98
tp838
a(I0
g96
tp839
a(I1
g98
tp840
a(I2
g94
tp841
a(I3
g98
tp842
a(I0
g122
tp843
a(I1
g98
tp844
a(I2
g96
tp845
a(I3
g98
tp846
a(I0
g117
tp847
a(I1
g96
tp848
a(I2
g94
tp849
a(I3
g98
tp850
a(I0
g122
tp851
a(I1
g94
tp852
a(I2
g117
tp853
a(I3
g96
tp854
a(I0
g98
tp855
a(I1
g117
tp856
a(I2
g117
tp857
a(I3
g98
tp858
a(I0
g98
tp859
a(I1
g98
tp860
a(I2
g98
tp861
a(I3
g117
tp862
a(I0
g122
tp863
a(I1
g98
tp864
a(I2
g98
tp865
a(I3
g94
tp866
a(I0
g122
tp867
a(I1
g96
tp868
a(I2
g96
tp869
a(I3
g94
tp870
a(I0
g122
tp871
a(I1
g94
tp872
a(I2
g94
tp873
a(I3
g94
tp874
a(I0
g117
tp875
a(I1
g117
tp876
a(I2
g94
tp877
a(I3
g94
tp878
a(I0
g122
tp879
a(I1
g98
tp880
a(I2
g117
tp881
a(I3
g94
tp882
a(I0
g122
tp883
a(I1
g98
tp884
a(I2
g98
tp885
a(I3
g96
tp886
a(I0
g96
tp887
a(I1
g96
tp888
a(I2
g98
tp889
a(I3
g94
tp890
a(I0
g122
tp891
a(I1
g94
tp892
a(I2
g96
tp893
a(I3
g117
tp894
a(I0
g117
tp895
a(I1
g117
tp896
a(I2
g94
tp897
a(I3
g94
tp898
a(I0
g117
tp899
a(I1
g94
tp900
a(I2
g117
tp901
a(I3
g98
tp902
a(I0
g98
tp903
a(I1
g94
tp904
a(I2
g94
tp905
a(I3
g98
tp906
a(I0
g98
tp907
a(I1
g94
tp908
a(I2
g94
tp909
a(I3
g96
tp910
a(I0
g94
tp911
a(I1
g117
tp912
a(I2
g94
tp913
a(I3
g94
tp914
a(I0
g122
tp915
a(I1
g94
tp916
a(I2
g117
tp917
a(I3
g117
tp918
a(I0
g94
tp919
a(I1
g94
tp920
a(I2
g94
tp921
a(I3
g94
tp922
a(I0
g96
tp923
a(I1
g117
tp924
a(I2
g96
tp925
a(I3
g98
tp926
a(I0
g122
tp927
a(I1
g117
tp928
a(I2
g94
tp929
a(I3
g96
tp930
a(I0
g96
tp931
a(I1
g98
tp932
a(I2
g117
tp933
a(I3
g98
tp934
a(I0
g94
tp935
a(I1
g98
tp936
a(I2
g94
tp937
a(I3
g117
tp938
a(I0
g94
tp939
a(I1
g98
tp940
a(I2
g94
tp941
a(I3
g98
tp942
a(I0
g96
tp943
a(I1
g98
tp944
a(I2
g94
tp945
a(I3
g98
tp946
a(I0
g117
tp947
a(I1
g96
tp948
a(I2
g96
tp949
a(I3
g98
tp950
a(I0
g96
tp951
a(I1
g98
tp952
a(I2
g96
tp953
a(I3
g98
tp954
a(I0
g117
tp955
a(I1
g117
tp956
a(I2
g96
tp957
a(I3
g98
tp958
a(I0
g98
tp959
a(I1
g94
tp960
a(I2
g98
tp961
a(I3
g96
tp962
a(I0
g94
tp963
a(I1
g94
tp964
a(I2
g98
tp965
a(I3
g94
tp966
a(I0
g122
tp967
a(I1
g94
tp968
a(I2
g98
tp969
a(I3
g117
tp970
a(I0
g98
tp971
a(I1
g94
tp972
a(I2
g98
tp973
a(I3
g98
tp974
a(I0
g122
tp975
a(I1
g94
tp976
a(I2
g98
tp977
a(I3
g98
tp978
a(I0
g98
tp979
a(I1
g96
tp980
a(I2
g98
tp981
a(I3
g96
tp982
a(I0
g117
tp983
a(I1
g96
tp984
a(I2
g117
tp985
a(I3
g94
tp986
a(I0
g122
tp987
a(I1
g94
tp988
a(I2
g98
tp989
a(I3
g94
tp990
a(I0
g122
tp991
a(I1
g117
tp992
a(I2
g117
tp993
a(I3
g117
tp994
a(I0
g98
tp995
a(I1
g117
tp996
a(I2
g98
tp997
a(I3
g94
tp998
a(I0
g94
tp999
a(I1
g98
tp1000
a(I2
g96
tp1001
a(I3
g94
tp1002
a(I0
g94
tp1003
a(I1
g98
tp1004
a(I2
g94
tp1005
a(I3
g94
tp1006
a(I0
g117
tp1007
a(I1
g98
tp1008
a(I2
g117
tp1009
a(I3
g94
tp1010
a(I0
g96
tp1011
a(I1
g98
tp1012
a(I2
g98
tp1013
a(I3
g94
tp1014
a(I0
g122
tp1015
a(I1
g98
tp1016
a(I2
g98
tp1017
a(I3
g96
tp1018
a(I0
g122
tp1019
a(I1
g98
tp1020
a(I2
g96
tp1021
a(I3
g96
tp1022
a(I0
g117
tp1023
a(I1
g98
tp1024
a(I2
g96
tp1025
a(I3
g96
tp1026
a(I0
g98
tp1027
a(I1
g96
tp1028
a(I2
g94
tp1029
a(I3
g94
tp1030
a(I0
g122
tp1031
a(I1
g94
tp1032
a(I2
g94
tp1033
a(I3
g94
tp1034
a(I0
g98
tp1035
a(I1
g94
tp1036
a(I2
g117
tp1037
a(I3
g96
tp1038
a(I0
g94
tp1039
a(I1
g117
tp1040
a(I2
g117
tp1041
a(I3
g98
tp1042
a(I0
g122
tp1043
a(I1
g98
tp1044
a(I2
g94
tp1045
a(I3
g96
tp1046
a(I0
g98
tp1047
a(I1
g98
tp1048
a(I2
g94
tp1049
a(I3
g94
tp1050
a(I0
g94
tp1051
a(I1
g96
tp1052
a(I2
g94
tp1053
a(I3
g96
tp1054
a(I0
g94
tp1055
a(I1
g94
tp1056
a(I2
g117
tp1057
a(I3
g96
tp1058
a(I0
g98
tp1059
a(I1
g94
tp1060
a(I2
g94
tp1061
a(I3
g96
tp1062
a(I0
g122
tp1063
a(I1
g117
tp1064
a(I2
g117
tp1065
a(I3
g96
tp1066
a(I0
g98
tp1067
a(I1
g98
tp1068
a(I2
g94
tp1069
a(I3
g98
tp1070
a(I0
g122
tp1071
a(I1
g96
tp1072
a(I2
g96
tp1073
a(I3
g117
tp1074
a(I0
g96
tp1075
a(I1
g94
tp1076
a(I2
g98
tp1077
a(I3
g117
tp1078
a(I0
g122
tp1079
a(I1
g117
tp1080
a(I2
g117
tp1081
a(I3
g117
tp1082
a(I0
g96
tp1083
a(I1
g98
tp1084
a(I2
g117
tp1085
a(I3
g94
tp1086
a(I0
g98
tp1087
a(I1
g96
tp1088
a(I2
g98
tp1089
a(I3
g117
tp1090
a(I0
g94
tp1091
a(I1
g94
tp1092
a(I2
g98
tp1093
a(I3
g117
tp1094
a(I0
g117
tp1095
a(I1
g117
tp1096
a(I2
g98
tp1097
a(I3
g98
tp1098
a(I0
g117
tp1099
a(I1
g98
tp1100
a(I2
g98
tp1101
a(I3
g117
tp1102
a(I0
g122
tp1103
a(I1
g96
tp1104
a(I2
g98
tp1105
a(I3
g117
tp1106
a(I0
g98
tp1107
a(I1
g98
tp1108
a(I2
g98
tp1109
a(I3
g94
tp1110
a(I0
g122
tp1111
a(I1
g117
tp1112
a(I2
g96
tp1113
a(I3
g96
tp1114
a(I0
g98
tp1115
a(I1
g94
tp1116
a(I2
g94
tp1117
a(I3
g96
tp1118
a(I0
g122
tp1119
a(I1
g94
tp1120
a(I2
g117
tp1121
a(I3
g96
tp1122
a(I0
g96
tp1123
a(I1
g96
tp1124
a(I2
g98
tp1125
a(I3
g96
tp1126
a(I0
g117
tp1127
a(I1
g98
tp1128
a(I2
g96
tp1129
a(I3
g98
tp1130
a(I0
g96
tp1131
a(I1
g117
tp1132
a(I2
g94
tp1133
a(I3
g96
tp1134
a(I0
g98
tp1135
a(I1
g94
tp1136
a(I2
g117
tp1137
a(I3
g98
tp1138
a(I0
g98
tp1139
a(I1
g94
tp1140
a(I2
g94
tp1141
a(I3
g117
tp1142
a(I0
g122
tp1143
a(I1
g94
tp1144
a(I2
g96
tp1145
a(I3
g117
tp1146
a(I0
g122
tp1147
a(I1
g94
tp1148
a(I2
g98
tp1149
a(I3
g98
tp1150
a(I0
g98
tp1151
a(I1
g94
tp1152
a(I2
g117
tp1153
a(I3
g98
tp1154
a(I0
g122
tp1155
a(I1
g94
tp1156
a(I2
g94
tp1157
a(I3
g117
tp1158
a(I0
g98
tp1159
a(I1
g96
tp1160
a(I2
g96
tp1161
a(I3
g117
tp1162
a(I0
g117
tp1163
a(I1
g98
tp1164
a(I2
g98
tp1165
a(I3
g98
tp1166
a(I0
g94
tp1167
a(I1
g96
tp1168
a(I2
g117
tp1169
a(I3
g98
tp1170
a(I0
g96
tp1171
a(I1
g98
tp1172
a(I2
g94
tp1173
a(I3
g98
tp1174
a(I0
g122
tp1175
a(I1
g98
tp1176
a(I2
g94
tp1177
a(I3
g98
tp1178
a(I0
g117
tp1179
a(I1
g96
tp1180
a(I2
g94
tp1181
a(I3
g98
tp1182
a(I0
g122
tp1183
a(I1
g98
tp1184
a(I2
g94
tp1185
a(I3
g96
tp1186
a(I0
g96
tp1187
a(I1
g96
tp1188
a(I2
g94
tp1189
a(I3
g94
tp1190
a(I0
g96
tp1191
a(I1
g98
tp1192
a(I2
g96
tp1193
a(I3
g94
tp1194
a(I0
g96
tp1195
a(I1
g117
tp1196
a(I2
g96
tp1197
a(I3
g117
tp1198
a(I0
g122
tp1199
a(I1
g98
tp1200
a(I2
g98
tp1201
a(I3
g94
tp1202
a(I0
g122
tp1203
a(I1
g98
tp1204
a(I2
g98
tp1205
a(I3
g96
tp1206
a(I0
g122
tp1207
a(I1
g96
tp1208
a(I2
g96
tp1209
a(I3
g98
tp1210
a(I0
g96
tp1211
a(I1
g94
tp1212
a(I2
g94
tp1213
a(I3
g117
tp1214
a(I0
g117
tp1215
a(I1
g117
tp1216
a(I2
g117
tp1217
a(I3
g98
tp1218
a(I0
g94
tp1219
a(I1
g94
tp1220
a(I2
g98
tp1221
a(I3
g96
tp1222
a(I0
g94
tp1223
a(I1
g94
tp1224
a(I2
g96
tp1225
a(I3
g94
tp1226
a(I0
g122
tp1227
a(I1
g94
tp1228
a(I2
g98
tp1229
a(I3
g117
tp1230
a(I0
g96
tp1231
a(I1
g117
tp1232
a(I2
g98
tp1233
a(I3
g94
tp1234
a(I0
g98
tp1235
a(I1
g94
tp1236
a(I2
g96
tp1237
a(I3
g96
tp1238
a(I0
g96
tp1239
a(I1
g94
tp1240
a(I2
g96
tp1241
a(I3
g98
tp1242
a(I0
g96
tp1243
a(I1
g117
tp1244
a(I2
g98
tp1245
a(I3
g117
tp1246
a(I0
g122
tp1247
a(I1
g117
tp1248
a(I2
g117
tp1249
a(I3
g94
tp1250
a(I0
g117
tp1251
a(I1
g98
tp1252
a(I2
g94
tp1253
a(I3
g94
tp1254
a(I0
g98
tp1255
a(I1
g98
tp1256
a(I2
g117
tp1257
a(I3
g117
tp1258
a(I0
g94
tp1259
a(I1
g98
tp1260
a(I2
g98
tp1261
a(I3
g94
tp1262
a(I0
g98
tp1263
a(I1
g98
tp1264
a(I2
g96
tp1265
a(I3
g94
tp1266
a(I0
g94
tp1267
a(I1
g98
tp1268
a(I2
g94
tp1269
a(I3
g117
tp1270
a(I0
g122
tp1271
a(I1
g98
tp1272
a(I2
g96
tp1273
a(I3
g117
tp1274
a(I0
g98
tp1275
a(I1
g96
tp1276
a(I2
g94
tp1277
a(I3
g98
tp1278
a(I0
g122
tp1279
a(I1
g94
tp1280
a(I2
g117
tp1281
a(I3
g98
tp1282
a(I0
g117
tp1283
a(I1
g117
tp1284
a(I2
g98
tp1285
a(I3
g98
tp1286
a(I0
g122
tp1287
a(I1
g94
tp1288
a(I2
g117
tp1289
a(I3
g98
tp1290
a(I0
g96
tp1291
a(I1
g96
tp1292
a(I2
g94
tp1293
a(I3
g98
tp1294
a(I0
g117
tp1295
a(I1
g98
tp1296
a(I2
g94
tp1297
a(I3
g98
tp1298
a(I0
g117
tp1299
a(I1
g117
tp1300
a(I2
g117
tp1301
a(I3
g96
tp1302
a(I0
g122
tp1303
a(I1
g94
tp1304
a(I2
g94
tp1305
a(I3
g94
tp1306
a(I0
g98
tp1307
a(I1
g96
tp1308
a(I2
g94
tp1309
a(I3
g94
tp1310
a(I0
g117
tp1311
a(I1
g98
tp1312
a(I2
g117
tp1313
a(I3
g117
tp1314
a(I0
g94
tp1315
a(I1
g117
tp1316
a(I2
g117
tp1317
a(I3
g94
tp1318
a(I0
g96
tp1319
a(I1
g94
tp1320
a(I2
g98
tp1321
a(I3
g94
tp1322
a(I0
g122
tp1323
a(I1
g96
tp1324
a(I2
g98
tp1325
a(I3
g94
tp1326
a(I0
g96
tp1327
a(I1
g98
tp1328
a(I2
g98
tp1329
a(I3
g94
tp1330
a(I0
g94
tp1331
a(I1
g117
tp1332
a(I2
g98
tp1333
a(I3
g96
tp1334
a(I0
g96
tp1335
a(I1
g94
tp1336
a(I2
g96
tp1337
a(I3
g96
tp1338
a(I0
g94
tp1339
a(I1
g94
tp1340
a(I2
g98
tp1341
a(I3
g96
tp1342
a(I0
g94
tp1343
a(I1
g94
tp1344
a(I2
g117
tp1345
a(I3
g94
tp1346
a(I0
g98
tp1347
a(I1
g94
tp1348
a(I2
g94
tp1349
a(I3
g117
tp1350
a(I0
g96
tp1351
a(I1
g94
tp1352
a(I2
g94
tp1353
a(I3
g94
tp1354
a(I0
g117
tp1355
a(I1
g96
tp1356
a(I2
g94
tp1357
a(I3
g96
tp1358
a(I0
g96
tp1359
a(I1
g96
tp1360
a(I2
g94
tp1361
a(I3
g94
tp1362
a(I0
g94
tp1363
a(I1
g98
tp1364
a(I2
g94
tp1365
a(I3
g96
tp1366
a(I0
g117
tp1367
a(I1
g98
tp1368
a(I2
g94
tp1369
a(I3
g96
tp1370
a(I0
g98
tp1371
a(I1
g96
tp1372
a(I2
g96
tp1373
a(I3
g96
tp1374
a(I0
g98
tp1375
a(I1
g98
tp1376
a(I2
g98
tp1377
a(I3
g98
tp1378
a(I0
g98
tp1379
a(I1
g98
tp1380
a(I2
g117
tp1381
a(I3
g98
tp1382
a(I0
g96
tp1383
a(I1
g98
tp1384
a(I2
g98
tp1385
a(I3
g117
tp1386
a(I0
g122
tp1387
a(I1
g98
tp1388
a(I2
g98
tp1389
a(I3
g98
tp1390
a(I0
g96
tp1391
a(I1
g96
tp1392
a(I2
g98
tp1393
a(I3
g98
tp1394
a(I0
g94
tp1395
a(I1
g94
tp1396
a(I2
g98
tp1397
a(I3
g117
tp1398
a(I0
g117
tp1399
a(I1
g117
tp1400
a(I2
g96
tp1401
a(I3
g98
tp1402
a(I0
g117
tp1403
a(I1
g94
tp1404
a(I2
g98
tp1405
a(I3
g117
tp1406
a(I0
g117
tp1407
a(I1
g96
tp1408
a(I2
g117
tp1409
a(I3
g98
tp1410
a(I0
g94
tp1411
a(I1
g96
tp1412
a(I2
g94
tp1413
a(I3
g98
tp1414
a(I0
g117
tp1415
a(I1
g94
tp1416
a(I2
g94
tp1417
a(I3
g96
tp1418
a(I0
g96
tp1419
a(I1
g117
tp1420
a(I2
g94
tp1421
a(I3
g94
tp1422
a(I0
g122
tp1423
a(I1
g98
tp1424
a(I2
g94
tp1425
a(I3
g117
tp1426
a(I0
g96
tp1427
a(I1
g117
tp1428
a(I2
g94
tp1429
a(I3
g98
tp1430
a(I0
g98
tp1431
a(I1
g98
tp1432
a(I2
g94
tp1433
a(I3
g98
tp1434
a(I0
g96
tp1435
a(I1
g98
tp1436
a(I2
g96
tp1437
a(I3
g96
tp1438
a(I0
g94
tp1439
a(I1
g96
tp1440
a(I2
g96
tp1441
a(I3
g94
tp1442
a(I0
g98
tp1443
a(I1
g94
tp1444
a(I2
g94
tp1445
a(I3
g117
tp1446
a(I0
g98
tp1447
a(I1
g117
tp1448
a(I2
g96
tp1449
a(I3
g94
tp1450
a(I0
g122
tp1451
a(I1
g94
tp1452
a(I2
g94
tp1453
a(I3
g94
tp1454
a(I0
g96
tp1455
a(I1
g94
tp1456
a(I2
g117
tp1457
a(I3
g94
tp1458
a(I0
g122
tp1459
a(I1
g94
tp1460
a(I2
g98
tp1461
a(I3
g117
tp1462
a(I0
g117
tp1463
a(I1
g117
tp1464
a(I2
g98
tp1465
a(I3
g98
tp1466
a(I0
g117
tp1467
a(I1
g94
tp1468
a(I2
g98
tp1469
a(I3
g96
tp1470
a(I0
g94
tp1471
a(I1
g94
tp1472
a(I2
g96
tp1473
a(I3
g98
tp1474
a(I0
g94
tp1475
a(I1
g117
tp1476
a(I2
g98
tp1477
a(I3
g98
tp1478
a(I0
g96
tp1479
a(I1
g94
tp1480
a(I2
g98
tp1481
a(I3
g96
tp1482
a(I0
g94
tp1483
a(I1
g117
tp1484
a(I2
g98
tp1485
a(I3
g98
tp1486
a(I0
g96
tp1487
a(I1
g94
tp1488
a(I2
g98
tp1489
a(I3
g117
tp1490
a(I0
g94
tp1491
a(I1
g98
tp1492
a(I2
g96
tp1493
a(I3
g94
tp1494
a(I0
g98
tp1495
a(I1
g96
tp1496
a(I2
g94
tp1497
a(I3
g94
tp1498
a(I0
g122
tp1499
a(I1
g98
tp1500
a(I2
g117
tp1501
a(I3
g94
tp1502
a(I0
g96
tp1503
a(I1
g117
tp1504
a(I2
g98
tp1505
a(I3
g117
tp1506
a(I0
g94
tp1507
a(I1
g94
tp1508
a(I2
g98
tp1509
a(I3
g94
tp1510
a(I0
g117
tp1511
a(I1
g94
tp1512
a(I2
g96
tp1513
a(I3
g96
tp1514
a(I0
g122
tp1515
a(I1
g98
tp1516
a(I2
g94
tp1517
a(I3
g98
tp1518
a(I0
g117
tp1519
a(I1
g96
tp1520
a(I2
g117
tp1521
a(I3
g98
tp1522
a(I0
g98
tp1523
a(I1
g98
tp1524
a(I2
g94
tp1525
a(I3
g96
tp1526
a(I0
g122
tp1527
a(I1
g96
tp1528
a(I2
g96
tp1529
a(I3
g96
tp1530
a(I0
g122
tp1531
a(I1
g98
tp1532
a(I2
g98
tp1533
a(I3
g98
tp1534
a(I0
g122
tp1535
a(I1
g96
tp1536
a(I2
g117
tp1537
a(I3
g117
tp1538
a(I0
g96
tp1539
a(I1
g96
tp1540
a(I2
g94
tp1541
a(I3
g117
tp1542
a(I0
g98
tp1543
a(I1
g98
tp1544
a(I2
g96
tp1545
a(I3
g94
tp1546
a(I0
g94
tp1547
a(I1
g96
tp1548
a(I2
g98
tp1549
a(I3
g94
tp1550
a(I0
g117
tp1551
a(I1
g94
tp1552
a(I2
g117
tp1553
a(I3
g117
tp1554
a(I0
g96
tp1555
a(I1
g94
tp1556
a(I2
g98
tp1557
a(I3
g94
tp1558
a(I0
g94
tp1559
a(I1
g94
tp1560
a(I2
g96
tp1561
a(I3
g96
tp1562
a(I0
g94
tp1563
a(I1
g96
tp1564
a(I2
g94
tp1565
a(I3
g98
tp1566
a(I0
g117
tp1567
a(I1
g96
tp1568
a(I2
g94
tp1569
a(I3
g117
tp1570
a(I0
g122
tp1571
a(I1
g96
tp1572
a(I2
g117
tp1573
a(I3
g94
tp1574
a(I0
g98
tp1575
a(I1
g98
tp1576
a(I2
g98
tp1577
a(I3
g96
tp1578
a(I0
g117
tp1579
a(I1
g98
tp1580
a(I2
g96
tp1581
a(I3
g96
tp1582
a(I0
g96
tp1583
a(I1
g98
tp1584
a(I2
g96
tp1585
a(I3
g98
tp1586
a(I0
g117
tp1587
a(I1
g96
tp1588
a(I2
g94
tp1589
a(I3
g117
tp1590
a(I0
g94
tp1591
a(I1
g98
tp1592
a(I2
g117
tp1593
a(I3
g98
tp1594
a(I0
g96
tp1595
a(I1
g117
tp1596
a(I2
g98
tp1597
a(I3
g98
tp1598
a(I0
g117
tp1599
a(I1
g98
tp1600
a(I2
g117
tp1601
a(I3
g98
tp1602
a(I0
g96
tp1603
a(I1
g98
tp1604
a(I2
g98
tp1605
a(I3
g96
tp1606
a(I0
g94
tp1607
a(I1
g117
tp1608
a(I2
g96
tp1609
a(I3
g94
tp1610
a(I0
g98
tp1611
a(I1
g94
tp1612
a(I2
g94
tp1613
a(I3
g117
tp1614
a(I0
g96
tp1615
a(I1
g96
tp1616
a(I2
g117
tp1617
a(I3
g94
tp1618
a(I0
g96
tp1619
a(I1
g98
tp1620
a(I2
g98
tp1621
a(I3
g96
tp1622
a(I0
g122
tp1623
a(I1
g117
tp1624
a(I2
g96
tp1625
a(I3
g96
tp1626
a(I0
g96
tp1627
a(I1
g98
tp1628
a(I2
g94
tp1629
a(I3
g94
tp1630
a(I0
g94
tp1631
a(I1
g96
tp1632
a(I2
g117
tp1633
a(I3
g94
tp1634
a(I0
g122
tp1635
a(I1
g94
tp1636
a(I2
g94
tp1637
a(I3
g94
tp1638
a(I0
g98
tp1639
a(I1
g94
tp1640
a(I2
g96
tp1641
a(I3
g94
tp1642
a(I0
g122
tp1643
a(I1
g117
tp1644
a(I2
g96
tp1645
a(I3
g96
tp1646
a(I0
g94
tp1647
a(I1
g94
tp1648
a(I2
g98
tp1649
a(I3
g94
tp1650
a(I0
g94
tp1651
a(I1
g94
tp1652
a(I2
g117
tp1653
a(I3
g94
tp1654
a(I0
g98
tp1655
a(I1
g96
tp1656
a(I2
g117
tp1657
a(I3
g117
tp1658
a(I0
g98
tp1659
a(I1
g98
tp1660
a(I2
g98
tp1661
a(I3
g117
tp1662
a(I0
g98
tp1663
a(I1
g96
tp1664
a(I2
g98
tp1665
a(I3
g117
tp1666
a(I0
g122
tp1667
a(I1
g98
tp1668
a(I2
g96
tp1669
a(I3
g94
tp1670
a(I0
g122
tp1671
a(I1
g117
tp1672
a(I2
g96
tp1673
a(I3
g117
tp1674
a(I0
g122
tp1675
a(I1
g117
tp1676
a(I2
g94
tp1677
a(I3
g117
tp1678
a(I0
g94
tp1679
a(I1
g94
tp1680
a(I2
g117
tp1681
a(I3
g117
tp1682
a(I0
g94
tp1683
a(I1
g94
tp1684
a(I2
g117
tp1685
a(I3
g94
tp1686
a(I0
g98
tp1687
a(I1
g96
tp1688
a(I2
g94
tp1689
a(I3
g94
tp1690
a(I0
g117
tp1691
a(I1
g98
tp1692
a(I2
g94
tp1693
a(I3
g96
tp1694
a(I0
g117
tp1695
a(I1
g117
tp1696
a(I2
g94
tp1697
a(I3
g98
tp1698
a(I0
g98
tp1699
a(I1
g98
tp1700
a(I2
g117
tp1701
a(I3
g98
tp1702
a(I0
g98
tp1703
a(I1
g98
tp1704
a(I2
g94
tp1705
a(I3
g117
tp1706
a(I0
g98
tp1707
a(I1
g98
tp1708
a(I2
g94
tp1709
a(I3
g94
tp1710
a(I0
g96
tp1711
a(I1
g96
tp1712
a(I2
g117
tp1713
a(I3
g94
tp1714
a(I0
g117
tp1715
a(I1
g94
tp1716
a(I2
g94
tp1717
a(I3
g96
tp1718
a(I0
g122
tp1719
a(I1
g117
tp1720
a(I2
g117
tp1721
a(I3
g98
tp1722
a(I0
g122
tp1723
a(I1
g94
tp1724
a(I2
g94
tp1725
a(I3
g117
tp1726
a(I0
g117
tp1727
a(I1
g94
tp1728
a(I2
g98
tp1729
a(I3
g98
tp1730
a(I0
g122
tp1731
a(I1
g94
tp1732
a(I2
g98
tp1733
a(I3
g96
tp1734
a(I0
g122
tp1735
a(I1
g96
tp1736
a(I2
g96
tp1737
a(I3
g94
tp1738
a(I0
g98
tp1739
a(I1
g98
tp1740
a(I2
g94
tp1741
a(I3
g96
tp1742
a(I0
g117
tp1743
a(I1
g98
tp1744
a(I2
g117
tp1745
a(I3
g98
tp1746
a(I0
g98
tp1747
a(I1
g117
tp1748
a(I2
g94
tp1749
a(I3
g117
tp1750
a(I0
g94
tp1751
a(I1
g98
tp1752
a(I2
g98
tp1753
a(I3
g117
tp1754
a(I0
g94
tp1755
a(I1
g96
tp1756
a(I2
g98
tp1757
a(I3
g94
tp1758
a(I0
g94
tp1759
a(I1
g94
tp1760
a(I2
g98
tp1761
a(I3
g94
tp1762
a(I0
g122
tp1763
a(I1
g117
tp1764
a(I2
g98
tp1765
a(I3
g96
tp1766
a(I0
g98
tp1767
a(I1
g94
tp1768
a(I2
g98
tp1769
a(I3
g98
tp1770
a(I0
g122
tp1771
a(I1
g94
tp1772
a(I2
g98
tp1773
a(I3
g98
tp1774
a(I0
g94
tp1775
a(I1
g94
tp1776
a(I2
g98
tp1777
a(I3
g117
tp1778
a(I0
g98
tp1779
a(I1
g96
tp1780
a(I2
g98
tp1781
a(I3
g94
tp1782
a(I0
g96
tp1783
a(I1
g98
tp1784
a(I2
g96
tp1785
a(I3
g96
tp1786
a(I0
g122
tp1787
a(I1
g98
tp1788
a(I2
g94
tp1789
a(I3
g98
tp1790
a(I0
g98
tp1791
a(I1
g117
tp1792
a(I2
g94
tp1793
a(I3
g117
tp1794
a(I0
g122
tp1795
a(I1
g98
tp1796
a(I2
g117
tp1797
a(I3
g94
tp1798
a(I0
g98
tp1799
a(I1
g98
tp1800
a(I2
g94
tp1801
a(I3
g94
tp1802
a(I0
g122
tp1803
a(I1
g96
tp1804
a(I2
g94
tp1805
a(I3
g94
tp1806
a(I0
g98
tp1807
a(I1
g94
tp1808
a(I2
g94
tp1809
a(I3
g96
tp1810
a(I0
g94
tp1811
a(I1
g117
tp1812
a(I2
g94
tp1813
a(I3
g98
tp1814
a(I0
g122
tp1815
a(I1
g94
tp1816
a(I2
g94
tp1817
a(I3
g117
tp1818
a(I0
g117
tp1819
a(I1
g94
tp1820
a(I2
g94
tp1821
a(I3
g98
tp1822
a(I0
g117
tp1823
a(I1
g94
tp1824
a(I2
g98
tp1825
a(I3
g98
tp1826
a(I0
g94
tp1827
a(I1
g96
tp1828
a(I2
g98
tp1829
a(I3
g96
tp1830
a(I0
g98
tp1831
a(I1
g98
tp1832
a(I2
g96
tp1833
a(I3
g96
tp1834
a(I0
g122
tp1835
a(I1
g117
tp1836
a(I2
g94
tp1837
a(I3
g98
tp1838
a(I0
g117
tp1839
a(I1
g98
tp1840
a(I2
g96
tp1841
a(I3
g96
tp1842
a(I0
g122
tp1843
a(I1
g96
tp1844
a(I2
g94
tp1845
a(I3
g94
tp1846
a(I0
g122
tp1847
a(I1
g98
tp1848
a(I2
g94
tp1849
a(I3
g96
tp1850
a(I0
g94
tp1851
a(I1
g117
tp1852
a(I2
g94
tp1853
a(I3
g98
tp1854
a(I0
g96
tp1855
a(I1
g94
tp1856
a(I2
g117
tp1857
a(I3
g117
tp1858
a(I0
g96
tp1859
a(I1
g96
tp1860
a(I2
g117
tp1861
a(I3
g117
tp1862
a(I0
g94
tp1863
a(I1
g98
tp1864
a(I2
g94
tp1865
a(I3
g94
tp1866
a(I0
g117
tp1867
a(I1
g117
tp1868
a(I2
g94
tp1869
a(I3
g117
tp1870
a(I0
g96
tp1871
a(I1
g98
tp1872
a(I2
g94
tp1873
a(I3
g117
tp1874
a(I0
g117
tp1875
a(I1
g98
tp1876
a(I2
g94
tp1877
a(I3
g94
tp1878
a(I0
g117
tp1879
a(I1
g96
tp1880
a(I2
g96
tp1881
a(I3
g94
tp1882
a(I0
g98
tp1883
a(I1
g94
tp1884
a(I2
g98
tp1885
a(I3
g94
tp1886
a(I0
g94
tp1887
a(I1
g94
tp1888
a(I2
g98
tp1889
a(I3
g96
tp1890
a(I0
g122
tp1891
a(I1
g117
tp1892
a(I2
g98
tp1893
a(I3
g98
tp1894
a(I0
g96
tp1895
a(I1
g98
tp1896
a(I2
g117
tp1897
a(I3
g117
tp1898
a(I0
g96
tp1899
a(I1
g98
tp1900
a(I2
g98
tp1901
a(I3
g98
tp1902
a(I0
g117
tp1903
a(I1
g96
tp1904
a(I2
g96
tp1905
a(I3
g98
tp1906
a(I0
g98
tp1907
a(I1
g94
tp1908
a(I2
g96
tp1909
a(I3
g96
tp1910
a(I0
g98
tp1911
a(I1
g96
tp1912
a(I2
g98
tp1913
a(I3
g96
tp1914
a(I0
g117
tp1915
a(I1
g94
tp1916
a(I2
g96
tp1917
a(I3
g98
tp1918
a(I0
g96
tp1919
a(I1
g117
tp1920
a(I2
g98
tp1921
a(I3
g96
tp1922
a(I0
g122
tp1923
a(I1
g117
tp1924
a(I2
g96
tp1925
a(I3
g96
tp1926
a(I0
g117
tp1927
a(I1
g98
tp1928
a(I2
g96
tp1929
a(I3
g94
tp1930
a(I0
g96
tp1931
a(I1
g96
tp1932
a(I2
g94
tp1933
a(I3
g96
tp1934
a(I0
g122
tp1935
a(I1
g94
tp1936
a(I2
g96
tp1937
a(I3
g98
tp1938
a(I0
g94
tp1939
a(I1
g117
tp1940
a(I2
g98
tp1941
a(I3
g117
tp1942
a(I0
g96
tp1943
a(I1
g94
tp1944
a(I2
g98
tp1945
a(I3
g98
tp1946
a(I0
g96
tp1947
a(I1
g96
tp1948
a(I2
g96
tp1949
a(I3
g117
tp1950
a(I0
g117
tp1951
a(I1
g98
tp1952
a(I2
g96
tp1953
a(I3
g94
tp1954
a(I0
g117
tp1955
a(I1
g98
tp1956
a(I2
g94
tp1957
a(I3
g117
tp1958
a(I0
g122
tp1959
a(I1
g98
tp1960
a(I2
g96
tp1961
a(I3
g98
tp1962
a(I0
g122
tp1963
a(I1
g117
tp1964
a(I2
g98
tp1965
a(I3
g96
tp1966
a(I0
g117
tp1967
a(I1
g94
tp1968
a(I2
g117
tp1969
a(I3
g94
tp1970
a(I0
g98
tp1971
a(I1
g96
tp1972
a(I2
g98
tp1973
a(I3
g117
tp1974
a(I0
g96
tp1975
a(I1
g94
tp1976
a(I2
g98
tp1977
a(I3
g94
tp1978
a(I0
g98
tp1979
a(I1
g94
tp1980
a(I2
g98
tp1981
a(I3
g117
tp1982
a(I0
g96
tp1983
a(I1
g94
tp1984
a(I2
g96
tp1985
a(I3
g117
tp1986
a(I0
g94
tp1987
a(I1
g117
tp1988
a(I2
g98
tp1989
a(I3
g94
tp1990
a(I0
g122
tp1991
a(I1
g94
tp1992
a(I2
g98
tp1993
a(I3
g94
tp1994
a(I0
g98
tp1995
a(I1
g96
tp1996
a(I2
g98
tp1997
a(I3
g94
tp1998
a(I0
g117
tp1999
a(I1
g94
tp2000
a(I2
g117
tp2001
a(I3
g94
tp2002
a(I0
g96
tp2003
a(I1
g94
tp2004
a(I2
g117
tp2005
a(I3
g96
tp2006
a(I0
g94
tp2007
a(I1
g94
tp2008
a(I2
g94
tp2009
a(I3
g94
tp2010
a(I0
g96
tp2011
a(I1
g94
tp2012
a(I2
g94
tp2013
a(I3
g94
tp2014
a(I0
g98
tp2015
a(I1
g117
tp2016
a(I2
g94
tp2017
a(I3
g117
tp2018
a(I0
g122
tp2019
a(I1
g117
tp2020
a(I2
g94
tp2021
a(I3
g94
tp2022
a(I0
g96
tp2023
a(I1
g98
tp2024
a(I2
g96
tp2025
a(I3
g96
tp2026
a(I0
g98
tp2027
a(I1
g98
tp2028
a(I2
g94
tp2029
a(I3
g98
tp2030
a(I0
g98
tp2031
a(I1
g96
tp2032
a(I2
g94
tp2033
a(I3
g117
tp2034
a(I0
g98
tp2035
a(I1
g94
tp2036
a(I2
g117
tp2037
a(I3
g94
tp2038
a(I0
g94
tp2039
a(I1
g96
tp2040
a(I2
g117
tp2041
a(I3
g96
tp2042
a(I0
g122
tp2043
a(I1
g94
tp2044
a(I2
g117
tp2045
a(I3
g94
tp2046
a(I0
g117
tp2047
a(I1
g117
tp2048
a(I2
g94
tp2049
a(I3
g117
tp2050
a(I0
g96
tp2051
a(I1
g117
tp2052
a(I2
g117
tp2053
a(I3
g98
tp2054
a(I0
g117
tp2055
a(I1
g98
tp2056
a(I2
g117
tp2057
a(I3
g98
tp2058
a(I0
g96
tp2059
a(I1
g96
tp2060
a(I2
g117
tp2061
a(I3
g96
tp2062
a(I0
g96
tp2063
a(I1
g94
tp2064
a(I2
g94
tp2065
a(I3
g98
tp2066
a(I0
g98
tp2067
a(I1
g94
tp2068
a(I2
g96
tp2069
a(I3
g98
tp2070
a(I0
g117
tp2071
as.