(dp1
S'layout'
p2
(ilayout
Layout
p3
(dp4
S'numGhosts'
p5
I3
sS'food'
p6
(igame
Grid
p7
(dp8
S'CELLS_PER_INT'
p9
I30
sS'width'
p10
I25
sS'data'
p11
(lp12
(lp13
I00
aI00
aI00
aI00
aI00
aI00
aI00
aI00
aI00
aI00
aI00
aI00
aa(lp14
I00
aI00
aI00
aI01
aI00
aI01
aI00
aI01
aI00
aI00
aI01
aI00
aa(lp15
I00
aI00
aI00
aI00
aI00
aI00
aI00
aI01
aI00
aI01
aI01
aI00
aa(lp16
I00
aI00
aI00
aI00
aI00
aI01
aI01
aI01
aI00
aI00
aI00
aI00
aa(lp17
I00
aI00
aI00
aI00
aI00
aI01
aI00
aI01
aI00
aI00
aI01
aI00
aa(lp18
I00
aI00
aI00
aI00
aI00
aI00
aI00
aI00
aI00
aI00
aI01
aI00
aa(lp19
I00
aI00
aI00
aI01
aI00
aI01
aI00
aI01
aI01
aI00
aI01
aI00
aa(lp20
I00
aI00
aI00
aI00
aI00
aI01
aI00
aI00
aI00
aI01
aI00
aI00
aa(lp21
I00
aI01
aI00
aI01
aI01
aI01
aI00
aI01
aI00
aI00
aI00
aI00
aa(lp22
I00
aI00
aI00
aI01
aI01
aI01
aI00
aI01
aI00
aI00
aI00
aI00
aa(lp23
I00
aI00
aI00
aI00
aI01
aI00
aI00
aI00
aI00
aI00
aI00
aI00
aa(lp24
I00
aI00
aI00
aI01
aI00
aI01
aI00
aI00
aI00
aI01
aI00
aI00
aa(lp25
I00
aI01
aI00
aI01
aI00
aI00
aI01
aI01
aI00
aI00
aI01
aI00
aa(lp26
I00
aI01
aI00
aI00
aI00
aI00
aI01
aI00
aI00
aI00
aI00
aI00
aa(lp27
I00
aI01
aI00
aI01
aI01
aI01
aI01
aI01
aI00
aI00
aI00
aI00
aa(lp28
I00
aI01
aI00
aI00
aI00
aI01
aI00
aI01
aI00
aI01
aI00
aI00
aa(lp29
I00
aI00
aI00
aI00
aI01
aI01
aI00
aI01
aI00
aI00
aI00
aI00
aa(lp30
I00
aI00
aI00
aI01
aI00
aI00
aI00
aI01
aI00
aI00
aI01
aI00
aa(lp31
I00
aI00
aI00
aI00
aI01
aI01
aI00
aI00
aI00
aI00
aI01
aI00
aa(lp32
I00
aI00
aI01
aI01
aI01
aI01
aI01
aI01
aI00
aI01
aI01
aI00
aa(lp33
I00
aI00
aI00
aI00
aI01
aI00
aI00
aI00
aI00
aI00
aI00
aI00
aa(lp34
I00
aI00
aI01
aI01
aI01
aI01
aI00
aI01
aI01
aI00
aI00
aI00
aa(lp35
I00
aI00
aI00
aI00
aI00
aI01
aI00
aI01
aI00
aI01
aI00
aI00
aa(lp36
I00
aI00
aI01
aI00
aI00
aI00
aI00
aI01
aI00
aI00
aI00
aI00
aa(lp37
I00
aI00
aI00
aI00
aI00
aI00
aI00
aI00
aI00
aI00
aI00
aI00
aasS'height'
p38
I12
sbsS'agentPositions'
p39
(lp40
(I01
(I1
I2
tp41
tp42
a(I00
(I21
I10
tp43
tp44
a(I00
(I22
I10
tp45
tp46
a(I00
(I23
I10
tp47
tp48
asg38
I12
sg10
I25
sS'walls'
p49
(igame
Grid
p50
(dp51
g9
I30
sg10
I25
sg11
(lp52
(lp53
I01
aI01
aI01
aI01
aI01
aI01
aI01
aI01
aI01
aI01
aI01
aI01
aa(lp54
I01
aI00
aI00
aI00
aI01
aI00
aI00
aI00
aI01
aI00
aI00
aI01
aa(lp55
I01
aI00
aI00
aI00
aI01
aI00
aI00
aI00
aI01
aI00
aI00
aI01
aa(lp56
I01
aI00
aI00
aI00
aI01
aI00
aI00
aI00
aI01
aI00
aI00
aI01
aa(lp57
I01
aI00
aI00
aI00
aI01
aI00
aI00
aI00
aI01
aI01
aI00
aI01
aa(lp58
I01
aI00
aI00
aI00
aI01
aI00
aI00
aI00
aI00
aI01
aI00
aI01
aa(lp59
I01
aI00
aI00
aI00
aI01
aI00
aI00
aI00
aI00
aI01
aI00
aI01
aa(lp60
I01
aI01
aI00
aI01
aI01
aI00
aI01
aI00
aI00
aI00
aI00
aI01
aa(lp61
I01
aI00
aI00
aI00
aI00
aI00
aI01
aI00
aI00
aI00
aI00
aI01
aa(lp62
I01
aI00
aI00
aI00
aI00
aI00
aI00
aI00
aI00
aI01
aI00
aI01
aa(lp63
I01
aI00
aI00
aI00
aI00
aI00
aI00
aI00
aI00
aI01
aI01
aI01
aa(lp64
I01
aI00
aI00
aI00
aI00
aI00
aI00
aI00
aI00
aI00
aI00
aI01
aa(lp65
I01
aI00
aI00
aI00
aI00
aI00
aI00
aI00
aI00
aI00
aI00
aI01
aa(lp66
I01
aI00
aI00
aI00
aI00
aI01
aI00
aI00
aI00
aI00
aI00
aI01
aa(lp67
I01
aI00
aI01
aI00
aI00
aI00
aI00
aI00
aI00
aI00
aI00
aI01
aa(lp68
I01
aI00
aI01
aI00
aI00
aI00
aI00
aI00
aI00
aI00
aI00
aI01
aa(lp69
I01
aI00
aI00
aI00
aI00
aI00
aI00
aI00
aI01
aI00
aI01
aI01
aa(lp70
I01
aI00
aI00
aI00
aI00
aI00
aI00
aI00
aI01
aI00
aI00
aI01
aa(lp71
I01
aI00
aI00
aI00
aI00
aI00
aI01
aI01
aI01
aI00
aI00
aI01
aa(lp72
I01
aI00
aI00
aI00
aI00
aI00
aI00
aI00
aI00
aI00
aI00
aI01
aa(lp73
I01
aI00
aI00
aI00
aI00
aI00
aI01
aI00
aI00
aI00
aI00
aI01
aa(lp74
I01
aI00
aI00
aI00
aI00
aI00
aI01
aI00
aI00
aI00
aI00
aI01
aa(lp75
I01
aI00
aI00
aI00
aI01
aI00
aI01
aI00
aI00
aI00
aI00
aI01
aa(lp76
I01
aI00
aI00
aI01
aI01
aI00
aI01
aI00
aI00
aI00
aI00
aI01
aa(lp77
I01
aI01
aI01
aI01
aI01
aI01
aI01
aI01
aI01
aI01
aI01
aI01
aasg38
I12
sbsS'layoutText'
p78
(lp79
S'%%%%%%%%%%%%%%%%%%%%%%%%%'
p80
aS'%.. ...   % .   %... GGG%'
p81
aS'% . %%%. %%.   .   .  . %'
p82
aS'%%%%% .         %%%  .  %'
p83
aS'%.... . ..  . ....%. ...%'
p84
aS'%  .   %%   ...   %.%%%%%'
p85
aS'%. .. .... . %... .. .. %'
p86
aS'%%%%%%%%...   . . ....%%%'
p87
aS'%.    .%.. .. .  . . . %%'
p88
aS'%P            %%   . . .%'
p89
aS'%      %.   ....        %'
p90
aS'%%%%%%%%%%%%%%%%%%%%%%%%%'
p91
asbsS'actions'
p92
(lp93
(I0
S'Stop'
p94
tp95
a(I1
S'West'
p96
tp97
a(I2
g96
tp98
a(I3
g96
tp99
a(I0
S'South'
p100
tp101
a(I1
g100
tp102
a(I2
g96
tp103
a(I3
g96
tp104
a(I0
g94
tp105
a(I1
g96
tp106
a(I2
g96
tp107
a(I3
g96
tp108
a(I0
g94
tp109
a(I1
g100
tp110
a(I2
g96
tp111
a(I3
g100
tp112
a(I0
g94
tp113
a(I1
S'East'
p114
tp115
a(I2
g100
tp116
a(I3
g96
tp117
a(I0
S'North'
p118
tp119
a(I1
g118
tp120
a(I2
g96
tp121
a(I3
g96
tp122
a(I0
g118
tp123
a(I1
g118
tp124
a(I2
g118
tp125
a(I3
g118
tp126
a(I0
g94
tp127
a(I1
g96
tp128
a(I2
g114
tp129
a(I3
g96
tp130
a(I0
g94
tp131
a(I1
g96
tp132
a(I2
g100
tp133
a(I3
g100
tp134
a(I0
g114
tp135
a(I1
g100
tp136
a(I2
g114
tp137
a(I3
g96
tp138
a(I0
g94
tp139
a(I1
g96
tp140
a(I2
g118
tp141
a(I3
g96
tp142
a(I0
g94
tp143
a(I1
g96
tp144
a(I2
g96
tp145
a(I3
g118
tp146
a(I0
g114
tp147
a(I1
g96
tp148
a(I2
g96
tp149
a(I3
g96
tp150
a(I0
g96
tp151
a(I1
g96
tp152
a(I2
g100
tp153
a(I3
g100
tp154
a(I0
g114
tp155
a(I1
g118
tp156
a(I2
g96
tp157
a(I3
g96
tp158
a(I0
g96
tp159
a(I1
g96
tp160
a(I2
g96
tp161
a(I3
g118
tp162
a(I0
g114
tp163
a(I1
g96
tp164
a(I2
g96
tp165
a(I3
g96
tp166
a(I0
g114
tp167
a(I1
g96
tp168
a(I2
g118
tp169
a(I3
g96
tp170
a(I0
g94
tp171
a(I1
g100
tp172
a(I2
g96
tp173
a(I3
g100
tp174
a(I0
g96
tp175
a(I1
g114
tp176
a(I2
g96
tp177
a(I3
g100
tp178
a(I0
g96
tp179
a(I1
g118
tp180
a(I2
g96
tp181
a(I3
g96
tp182
a(I0
g114
tp183
a(I1
g96
tp184
a(I2
g100
tp185
a(I3
g100
tp186
a(I0
g94
tp187
a(I1
g100
tp188
a(I2
g100
tp189
a(I3
g96
tp190
a(I0
g100
tp191
a(I1
g114
tp192
a(I2
g96
tp193
a(I3
g118
tp194
a(I0
g96
tp195
a(I1
g118
tp196
a(I2
g96
tp197
a(I3
g114
tp198
a(I0
g100
tp199
a(I1
g96
tp200
a(I2
g100
tp201
a(I3
g114
tp202
a(I0
g114
tp203
a(I1
g100
tp204
a(I2
g114
tp205
a(I3
g118
tp206
a(I0
g96
tp207
a(I1
g114
tp208
a(I2
g118
tp209
a(I3
g118
tp210
a(I0
g118
tp211
a(I1
g118
tp212
a(I2
g96
tp213
a(I3
g114
tp214
a(I0
g94
tp215
a(I1
g96
tp216
a(I2
g100
tp217
a(I3
g100
tp218
a(I0
g114
tp219
a(I1
g100
tp220
a(I2
g114
tp221
a(I3
g96
tp222
a(I0
g100
tp223
a(I1
g100
tp224
a(I2
g118
tp225
a(I3
g118
tp226
a(I0
g94
tp227
a(I1
g96
tp228
a(I2
g114
tp229
a(I3
g114
tp230
a(I0
g114
tp231
a(I1
g96
tp232
a(I2
g118
tp233
a(I3
g114
tp234
a(I0
g118
tp235
a(I1
g96
tp236
a(I2
g118
tp237
a(I3
g100
tp238
a(I0
g100
tp239
a(I1
g118
tp240
a(I2
g114
tp241
a(I3
g96
tp242
a(I0
g118
tp243
a(I1
g118
tp244
a(I2
g114
tp245
a(I3
g118
tp246
a(I0
g94
tp247
a(I1
g96
tp248
a(I2
g114
tp249
a(I3
g96
tp250
a(I0
g94
tp251
a(I1
g96
tp252
a(I2
g100
tp253
a(I3
g100
tp254
a(I0
g100
tp255
a(I1
g96
tp256
a(I2
g96
tp257
a(I3
g100
tp258
a(I0
g96
tp259
a(I1
g96
tp260
a(I2
g96
tp261
a(I3
g96
tp262
a(I0
g96
tp263
a(I1
g96
tp264
a(I2
g118
tp265
a(I3
g100
tp266
a(I0
g114
tp267
a(I1
g96
tp268
a(I2
g96
tp269
a(I3
g100
tp270
a(I0
g114
tp271
a(I1
g96
tp272
a(I2
g100
tp273
a(I3
g100
tp274
a(I0
g94
tp275
a(I1
g100
tp276
a(I2
g114
tp277
a(I3
g100
tp278
a(I0
g118
tp279
a(I1
g114
tp280
a(I2
g118
tp281
a(I3
g96
tp282
a(I0
g96
tp283
a(I1
g114
tp284
a(I2
g96
tp285
a(I3
g96
tp286
a(I0
g114
tp287
a(I1
g118
tp288
a(I2
g100
tp289
a(I3
g100
tp290
a(I0
g94
tp291
a(I1
g114
tp292
a(I2
g100
tp293
a(I3
g100
tp294
a(I0
g114
tp295
a(I1
g114
tp296
a(I2
g96
tp297
a(I3
g96
tp298
a(I0
g96
tp299
a(I1
g114
tp300
a(I2
g100
tp301
a(I3
g96
tp302
a(I0
g100
tp303
a(I1
g114
tp304
a(I2
g114
tp305
a(I3
g96
tp306
a(I0
g96
tp307
a(I1
g114
tp308
a(I2
g118
tp309
a(I3
g100
tp310
a(I0
g118
tp311
a(I1
g100
tp312
a(I2
g118
tp313
a(I3
g96
tp314
a(I0
g96
tp315
a(I1
g96
tp316
a(I2
g118
tp317
a(I3
g96
tp318
a(I0
g114
tp319
a(I1
g118
tp320
a(I2
g114
tp321
a(I3
g118
tp322
as.