(dp1
S'layout'
p2
(ilayout
Layout
p3
(dp4
S'numGhosts'
p5
I3
sS'food'
p6
(igame
Grid
p7
(dp8
S'CELLS_PER_INT'
p9
I30
sS'width'
p10
I25
sS'data'
p11
(lp12
(lp13
I00
aI00
aI00
aI00
aI00
aI00
aI00
aI00
aI00
aI00
aI00
aI00
aa(lp14
I00
aI00
aI00
aI00
aI00
aI01
aI00
aI00
aI00
aI00
aI01
aI00
aa(lp15
I00
aI00
aI00
aI01
aI00
aI01
aI00
aI01
aI00
aI00
aI00
aI00
aa(lp16
I00
aI00
aI00
aI00
aI00
aI00
aI00
aI01
aI00
aI00
aI01
aI00
aa(lp17
I00
aI00
aI00
aI00
aI00
aI00
aI01
aI01
aI00
aI00
aI00
aI00
aa(lp18
I00
aI00
aI01
aI00
aI00
aI01
aI00
aI01
aI01
aI00
aI00
aI00
aa(lp19
I00
aI00
aI01
aI01
aI00
aI01
aI01
aI01
aI00
aI00
aI00
aI00
aa(lp20
I00
aI00
aI00
aI00
aI00
aI01
aI00
aI01
aI01
aI00
aI00
aI00
aa(lp21
I00
aI01
aI01
aI01
aI01
aI00
aI00
aI00
aI00
aI00
aI01
aI00
aa(lp22
I00
aI01
aI01
aI00
aI00
aI01
aI01
aI01
aI00
aI00
aI00
aI00
aa(lp23
I00
aI00
aI00
aI01
aI00
aI00
aI00
aI01
aI00
aI00
aI00
aI00
aa(lp24
I00
aI00
aI01
aI00
aI00
aI00
aI00
aI01
aI00
aI00
aI00
aI00
aa(lp25
I00
aI01
aI00
aI00
aI00
aI01
aI00
aI00
aI00
aI00
aI01
aI00
aa(lp26
I00
aI01
aI01
aI01
aI01
aI00
aI01
aI01
aI00
aI00
aI00
aI00
aa(lp27
I00
aI01
aI00
aI01
aI01
aI01
aI00
aI01
aI01
aI00
aI00
aI00
aa(lp28
I00
aI01
aI00
aI00
aI01
aI01
aI00
aI00
aI00
aI00
aI01
aI00
aa(lp29
I00
aI01
aI00
aI01
aI01
aI01
aI00
aI01
aI00
aI00
aI00
aI00
aa(lp30
I00
aI00
aI00
aI00
aI01
aI01
aI01
aI01
aI00
aI00
aI01
aI00
aa(lp31
I00
aI00
aI00
aI00
aI00
aI00
aI00
aI00
aI00
aI01
aI00
aI00
aa(lp32
I00
aI00
aI00
aI01
aI00
aI01
aI00
aI01
aI01
aI00
aI00
aI00
aa(lp33
I00
aI01
aI00
aI01
aI00
aI00
aI00
aI01
aI00
aI00
aI00
aI00
aa(lp34
I00
aI00
aI00
aI01
aI00
aI01
aI00
aI00
aI01
aI01
aI00
aI00
aa(lp35
I00
aI00
aI00
aI00
aI00
aI01
aI00
aI00
aI01
aI00
aI00
aI00
aa(lp36
I00
aI00
aI01
aI00
aI00
aI00
aI00
aI00
aI01
aI00
aI00
aI00
aa(lp37
I00
aI00
aI00
aI00
aI00
aI00
aI00
aI00
aI00
aI00
aI00
aI00
aasS'height'
p38
I12
sbsS'agentPositions'
p39
(lp40
(I01
(I1
I2
tp41
tp42
a(I00
(I21
I10
tp43
tp44
a(I00
(I22
I10
tp45
tp46
a(I00
(I23
I10
tp47
tp48
asg38
I12
sg10
I25
sS'walls'
p49
(igame
Grid
p50
(dp51
g9
I30
sg10
I25
sg11
(lp52
(lp53
I01
aI01
aI01
aI01
aI01
aI01
aI01
aI01
aI01
aI01
aI01
aI01
aa(lp54
I01
aI00
aI00
aI00
aI01
aI00
aI00
aI00
aI01
aI00
aI00
aI01
aa(lp55
I01
aI00
aI00
aI00
aI01
aI00
aI00
aI00
aI01
aI00
aI00
aI01
aa(lp56
I01
aI00
aI00
aI00
aI01
aI00
aI00
aI00
aI01
aI00
aI00
aI01
aa(lp57
I01
aI00
aI00
aI00
aI01
aI00
aI00
aI00
aI01
aI01
aI00
aI01
aa(lp58
I01
aI00
aI00
aI00
aI01
aI00
aI00
aI00
aI00
aI01
aI00
aI01
aa(lp59
I01
aI00
aI00
aI00
aI01
aI00
aI00
aI00
aI00
aI01
aI00
aI01
aa(lp60
I01
aI01
aI00
aI01
aI01
aI00
aI01
aI00
aI00
aI00
aI00
aI01
aa(lp61
I01
aI00
aI00
aI00
aI00
aI00
aI01
aI00
aI00
aI00
aI00
aI01
aa(lp62
I01
aI00
aI00
aI00
aI00
aI00
aI00
aI00
aI00
aI01
aI00
aI01
aa(lp63
I01
aI00
aI00
aI00
aI00
aI00
aI00
aI00
aI00
aI01
aI01
aI01
aa(lp64
I01
aI00
aI00
aI00
aI00
aI00
aI00
aI00
aI00
aI00
aI00
aI01
aa(lp65
I01
aI00
aI00
aI00
aI00
aI00
aI00
aI00
aI00
aI00
aI00
aI01
aa(lp66
I01
aI00
aI00
aI00
aI00
aI01
aI00
aI00
aI00
aI00
aI00
aI01
aa(lp67
I01
aI00
aI01
aI00
aI00
aI00
aI00
aI00
aI00
aI00
aI00
aI01
aa(lp68
I01
aI00
aI01
aI00
aI00
aI00
aI00
aI00
aI00
aI00
aI00
aI01
aa(lp69
I01
aI00
aI00
aI00
aI00
aI00
aI00
aI00
aI01
aI00
aI01
aI01
aa(lp70
I01
aI00
aI00
aI00
aI00
aI00
aI00
aI00
aI01
aI00
aI00
aI01
aa(lp71
I01
aI00
aI00
aI00
aI00
aI00
aI01
aI01
aI01
aI00
aI00
aI01
aa(lp72
I01
aI00
aI00
aI00
aI00
aI00
aI00
aI00
aI00
aI00
aI00
aI01
aa(lp73
I01
aI00
aI00
aI00
aI00
aI00
aI01
aI00
aI00
aI00
aI00
aI01
aa(lp74
I01
aI00
aI00
aI00
aI00
aI00
aI01
aI00
aI00
aI00
aI00
aI01
aa(lp75
I01
aI00
aI00
aI00
aI01
aI00
aI01
aI00
aI00
aI00
aI00
aI01
aa(lp76
I01
aI00
aI00
aI01
aI01
aI00
aI01
aI00
aI00
aI00
aI00
aI01
aa(lp77
I01
aI01
aI01
aI01
aI01
aI01
aI01
aI01
aI01
aI01
aI01
aI01
aasg38
I12
sbsS'layoutText'
p78
(lp79
S'%%%%%%%%%%%%%%%%%%%%%%%%%'
p80
aS'%. .    . % .  .%.   GGG%'
p81
aS'%   %%%  %%       .  .  %'
p82
aS'%%%%%. .      . %%%. ...%'
p83
aS'% ...... ... .. ..%..   %'
p84
aS'%   . .%%.   .   .% %%%%%'
p85
aS'%..  ... .  .%.... . .. %'
p86
aS'%%%%%%%%.    .....    %%%'
p87
aS'% .   .%. .  .. .  ... %%'
p88
aS'%P   .. .. . .%%       .%'
p89
aS'%      %..  .....   .   %'
p90
aS'%%%%%%%%%%%%%%%%%%%%%%%%%'
p91
asbsS'actions'
p92
(lp93
(I0
S'Stop'
p94
tp95
a(I1
S'West'
p96
tp97
a(I2
g96
tp98
a(I3
g96
tp99
a(I0
S'South'
p100
tp101
a(I1
g100
tp102
a(I2
g96
tp103
a(I3
g96
tp104
a(I0
S'North'
p105
tp106
a(I1
g100
tp107
a(I2
g96
tp108
a(I3
g96
tp109
a(I0
g105
tp110
a(I1
g100
tp111
a(I2
g96
tp112
a(I3
g96
tp113
a(I0
g100
tp114
a(I1
g96
tp115
a(I2
g96
tp116
a(I3
g96
tp117
a(I0
g100
tp118
a(I1
g100
tp119
a(I2
g100
tp120
a(I3
g96
tp121
a(I0
g94
tp122
a(I1
g100
tp123
a(I2
g96
tp124
a(I3
g100
tp125
a(I0
S'East'
p126
tp127
a(I1
g96
tp128
a(I2
g96
tp129
a(I3
g96
tp130
a(I0
g96
tp131
a(I1
g100
tp132
a(I2
g96
tp133
a(I3
g96
tp134
a(I0
g94
tp135
a(I1
g96
tp136
a(I2
g105
tp137
a(I3
g105
tp138
a(I0
g94
tp139
a(I1
g96
tp140
a(I2
g96
tp141
a(I3
g96
tp142
a(I0
g105
tp143
a(I1
g96
tp144
a(I2
g96
tp145
a(I3
g96
tp146
a(I0
g100
tp147
a(I1
g96
tp148
a(I2
g96
tp149
a(I3
g96
tp150
a(I0
g105
tp151
a(I1
g96
tp152
a(I2
g100
tp153
a(I3
g96
tp154
a(I0
g100
tp155
a(I1
g96
tp156
a(I2
g100
tp157
a(I3
g100
tp158
a(I0
g126
tp159
a(I1
g96
tp160
a(I2
g96
tp161
a(I3
g126
tp162
a(I0
g126
tp163
a(I1
g105
tp164
a(I2
g100
tp165
a(I3
g105
tp166
a(I0
g126
tp167
a(I1
g105
tp168
a(I2
g96
tp169
a(I3
g96
tp170
a(I0
g94
tp171
a(I1
g105
tp172
a(I2
g105
tp173
a(I3
g100
tp174
a(I0
g96
tp175
a(I1
g105
tp176
a(I2
g126
tp177
a(I3
g100
tp178
a(I0
g94
tp179
a(I1
g105
tp180
a(I2
g126
tp181
a(I3
g96
tp182
a(I0
g126
tp183
a(I1
g105
tp184
a(I2
g105
tp185
a(I3
g96
tp186
a(I0
g105
tp187
a(I1
g126
tp188
a(I2
g105
tp189
a(I3
g96
tp190
a(I0
g105
tp191
a(I1
g100
tp192
a(I2
g126
tp193
a(I3
g105
tp194
a(I0
g96
tp195
a(I1
g96
tp196
a(I2
g126
tp197
a(I3
g105
tp198
a(I0
g96
tp199
a(I1
g105
tp200
a(I2
g100
tp201
a(I3
g96
tp202
a(I0
g100
tp203
a(I1
g126
tp204
a(I2
g96
tp205
a(I3
g100
tp206
a(I0
g126
tp207
a(I1
g100
tp208
a(I2
g105
tp209
a(I3
g100
tp210
a(I0
g126
tp211
a(I1
g96
tp212
a(I2
g96
tp213
a(I3
g96
tp214
a(I0
g126
tp215
a(I1
g105
tp216
a(I2
g100
tp217
a(I3
g96
tp218
a(I0
g126
tp219
a(I1
g126
tp220
a(I2
g100
tp221
a(I3
g100
tp222
a(I0
g105
tp223
a(I1
g100
tp224
a(I2
g96
tp225
a(I3
g96
tp226
a(I0
g94
tp227
a(I1
g96
tp228
a(I2
g100
tp229
a(I3
g96
tp230
a(I0
g94
tp231
a(I1
g105
tp232
a(I2
g100
tp233
a(I3
g100
tp234
a(I0
g96
tp235
a(I1
g126
tp236
a(I2
g100
tp237
a(I3
g100
tp238
a(I0
g94
tp239
a(I1
g126
tp240
a(I2
g100
tp241
a(I3
g126
tp242
a(I0
g96
tp243
a(I1
g126
tp244
a(I2
g100
tp245
a(I3
g126
tp246
a(I0
g100
tp247
a(I1
g126
tp248
a(I2
g100
tp249
a(I3
g105
tp250
a(I0
g100
tp251
a(I1
g100
tp252
a(I2
g100
tp253
a(I3
g105
tp254
a(I0
g105
tp255
a(I1
g96
tp256
a(I2
g96
tp257
a(I3
g96
tp258
a(I0
g100
tp259
a(I1
g96
tp260
a(I2
g105
tp261
a(I3
g100
tp262
a(I0
g105
tp263
a(I1
g105
tp264
a(I2
g126
tp265
a(I3
g96
tp266
a(I0
g126
tp267
a(I1
g96
tp268
a(I2
g105
tp269
a(I3
g96
tp270
a(I0
g94
tp271
a(I1
g96
tp272
a(I2
g105
tp273
a(I3
g100
tp274
a(I0
g96
tp275
a(I1
g100
tp276
a(I2
g105
tp277
a(I3
g96
tp278
a(I0
g100
tp279
a(I1
g100
tp280
a(I2
g105
tp281
a(I3
g105
tp282
a(I0
g96
tp283
a(I1
g96
tp284
a(I2
g105
tp285
a(I3
g126
tp286
a(I0
g96
tp287
a(I1
g100
tp288
a(I2
g105
tp289
a(I3
g105
tp290
a(I0
g105
tp291
a(I1
g126
tp292
a(I2
g126
tp293
a(I3
g126
tp294
a(I0
g126
tp295
a(I1
g105
tp296
a(I2
g105
tp297
a(I3
g126
tp298
a(I0
g105
tp299
a(I1
g105
tp300
a(I2
g105
tp301
a(I3
g126
tp302
a(I0
g100
tp303
a(I1
g105
tp304
a(I2
g126
tp305
a(I3
g126
tp306
a(I0
g105
tp307
a(I1
g126
tp308
a(I2
g100
tp309
a(I3
g126
tp310
a(I0
g96
tp311
a(I1
g126
tp312
a(I2
g96
tp313
a(I3
g105
tp314
a(I0
g94
tp315
a(I1
g100
tp316
a(I2
g105
tp317
a(I3
g96
tp318
a(I0
g96
tp319
a(I1
g96
tp320
a(I2
g126
tp321
a(I3
g96
tp322
a(I0
g94
tp323
a(I1
g96
tp324
a(I2
g126
tp325
a(I3
g100
tp326
a(I0
g126
tp327
a(I1
g105
tp328
a(I2
g100
tp329
a(I3
g126
tp330
a(I0
g126
tp331
a(I1
g126
tp332
a(I2
g96
tp333
a(I3
g105
tp334
a(I0
g96
tp335
a(I1
g100
tp336
a(I2
g105
tp337
a(I3
g126
tp338
a(I0
g126
tp339
a(I1
g96
tp340
a(I2
g96
tp341
a(I3
g105
tp342
a(I0
g96
tp343
a(I1
g105
tp344
a(I2
g100
tp345
a(I3
g126
tp346
a(I0
g126
tp347
a(I1
g126
tp348
a(I2
g100
tp349
a(I3
g100
tp350
a(I0
g96
tp351
a(I1
g100
tp352
a(I2
g96
tp353
a(I3
g126
tp354
a(I0
g94
tp355
a(I1
g96
tp356
a(I2
g100
tp357
a(I3
g126
tp358
a(I0
g94
tp359
a(I1
g105
tp360
a(I2
g100
tp361
a(I3
g100
tp362
a(I0
g94
tp363
a(I1
g126
tp364
a(I2
g126
tp365
a(I3
g126
tp366
a(I0
g94
tp367
a(I1
g100
tp368
a(I2
g105
tp369
a(I3
g105
tp370
a(I0
g94
tp371
a(I1
g96
tp372
a(I2
g96
tp373
a(I3
g105
tp374
a(I0
g96
tp375
a(I1
g105
tp376
a(I2
g105
tp377
a(I3
g105
tp378
a(I0
g126
tp379
a(I1
g126
tp380
a(I2
g96
tp381
a(I3
g126
tp382
a(I0
g100
tp383
a(I1
g100
tp384
a(I2
g100
tp385
a(I3
g126
tp386
a(I0
g100
tp387
a(I1
g96
tp388
a(I2
g126
tp389
a(I3
g126
tp390
a(I0
g94
tp391
a(I1
g105
tp392
a(I2
g105
tp393
a(I3
g100
tp394
a(I0
g96
tp395
a(I1
g126
tp396
a(I2
g126
tp397
a(I3
g96
tp398
a(I0
g105
tp399
a(I1
g100
tp400
a(I2
g105
tp401
a(I3
g96
tp402
a(I0
g105
tp403
a(I1
g96
tp404
a(I2
g105
tp405
a(I3
g105
tp406
a(I0
g100
tp407
a(I1
g105
tp408
a(I2
g126
tp409
a(I3
g126
tp410
a(I0
g105
tp411
a(I1
g126
tp412
a(I2
g126
tp413
a(I3
g100
tp414
a(I0
g94
tp415
a(I1
g126
tp416
a(I2
g126
tp417
a(I3
g96
tp418
a(I0
g94
tp419
a(I1
g100
tp420
a(I2
g100
tp421
a(I3
g96
tp422
a(I0
g126
tp423
a(I1
g96
tp424
a(I2
g96
tp425
a(I3
g105
tp426
a(I0
g100
tp427
a(I1
g96
tp428
a(I2
g96
tp429
a(I3
g126
tp430
a(I0
g96
tp431
a(I1
g105
tp432
a(I2
g96
tp433
a(I3
g100
tp434
a(I0
g126
tp435
a(I1
g126
tp436
a(I2
g105
tp437
a(I3
g96
tp438
a(I0
g94
tp439
a(I1
g126
tp440
a(I2
g126
tp441
a(I3
g105
tp442
a(I0
g94
tp443
a(I1
g100
tp444
a(I2
g100
tp445
a(I3
g126
tp446
a(I0
g96
tp447
a(I1
g96
tp448
a(I2
g100
tp449
a(I3
g100
tp450
a(I0
g94
tp451
a(I1
g105
tp452
a(I2
g96
tp453
a(I3
g96
tp454
a(I0
g126
tp455
a(I1
g96
tp456
a(I2
g96
tp457
a(I3
g105
tp458
a(I0
g96
tp459
a(I1
g100
tp460
a(I2
g96
tp461
a(I3
g126
tp462
a(I0
g100
tp463
a(I1
g126
tp464
a(I2
g100
tp465
a(I3
g100
tp466
a(I0
g126
tp467
a(I1
g105
tp468
a(I2
g100
tp469
a(I3
g100
tp470
a(I0
g126
tp471
a(I1
g96
tp472
a(I2
g100
tp473
a(I3
g126
tp474
a(I0
g105
tp475
a(I1
g100
tp476
a(I2
g96
tp477
a(I3
g100
tp478
a(I0
g126
tp479
a(I1
g126
tp480
a(I2
g100
tp481
a(I3
g96
tp482
a(I0
g126
tp483
a(I1
g105
tp484
a(I2
g100
tp485
a(I3
g96
tp486
a(I0
g100
tp487
a(I1
g96
tp488
a(I2
g126
tp489
a(I3
g96
tp490
a(I0
g96
tp491
a(I1
g100
tp492
a(I2
g105
tp493
a(I3
g100
tp494
a(I0
g126
tp495
a(I1
g100
tp496
a(I2
g126
tp497
a(I3
g126
tp498
a(I0
g126
tp499
a(I1
g96
tp500
a(I2
g105
tp501
a(I3
g100
tp502
a(I0
g96
tp503
a(I1
g96
tp504
a(I2
g105
tp505
a(I3
g96
tp506
a(I0
g126
tp507
a(I1
g96
tp508
a(I2
g105
tp509
a(I3
g100
tp510
a(I0
g96
tp511
a(I1
g105
tp512
a(I2
g105
tp513
a(I3
g96
tp514
a(I0
g105
tp515
a(I1
g105
tp516
a(I2
g126
tp517
a(I3
g105
tp518
a(I0
g96
tp519
a(I1
g126
tp520
a(I2
g105
tp521
a(I3
g96
tp522
a(I0
g96
tp523
a(I1
g96
tp524
a(I2
g105
tp525
a(I3
g96
tp526
a(I0
g105
tp527
a(I1
g100
tp528
a(I2
g126
tp529
a(I3
g96
tp530
a(I0
g126
tp531
a(I1
g100
tp532
a(I2
g100
tp533
a(I3
g96
tp534
a(I0
g100
tp535
a(I1
g126
tp536
a(I2
g96
tp537
a(I3
g96
tp538
a(I0
g94
tp539
a(I1
g126
tp540
a(I2
g105
tp541
a(I3
g96
tp542
a(I0
g100
tp543
a(I1
g100
tp544
a(I2
g126
tp545
a(I3
g105
tp546
a(I0
g105
tp547
a(I1
g96
tp548
a(I2
g126
tp549
a(I3
g105
tp550
a(I0
g100
tp551
a(I1
g105
tp552
a(I2
g126
tp553
a(I3
g126
tp554
a(I0
g96
tp555
a(I1
g126
tp556
a(I2
g126
tp557
a(I3
g126
tp558
a(I0
g105
tp559
a(I1
g100
tp560
a(I2
g100
tp561
a(I3
g105
tp562
a(I0
g96
tp563
a(I1
g100
tp564
a(I2
g96
tp565
a(I3
g126
tp566
a(I0
g96
tp567
a(I1
g100
tp568
a(I2
g105
tp569
a(I3
g126
tp570
a(I0
g105
tp571
a(I1
g126
tp572
a(I2
g96
tp573
a(I3
g105
tp574
a(I0
g126
tp575
a(I1
g105
tp576
a(I2
g96
tp577
a(I3
g105
tp578
a(I0
g96
tp579
a(I1
g96
tp580
a(I2
g96
tp581
a(I3
g126
tp582
a(I0
g100
tp583
a(I1
g96
tp584
a(I2
g100
tp585
a(I3
g126
tp586
a(I0
g126
tp587
a(I1
g105
tp588
a(I2
g100
tp589
a(I3
g96
tp590
a(I0
g94
tp591
a(I1
g105
tp592
a(I2
g96
tp593
a(I3
g96
tp594
a(I0
g94
tp595
a(I1
g126
tp596
a(I2
g96
tp597
a(I3
g96
tp598
a(I0
g96
tp599
a(I1
g100
tp600
a(I2
g100
tp601
a(I3
g96
tp602
a(I0
g126
tp603
a(I1
g100
tp604
a(I2
g126
tp605
a(I3
g96
tp606
a(I0
g94
tp607
a(I1
g126
tp608
a(I2
g105
tp609
a(I3
g96
tp610
a(I0
g94
tp611
a(I1
g105
tp612
a(I2
g96
tp613
a(I3
g96
tp614
a(I0
g94
tp615
a(I1
g105
tp616
a(I2
g100
tp617
a(I3
g96
tp618
a(I0
g126
tp619
a(I1
g96
tp620
a(I2
g126
tp621
a(I3
g100
tp622
a(I0
g105
tp623
a(I1
g100
tp624
a(I2
g105
tp625
a(I3
g126
tp626
a(I0
g94
tp627
a(I1
g100
tp628
a(I2
g96
tp629
a(I3
g105
tp630
a(I0
g100
tp631
a(I1
g126
tp632
a(I2
g96
tp633
a(I3
g126
tp634
a(I0
g100
tp635
a(I1
g105
tp636
a(I2
g105
tp637
a(I3
g100
tp638
a(I0
g126
tp639
a(I1
g105
tp640
a(I2
g105
tp641
a(I3
g96
tp642
a(I0
g96
tp643
a(I1
g96
tp644
a(I2
g126
tp645
a(I3
g105
tp646
a(I0
g96
tp647
a(I1
g96
tp648
a(I2
g96
tp649
a(I3
g126
tp650
a(I0
g94
tp651
a(I1
g100
tp652
a(I2
g100
tp653
a(I3
g126
tp654
a(I0
g126
tp655
a(I1
g96
tp656
a(I2
g96
tp657
a(I3
g126
tp658
a(I0
g105
tp659
a(I1
g105
tp660
a(I2
g105
tp661
a(I3
g126
tp662
a(I0
g94
tp663
a(I1
g126
tp664
a(I2
g126
tp665
a(I3
g126
tp666
a(I0
g126
tp667
a(I1
g126
tp668
a(I2
g100
tp669
a(I3
g126
tp670
a(I0
g105
tp671
a(I1
g126
tp672
a(I2
g96
tp673
a(I3
g100
tp674
a(I0
g96
tp675
a(I1
g105
tp676
a(I2
g100
tp677
a(I3
g96
tp678
a(I0
g96
tp679
a(I1
g126
tp680
a(I2
g96
tp681
a(I3
g100
tp682
a(I0
g126
tp683
a(I1
g105
tp684
a(I2
g96
tp685
a(I3
g96
tp686
a(I0
g126
tp687
a(I1
g96
tp688
a(I2
g100
tp689
a(I3
g96
tp690
a(I0
g96
tp691
a(I1
g100
tp692
a(I2
g96
tp693
a(I3
g100
tp694
a(I0
g96
tp695
a(I1
g100
tp696
a(I2
g96
tp697
a(I3
g96
tp698
a(I0
g100
tp699
a(I1
g96
tp700
a(I2
g96
tp701
a(I3
g96
tp702
a(I0
g105
tp703
a(I1
g100
tp704
a(I2
g100
tp705
a(I3
g96
tp706
a(I0
g94
tp707
a(I1
g96
tp708
a(I2
g100
tp709
a(I3
g100
tp710
a(I0
g126
tp711
a(I1
g105
tp712
a(I2
g96
tp713
a(I3
g126
tp714
a(I0
g96
tp715
a(I1
g126
tp716
a(I2
g105
tp717
a(I3
g105
tp718
a(I0
g126
tp719
a(I1
g126
tp720
a(I2
g126
tp721
a(I3
g126
tp722
a(I0
g100
tp723
a(I1
g105
tp724
a(I2
g100
tp725
a(I3
g126
tp726
a(I0
g94
tp727
a(I1
g105
tp728
a(I2
g126
tp729
a(I3
g105
tp730
a(I0
g96
tp731
a(I1
g126
tp732
a(I2
g126
tp733
a(I3
g126
tp734
a(I0
g105
tp735
a(I1
g126
tp736
a(I2
g126
tp737
a(I3
g126
tp738
a(I0
g94
tp739
a(I1
g126
tp740
a(I2
g105
tp741
a(I3
g105
tp742
a(I0
g94
tp743
a(I1
g100
tp744
a(I2
g96
tp745
a(I3
g105
tp746
a(I0
g96
tp747
a(I1
g96
tp748
a(I2
g96
tp749
a(I3
g96
tp750
a(I0
g100
tp751
a(I1
g96
tp752
a(I2
g96
tp753
a(I3
g96
tp754
a(I0
g126
tp755
a(I1
g96
tp756
a(I2
g100
tp757
a(I3
g96
tp758
a(I0
g100
tp759
a(I1
g100
tp760
a(I2
g126
tp761
a(I3
g96
tp762
a(I0
g94
tp763
a(I1
g100
tp764
a(I2
g105
tp765
a(I3
g96
tp766
a(I0
g94
tp767
a(I1
g100
tp768
a(I2
g96
tp769
a(I3
g100
tp770
a(I0
g105
tp771
a(I1
g96
tp772
a(I2
g100
tp773
a(I3
g126
tp774
a(I0
g100
tp775
a(I1
g100
tp776
a(I2
g126
tp777
a(I3
g105
tp778
a(I0
g126
tp779
a(I1
g100
tp780
a(I2
g105
tp781
a(I3
g126
tp782
a(I0
g94
tp783
a(I1
g100
tp784
a(I2
g96
tp785
a(I3
g126
tp786
a(I0
g94
tp787
a(I1
g96
tp788
a(I2
g100
tp789
a(I3
g126
tp790
a(I0
g96
tp791
a(I1
g105
tp792
a(I2
g126
tp793
a(I3
g126
tp794
a(I0
g96
tp795
a(I1
g105
tp796
a(I2
g126
tp797
a(I3
g126
tp798
a(I0
g105
tp799
a(I1
g96
tp800
a(I2
g126
tp801
a(I3
g100
tp802
a(I0
g105
tp803
a(I1
g100
tp804
a(I2
g126
tp805
a(I3
g96
tp806
a(I0
g94
tp807
a(I1
g126
tp808
a(I2
g126
tp809
a(I3
g105
tp810
a(I0
g94
tp811
a(I1
g126
tp812
a(I2
g126
tp813
a(I3
g96
tp814
a(I0
g94
tp815
a(I1
g105
tp816
a(I2
g100
tp817
a(I3
g96
tp818
a(I0
g94
tp819
a(I1
g105
tp820
a(I2
g100
tp821
a(I3
g96
tp822
a(I0
g126
tp823
a(I1
g105
tp824
a(I2
g100
tp825
a(I3
g96
tp826
a(I0
g100
tp827
a(I1
g105
tp828
a(I2
g96
tp829
a(I3
g96
tp830
a(I0
g105
tp831
a(I1
g96
tp832
a(I2
g96
tp833
a(I3
g96
tp834
a(I0
g94
tp835
a(I1
g96
tp836
a(I2
g96
tp837
a(I3
g100
tp838
a(I0
g100
tp839
a(I1
g105
tp840
a(I2
g105
tp841
a(I3
g126
tp842
a(I0
g105
tp843
a(I1
g105
tp844
a(I2
g96
tp845
a(I3
g105
tp846
a(I0
g96
tp847
a(I1
g126
tp848
a(I2
g100
tp849
a(I3
g126
tp850
a(I0
g94
tp851
a(I1
g96
tp852
a(I2
g96
tp853
a(I3
g100
tp854
a(I0
g94
tp855
a(I1
g100
tp856
a(I2
g96
tp857
a(I3
g96
tp858
a(I0
g94
tp859
a(I1
g100
tp860
a(I2
g96
tp861
a(I3
g105
tp862
a(I0
g94
tp863
a(I1
g126
tp864
a(I2
g105
tp865
as.