(dp1
S'layout'
p2
(ilayout
Layout
p3
(dp4
S'numGhosts'
p5
I1
sS'food'
p6
(igame
Grid
p7
(dp8
S'CELLS_PER_INT'
p9
I30
sS'width'
p10
I10
sS'data'
p11
(lp12
(lp13
I00
aI00
aI00
aI00
aI00
aI00
aI00
aI00
aI00
aI00
aa(lp14
I00
aI00
aI00
aI00
aI00
aI00
aI00
aI00
aI00
aI00
aa(lp15
I00
aI01
aI00
aI00
aI00
aI00
aI01
aI00
aI00
aI00
aa(lp16
I00
aI00
aI00
aI01
aI01
aI01
aI01
aI00
aI01
aI00
aa(lp17
I00
aI00
aI00
aI01
aI01
aI00
aI01
aI00
aI00
aI00
aa(lp18
I00
aI00
aI00
aI00
aI00
aI01
aI01
aI01
aI00
aI00
aa(lp19
I00
aI00
aI00
aI01
aI00
aI00
aI00
aI00
aI00
aI00
aa(lp20
I00
aI00
aI00
aI00
aI01
aI01
aI01
aI01
aI01
aI00
aa(lp21
I00
aI01
aI00
aI00
aI00
aI00
aI00
aI00
aI00
aI00
aa(lp22
I00
aI00
aI00
aI00
aI00
aI00
aI00
aI00
aI00
aI00
aasS'height'
p23
I10
sbsS'agentPositions'
p24
(lp25
(I01
(I1
I3
tp26
tp27
a(I00
(I8
I8
tp28
tp29
asg23
I10
sg10
I10
sS'walls'
p30
(igame
Grid
p31
(dp32
g9
I30
sg10
I10
sg11
(lp33
(lp34
I01
aI01
aI01
aI01
aI01
aI01
aI01
aI01
aI01
aI01
aa(lp35
I01
aI00
aI01
aI00
aI01
aI01
aI00
aI00
aI00
aI01
aa(lp36
I01
aI00
aI01
aI00
aI00
aI01
aI00
aI01
aI00
aI01
aa(lp37
I01
aI00
aI00
aI00
aI00
aI00
aI00
aI00
aI00
aI01
aa(lp38
I01
aI01
aI01
aI00
aI00
aI00
aI00
aI01
aI01
aI01
aa(lp39
I01
aI00
aI00
aI00
aI01
aI00
aI00
aI00
aI00
aI01
aa(lp40
I01
aI00
aI00
aI00
aI00
aI00
aI01
aI01
aI00
aI01
aa(lp41
I01
aI00
aI00
aI01
aI00
aI00
aI00
aI00
aI00
aI01
aa(lp42
I01
aI00
aI01
aI01
aI00
aI01
aI01
aI00
aI00
aI01
aa(lp43
I01
aI01
aI01
aI01
aI01
aI01
aI01
aI01
aI01
aI01
aasg23
I10
sbsS'layoutText'
p44
(lp45
S'%%%%%%%%%%'
p46
aS'%  .%  .G%'
p47
aS'% % %.%. %'
p48
aS'% ....%.%%'
p49
aS'%%%. . .%%'
p50
aS'%% ..% . %'
p51
aS'%P .. .%%%'
p52
aS'%%% %   %%'
p53
aS'% . %   .%'
p54
aS'%%%%%%%%%%'
p55
asbsS'actions'
p56
(lp57
(I0
S'East'
p58
tp59
a(I1
S'South'
p60
tp61
a(I0
g58
tp62
a(I1
S'West'
p63
tp64
a(I0
g58
tp65
a(I1
S'North'
p66
tp67
a(I0
g66
tp68
a(I1
g58
tp69
a(I0
g63
tp70
a(I1
g60
tp71
a(I0
g66
tp72
a(I1
g63
tp73
a(I0
g66
tp74
a(I1
g60
tp75
a(I0
g58
tp76
a(I1
g60
tp77
a(I0
g58
tp78
a(I1
g60
tp79
a(I0
g60
tp80
a(I1
g63
tp81
a(I0
S'Stop'
p82
tp83
a(I1
g66
tp84
a(I0
g66
tp85
a(I1
g63
tp86
a(I0
g66
tp87
a(I1
g63
tp88
a(I0
g66
tp89
a(I1
g63
tp90
a(I0
g58
tp91
a(I1
g60
tp92
a(I0
g58
tp93
a(I1
g63
tp94
a(I0
g60
tp95
a(I1
g60
tp96
a(I0
g82
tp97
a(I1
g63
tp98
a(I0
g60
tp99
a(I1
g58
tp100
a(I0
g60
tp101
a(I1
g58
tp102
a(I0
g60
tp103
a(I1
g60
tp104
a(I0
g63
tp105
a(I1
g60
tp106
a(I0
g60
tp107
a(I1
g63
tp108
a(I0
g60
tp109
a(I1
g63
tp110
a(I0
g82
tp111
a(I1
g58
tp112
a(I0
g82
tp113
a(I1
g58
tp114
a(I0
g82
tp115
a(I1
g66
tp116
a(I0
g63
tp117
a(I1
g66
tp118
a(I0
g58
tp119
a(I1
g63
tp120
a(I0
g82
tp121
a(I1
g66
tp122
a(I0
g82
tp123
a(I1
g58
tp124
a(I0
g66
tp125
a(I1
g60
tp126
a(I0
g63
tp127
a(I1
g60
tp128
a(I0
g82
tp129
a(I1
g60
tp130
a(I0
g58
tp131
a(I1
g63
tp132
a(I0
g63
tp133
a(I1
g63
tp134
a(I0
g82
tp135
a(I1
g58
tp136
a(I0
g60
tp137
a(I1
g58
tp138
a(I0
g58
tp139
a(I1
g66
tp140
a(I0
g82
tp141
a(I1
g66
tp142
a(I0
g60
tp143
a(I1
g63
tp144
a(I0
g58
tp145
a(I1
g63
tp146
a(I0
g82
tp147
a(I1
g58
tp148
a(I0
g82
tp149
a(I1
g58
tp150
a(I0
g63
tp151
a(I1
g60
tp152
a(I0
g82
tp153
a(I1
g60
tp154
a(I0
g66
tp155
a(I1
g63
tp156
a(I0
g82
tp157
a(I1
g63
tp158
a(I0
g82
tp159
a(I1
g58
tp160
a(I0
g63
tp161
a(I1
g58
tp162
a(I0
g58
tp163
a(I1
g66
tp164
a(I0
g60
tp165
a(I1
g66
tp166
a(I0
g63
tp167
a(I1
g63
tp168
a(I0
g66
tp169
a(I1
g63
tp170
a(I0
g82
tp171
a(I1
g58
tp172
a(I0
g66
tp173
a(I1
g66
tp174
a(I0
g82
tp175
a(I1
g58
tp176
a(I0
g63
tp177
a(I1
g60
tp178
a(I0
g58
tp179
a(I1
g63
tp180
a(I0
g60
tp181
a(I1
g63
tp182
a(I0
g82
tp183
a(I1
g58
tp184
a(I0
g66
tp185
a(I1
g66
tp186
a(I0
g82
tp187
a(I1
g58
tp188
a(I0
g63
tp189
a(I1
g60
tp190
a(I0
g58
tp191
a(I1
g60
tp192
a(I0
g58
tp193
a(I1
g60
tp194
a(I0
g82
tp195
a(I1
g63
tp196
a(I0
g82
tp197
a(I1
g63
tp198
a(I0
g60
tp199
a(I1
g58
tp200
a(I0
g58
tp201
a(I1
g58
tp202
a(I0
g60
tp203
a(I1
g66
tp204
a(I0
g63
tp205
a(I1
g66
tp206
a(I0
g58
tp207
a(I1
g63
tp208
a(I0
g58
tp209
a(I1
g63
tp210
a(I0
g63
tp211
a(I1
g58
tp212
a(I0
g82
tp213
a(I1
g58
tp214
a(I0
g63
tp215
a(I1
g60
tp216
a(I0
g63
tp217
a(I1
g60
tp218
a(I0
g66
tp219
a(I1
g63
tp220
a(I0
g82
tp221
a(I1
g63
tp222
a(I0
g60
tp223
a(I1
g58
tp224
a(I0
g66
tp225
a(I1
g58
tp226
a(I0
g60
tp227
a(I1
g66
tp228
a(I0
g58
tp229
a(I1
g66
tp230
a(I0
g82
tp231
a(I1
g63
tp232
a(I0
g82
tp233
a(I1
g63
tp234
a(I0
g58
tp235
a(I1
g58
tp236
a(I0
g82
tp237
a(I1
g66
tp238
a(I0
g82
tp239
a(I1
g58
tp240
a(I0
g82
tp241
a(I1
g60
tp242
a(I0
g82
tp243
a(I1
g60
tp244
a(I0
g58
tp245
a(I1
g60
tp246
a(I0
g63
tp247
a(I1
g63
tp248
a(I0
g82
tp249
a(I1
g63
tp250
a(I0
g82
tp251
a(I1
g58
tp252
a(I0
g63
tp253
a(I1
g58
tp254
a(I0
g82
tp255
a(I1
g66
tp256
a(I0
g63
tp257
a(I1
g66
tp258
a(I0
g58
tp259
a(I1
g63
tp260
a(I0
g82
tp261
a(I1
g63
tp262
a(I0
g82
tp263
a(I1
g58
tp264
a(I0
g66
tp265
a(I1
g58
tp266
a(I0
g58
tp267
a(I1
g60
tp268
a(I0
g60
tp269
a(I1
g60
tp270
a(I0
g58
tp271
a(I1
g63
tp272
a(I0
g63
tp273
a(I1
g63
tp274
a(I0
g66
tp275
a(I1
g58
tp276
a(I0
g63
tp277
a(I1
g58
tp278
a(I0
g63
tp279
a(I1
g66
tp280
a(I0
g66
tp281
a(I1
g66
tp282
a(I0
g82
tp283
a(I1
g63
tp284
a(I0
g60
tp285
a(I1
g66
tp286
a(I0
g82
tp287
a(I1
g58
tp288
a(I0
g82
tp289
a(I1
g60
tp290
a(I0
g82
tp291
a(I1
g60
tp292
a(I0
g66
tp293
a(I1
g60
tp294
a(I0
g63
tp295
a(I1
g63
tp296
a(I0
g58
tp297
a(I1
g63
tp298
a(I0
g58
tp299
a(I1
g58
tp300
a(I0
g66
tp301
a(I1
g58
tp302
a(I0
g60
tp303
a(I1
g66
tp304
a(I0
g60
tp305
a(I1
g66
tp306
a(I0
g60
tp307
a(I1
g63
tp308
a(I0
g82
tp309
a(I1
g66
tp310
a(I0
g63
tp311
a(I1
g58
tp312
a(I0
g58
tp313
a(I1
g60
tp314
a(I0
g66
tp315
a(I1
g63
tp316
a(I0
g82
tp317
a(I1
g63
tp318
a(I0
g60
tp319
a(I1
g58
tp320
a(I0
g82
tp321
a(I1
g66
tp322
a(I0
g63
tp323
a(I1
g58
tp324
a(I0
g66
tp325
a(I1
g60
tp326
a(I0
g82
tp327
a(I1
g63
tp328
a(I0
g82
tp329
a(I1
g63
tp330
a(I0
g58
tp331
a(I1
g58
tp332
a(I0
g82
tp333
a(I1
g66
tp334
a(I0
g63
tp335
a(I1
g58
tp336
a(I0
g58
tp337
a(I1
g60
tp338
a(I0
g58
tp339
a(I1
g63
tp340
a(I0
g63
tp341
a(I1
g63
tp342
a(I0
g82
tp343
a(I1
g58
tp344
a(I0
g58
tp345
a(I1
g58
tp346
a(I0
g60
tp347
a(I1
g60
tp348
a(I0
g66
tp349
a(I1
g60
tp350
a(I0
g60
tp351
a(I1
g63
tp352
a(I0
g82
tp353
a(I1
g63
tp354
a(I0
g63
tp355
a(I1
g58
tp356
a(I0
g66
tp357
a(I1
g58
tp358
a(I0
g66
tp359
a(I1
g66
tp360
a(I0
g82
tp361
a(I1
g66
tp362
a(I0
g63
tp363
a(I1
g63
tp364
a(I0
g60
tp365
a(I1
g63
tp366
a(I0
g82
tp367
a(I1
g58
tp368
a(I0
g66
tp369
a(I1
g58
tp370
a(I0
g58
tp371
a(I1
g66
tp372
a(I0
g66
tp373
a(I1
g63
tp374
a(I0
g60
tp375
a(I1
g60
tp376
a(I0
g82
tp377
a(I1
g63
tp378
a(I0
g60
tp379
a(I1
g58
tp380
a(I0
g63
tp381
a(I1
g66
tp382
a(I0
g60
tp383
a(I1
g58
tp384
a(I0
g66
tp385
a(I1
g66
tp386
a(I0
g58
tp387
a(I1
g66
tp388
a(I0
g63
tp389
a(I1
g66
tp390
a(I0
g66
tp391
a(I1
g66
tp392
a(I0
g63
tp393
a(I1
g63
tp394
a(I0
g63
tp395
a(I1
g63
tp396
a(I0
g82
tp397
a(I1
g60
tp398
a(I0
g66
tp399
a(I1
g60
tp400
a(I0
g82
tp401
a(I1
g58
tp402
a(I0
g63
tp403
a(I1
g58
tp404
a(I0
g60
tp405
a(I1
g60
tp406
a(I0
g58
tp407
a(I1
g60
tp408
a(I0
g60
tp409
a(I1
g58
tp410
a(I0
g66
tp411
a(I1
g60
tp412
a(I0
g63
tp413
a(I1
g63
tp414
a(I0
g66
tp415
a(I1
g63
tp416
a(I0
g82
tp417
a(I1
g66
tp418
as.