(dp1
S'layout'
p2
(ilayout
Layout
p3
(dp4
S'numGhosts'
p5
I1
sS'food'
p6
(igame
Grid
p7
(dp8
S'CELLS_PER_INT'
p9
I30
sS'width'
p10
I10
sS'data'
p11
(lp12
(lp13
I00
aI00
aI00
aI00
aI00
aI00
aI00
aI00
aI00
aI00
aa(lp14
I00
aI00
aI00
aI00
aI00
aI00
aI00
aI00
aI00
aI00
aa(lp15
I00
aI01
aI00
aI00
aI00
aI00
aI01
aI00
aI00
aI00
aa(lp16
I00
aI00
aI00
aI01
aI01
aI01
aI01
aI00
aI01
aI00
aa(lp17
I00
aI00
aI00
aI01
aI01
aI00
aI01
aI00
aI00
aI00
aa(lp18
I00
aI00
aI00
aI00
aI00
aI01
aI01
aI01
aI00
aI00
aa(lp19
I00
aI00
aI00
aI01
aI00
aI00
aI00
aI00
aI00
aI00
aa(lp20
I00
aI00
aI00
aI00
aI01
aI01
aI01
aI01
aI01
aI00
aa(lp21
I00
aI01
aI00
aI00
aI00
aI00
aI00
aI00
aI00
aI00
aa(lp22
I00
aI00
aI00
aI00
aI00
aI00
aI00
aI00
aI00
aI00
aasS'height'
p23
I10
sbsS'agentPositions'
p24
(lp25
(I01
(I1
I3
tp26
tp27
a(I00
(I8
I8
tp28
tp29
asg23
I10
sg10
I10
sS'walls'
p30
(igame
Grid
p31
(dp32
g9
I30
sg10
I10
sg11
(lp33
(lp34
I01
aI01
aI01
aI01
aI01
aI01
aI01
aI01
aI01
aI01
aa(lp35
I01
aI00
aI01
aI00
aI01
aI01
aI00
aI00
aI00
aI01
aa(lp36
I01
aI00
aI01
aI00
aI00
aI01
aI00
aI01
aI00
aI01
aa(lp37
I01
aI00
aI00
aI00
aI00
aI00
aI00
aI00
aI00
aI01
aa(lp38
I01
aI01
aI01
aI00
aI00
aI00
aI00
aI01
aI01
aI01
aa(lp39
I01
aI00
aI00
aI00
aI01
aI00
aI00
aI00
aI00
aI01
aa(lp40
I01
aI00
aI00
aI00
aI00
aI00
aI01
aI01
aI00
aI01
aa(lp41
I01
aI00
aI00
aI01
aI00
aI00
aI00
aI00
aI00
aI01
aa(lp42
I01
aI00
aI01
aI01
aI00
aI01
aI01
aI00
aI00
aI01
aa(lp43
I01
aI01
aI01
aI01
aI01
aI01
aI01
aI01
aI01
aI01
aasg23
I10
sbsS'layoutText'
p44
(lp45
S'%%%%%%%%%%'
p46
aS'%  .%  .G%'
p47
aS'% % %.%. %'
p48
aS'% ....%.%%'
p49
aS'%%%. . .%%'
p50
aS'%% ..% . %'
p51
aS'%P .. .%%%'
p52
aS'%%% %   %%'
p53
aS'% . %   .%'
p54
aS'%%%%%%%%%%'
p55
asbsS'actions'
p56
(lp57
(I0
S'East'
p58
tp59
a(I1
S'South'
p60
tp61
a(I0
g58
tp62
a(I1
S'West'
p63
tp64
a(I0
g58
tp65
a(I1
g60
tp66
a(I0
S'North'
p67
tp68
a(I1
g60
tp69
a(I0
g63
tp70
a(I1
g60
tp71
a(I0
g67
tp72
a(I1
g63
tp73
a(I0
g67
tp74
a(I1
g60
tp75
a(I0
g58
tp76
a(I1
g60
tp77
a(I0
g58
tp78
a(I1
g63
tp79
a(I0
g67
tp80
a(I1
g67
tp81
a(I0
S'Stop'
p82
tp83
a(I1
g63
tp84
a(I0
g82
tp85
a(I1
g63
tp86
a(I0
g82
tp87
a(I1
g63
tp88
a(I0
g67
tp89
a(I1
g63
tp90
a(I0
g58
tp91
a(I1
g58
tp92
a(I0
g58
tp93
a(I1
g67
tp94
a(I0
g60
tp95
a(I1
g58
tp96
a(I0
g60
tp97
a(I1
g60
tp98
a(I0
g60
tp99
a(I1
g63
tp100
a(I0
g60
tp101
a(I1
g63
tp102
a(I0
g63
tp103
a(I1
g58
tp104
a(I0
g60
tp105
a(I1
g58
tp106
a(I0
g63
tp107
a(I1
g60
tp108
a(I0
g60
tp109
a(I1
g60
tp110
a(I0
g82
tp111
a(I1
g63
tp112
a(I0
g67
tp113
a(I1
g63
tp114
a(I0
g82
tp115
a(I1
g58
tp116
a(I0
g58
tp117
a(I1
g58
tp118
a(I0
g67
tp119
a(I1
g67
tp120
a(I0
g58
tp121
a(I1
g67
tp122
a(I0
g58
tp123
a(I1
g67
tp124
a(I0
g63
tp125
a(I1
g63
tp126
a(I0
g82
tp127
a(I1
g60
tp128
a(I0
g58
tp129
a(I1
g63
tp130
a(I0
g82
tp131
a(I1
g58
tp132
a(I0
g63
tp133
a(I1
g67
tp134
a(I0
g58
tp135
a(I1
g58
tp136
a(I0
g82
tp137
a(I1
g67
tp138
a(I0
g63
tp139
a(I1
g67
tp140
a(I0
g67
tp141
a(I1
g67
tp142
a(I0
g82
tp143
a(I1
g67
tp144
a(I0
g67
tp145
a(I1
g63
tp146
a(I0
g82
tp147
a(I1
g63
tp148
a(I0
g60
tp149
a(I1
g60
tp150
a(I0
g63
tp151
a(I1
g60
tp152
a(I0
g82
tp153
a(I1
g58
tp154
a(I0
g58
tp155
a(I1
g58
tp156
a(I0
g60
tp157
a(I1
g60
tp158
a(I0
g63
tp159
a(I1
g58
tp160
a(I0
g82
tp161
a(I1
g60
tp162
a(I0
g67
tp163
a(I1
g63
tp164
a(I0
g58
tp165
a(I1
g67
tp166
a(I0
g67
tp167
a(I1
g58
tp168
a(I0
g67
tp169
a(I1
g58
tp170
a(I0
g60
tp171
a(I1
g58
tp172
a(I0
g60
tp173
a(I1
g58
tp174
as.