(dp1
S'layout'
p2
(ilayout
Layout
p3
(dp4
S'numGhosts'
p5
I1
sS'food'
p6
(igame
Grid
p7
(dp8
S'CELLS_PER_INT'
p9
I30
sS'width'
p10
I10
sS'data'
p11
(lp12
(lp13
I00
aI00
aI00
aI00
aI00
aI00
aI00
aI00
aI00
aI00
aa(lp14
I00
aI00
aI00
aI00
aI00
aI00
aI00
aI00
aI00
aI00
aa(lp15
I00
aI01
aI00
aI00
aI00
aI00
aI01
aI00
aI00
aI00
aa(lp16
I00
aI00
aI00
aI01
aI01
aI01
aI01
aI00
aI01
aI00
aa(lp17
I00
aI00
aI00
aI01
aI01
aI00
aI01
aI00
aI00
aI00
aa(lp18
I00
aI00
aI00
aI00
aI00
aI01
aI01
aI01
aI00
aI00
aa(lp19
I00
aI00
aI00
aI01
aI00
aI00
aI00
aI00
aI00
aI00
aa(lp20
I00
aI00
aI00
aI00
aI01
aI01
aI01
aI01
aI01
aI00
aa(lp21
I00
aI01
aI00
aI00
aI00
aI00
aI00
aI00
aI00
aI00
aa(lp22
I00
aI00
aI00
aI00
aI00
aI00
aI00
aI00
aI00
aI00
aasS'height'
p23
I10
sbsS'agentPositions'
p24
(lp25
(I01
(I1
I3
tp26
tp27
a(I00
(I8
I8
tp28
tp29
asg23
I10
sg10
I10
sS'walls'
p30
(igame
Grid
p31
(dp32
g9
I30
sg10
I10
sg11
(lp33
(lp34
I01
aI01
aI01
aI01
aI01
aI01
aI01
aI01
aI01
aI01
aa(lp35
I01
aI00
aI01
aI00
aI01
aI01
aI00
aI00
aI00
aI01
aa(lp36
I01
aI00
aI01
aI00
aI00
aI01
aI00
aI01
aI00
aI01
aa(lp37
I01
aI00
aI00
aI00
aI00
aI00
aI00
aI00
aI00
aI01
aa(lp38
I01
aI01
aI01
aI00
aI00
aI00
aI00
aI01
aI01
aI01
aa(lp39
I01
aI00
aI00
aI00
aI01
aI00
aI00
aI00
aI00
aI01
aa(lp40
I01
aI00
aI00
aI00
aI00
aI00
aI01
aI01
aI00
aI01
aa(lp41
I01
aI00
aI00
aI01
aI00
aI00
aI00
aI00
aI00
aI01
aa(lp42
I01
aI00
aI01
aI01
aI00
aI01
aI01
aI00
aI00
aI01
aa(lp43
I01
aI01
aI01
aI01
aI01
aI01
aI01
aI01
aI01
aI01
aasg23
I10
sbsS'layoutText'
p44
(lp45
S'%%%%%%%%%%'
p46
aS'%  .%  .G%'
p47
aS'% % %.%. %'
p48
aS'% ....%.%%'
p49
aS'%%%. . .%%'
p50
aS'%% ..% . %'
p51
aS'%P .. .%%%'
p52
aS'%%% %   %%'
p53
aS'% . %   .%'
p54
aS'%%%%%%%%%%'
p55
asbsS'actions'
p56
(lp57
(I0
S'East'
p58
tp59
a(I1
S'South'
p60
tp61
a(I0
g58
tp62
a(I1
S'West'
p63
tp64
a(I0
g58
tp65
a(I1
g60
tp66
a(I0
S'North'
p67
tp68
a(I1
g60
tp69
a(I0
g63
tp70
a(I1
g63
tp71
a(I0
g67
tp72
a(I1
g60
tp73
a(I0
S'Stop'
p74
tp75
a(I1
g60
tp76
a(I0
g67
tp77
a(I1
g63
tp78
a(I0
g58
tp79
a(I1
g60
tp80
a(I0
g58
tp81
a(I1
g58
tp82
a(I0
g60
tp83
a(I1
g58
tp84
a(I0
g58
tp85
a(I1
g60
tp86
a(I0
g74
tp87
a(I1
g58
tp88
a(I0
g58
tp89
a(I1
g63
tp90
a(I0
g74
tp91
a(I1
g67
tp92
a(I0
g67
tp93
a(I1
g63
tp94
a(I0
g67
tp95
a(I1
g67
tp96
a(I0
g67
tp97
a(I1
g63
tp98
a(I0
g74
tp99
a(I1
g60
tp100
a(I0
g74
tp101
a(I1
g58
tp102
a(I0
g63
tp103
a(I1
g58
tp104
a(I0
g63
tp105
a(I1
g60
tp106
a(I0
g60
tp107
a(I1
g58
tp108
a(I0
g60
tp109
a(I1
g63
tp110
a(I0
g74
tp111
a(I1
g67
tp112
a(I0
g63
tp113
a(I1
g63
tp114
a(I0
g60
tp115
a(I1
g67
tp116
a(I0
g60
tp117
a(I1
g63
tp118
a(I0
g67
tp119
a(I1
g60
tp120
a(I0
g58
tp121
a(I1
g58
tp122
a(I0
g67
tp123
a(I1
g58
tp124
a(I0
g67
tp125
a(I1
g60
tp126
a(I0
g60
tp127
a(I1
g58
tp128
a(I0
g74
tp129
a(I1
g63
tp130
a(I0
g74
tp131
a(I1
g67
tp132
a(I0
g63
tp133
a(I1
g63
tp134
a(I0
g63
tp135
a(I1
g60
tp136
a(I0
g58
tp137
a(I1
g58
tp138
a(I0
g63
tp139
a(I1
g67
tp140
a(I0
g67
tp141
a(I1
g63
tp142
a(I0
g74
tp143
a(I1
g67
tp144
a(I0
g74
tp145
a(I1
g63
tp146
a(I0
g67
tp147
a(I1
g60
tp148
a(I0
g74
tp149
a(I1
g58
tp150
a(I0
g74
tp151
a(I1
g58
tp152
a(I0
g63
tp153
a(I1
g60
tp154
a(I0
g74
tp155
a(I1
g63
tp156
a(I0
g74
tp157
a(I1
g67
tp158
a(I0
g58
tp159
a(I1
g58
tp160
a(I0
g60
tp161
a(I1
g60
tp162
a(I0
g60
tp163
a(I1
g58
tp164
a(I0
g60
tp165
a(I1
g63
tp166
a(I0
g67
tp167
a(I1
g63
tp168
a(I0
g74
tp169
a(I1
g67
tp170
a(I0
g67
tp171
a(I1
g58
tp172
a(I0
g67
tp173
a(I1
g60
tp174
a(I0
g63
tp175
a(I1
g58
tp176
a(I0
g63
tp177
a(I1
g63
tp178
a(I0
g58
tp179
a(I1
g67
tp180
a(I0
g58
tp181
a(I1
g63
tp182
a(I0
g74
tp183
a(I1
g67
tp184
a(I0
g60
tp185
a(I1
g63
tp186
a(I0
g67
tp187
a(I1
g60
tp188
a(I0
g60
tp189
a(I1
g60
tp190
a(I0
g67
tp191
a(I1
g58
tp192
a(I0
g74
tp193
a(I1
g67
tp194
a(I0
g74
tp195
a(I1
g58
tp196
a(I0
g63
tp197
a(I1
g60
tp198
a(I0
g63
tp199
a(I1
g58
tp200
a(I0
g74
tp201
a(I1
g63
tp202
a(I0
g74
tp203
a(I1
g63
tp204
a(I0
g58
tp205
a(I1
g63
tp206
a(I0
g63
tp207
a(I1
g67
tp208
a(I0
g74
tp209
a(I1
g58
tp210
a(I0
g60
tp211
a(I1
g58
tp212
a(I0
g74
tp213
a(I1
g60
tp214
a(I0
g67
tp215
a(I1
g58
tp216
a(I0
g60
tp217
a(I1
g63
tp218
a(I0
g67
tp219
a(I1
g67
tp220
a(I0
g58
tp221
a(I1
g63
tp222
a(I0
g74
tp223
a(I1
g67
tp224
a(I0
g63
tp225
a(I1
g67
tp226
a(I0
g74
tp227
a(I1
g58
tp228
a(I0
g74
tp229
a(I1
g58
tp230
a(I0
g58
tp231
a(I1
g63
tp232
a(I0
g74
tp233
a(I1
g63
tp234
a(I0
g58
tp235
a(I1
g60
tp236
a(I0
g74
tp237
a(I1
g60
tp238
a(I0
g63
tp239
a(I1
g58
tp240
a(I0
g58
tp241
a(I1
g60
tp242
a(I0
g63
tp243
a(I1
g58
tp244
a(I0
g74
tp245
a(I1
g63
tp246
a(I0
g74
tp247
a(I1
g67
tp248
a(I0
g63
tp249
a(I1
g63
tp250
a(I0
g74
tp251
a(I1
g67
tp252
a(I0
g74
tp253
a(I1
g63
tp254
a(I0
g74
tp255
a(I1
g60
tp256
a(I0
g60
tp257
a(I1
g58
tp258
a(I0
g74
tp259
a(I1
g58
tp260
a(I0
g74
tp261
a(I1
g60
tp262
a(I0
g60
tp263
a(I1
g58
tp264
a(I0
g67
tp265
a(I1
g63
tp266
a(I0
g67
tp267
a(I1
g67
tp268
a(I0
g58
tp269
a(I1
g63
tp270
a(I0
g58
tp271
a(I1
g63
tp272
a(I0
g63
tp273
a(I1
g67
tp274
a(I0
g74
tp275
a(I1
g58
tp276
a(I0
g63
tp277
a(I1
g60
tp278
a(I0
g58
tp279
a(I1
g63
tp280
a(I0
g58
tp281
a(I1
g60
tp282
a(I0
g63
tp283
a(I1
g58
tp284
a(I0
g74
tp285
a(I1
g67
tp286
a(I0
g74
tp287
a(I1
g58
tp288
a(I0
g74
tp289
a(I1
g60
tp290
a(I0
g74
tp291
a(I1
g58
tp292
a(I0
g74
tp293
a(I1
g63
tp294
a(I0
g58
tp295
a(I1
g67
tp296
a(I0
g63
tp297
a(I1
g63
tp298
a(I0
g74
tp299
a(I1
g60
tp300
a(I0
g74
tp301
a(I1
g58
tp302
a(I0
g58
tp303
a(I1
g58
tp304
a(I0
g74
tp305
a(I1
g63
tp306
a(I0
g60
tp307
a(I1
g67
tp308
a(I0
g74
tp309
a(I1
g63
tp310
a(I0
g60
tp311
a(I1
g67
tp312
a(I0
g74
tp313
a(I1
g63
tp314
a(I0
g60
tp315
a(I1
g60
tp316
a(I0
g67
tp317
a(I1
g58
tp318
a(I0
g63
tp319
a(I1
g58
tp320
a(I0
g63
tp321
a(I1
g60
tp322
a(I0
g67
tp323
a(I1
g58
tp324
a(I0
g74
tp325
a(I1
g63
tp326
a(I0
g67
tp327
a(I1
g63
tp328
a(I0
g60
tp329
a(I1
g67
tp330
a(I0
g60
tp331
a(I1
g58
tp332
a(I0
g58
tp333
a(I1
g60
tp334
a(I0
g58
tp335
a(I1
g63
tp336
a(I0
g67
tp337
a(I1
g67
tp338
a(I0
g60
tp339
a(I1
g63
tp340
a(I0
g67
tp341
a(I1
g67
tp342
a(I0
g60
tp343
a(I1
g58
tp344
a(I0
g63
tp345
a(I1
g60
tp346
a(I0
g74
tp347
a(I1
g60
tp348
a(I0
g58
tp349
a(I1
g58
tp350
a(I0
g63
tp351
a(I1
g58
tp352
a(I0
g74
tp353
a(I1
g63
tp354
a(I0
g74
tp355
a(I1
g67
tp356
a(I0
g63
tp357
a(I1
g63
tp358
a(I0
g67
tp359
a(I1
g63
tp360
a(I0
g74
tp361
a(I1
g67
tp362
a(I0
g67
tp363
a(I1
g58
tp364
a(I0
g74
tp365
a(I1
g60
tp366
a(I0
g58
tp367
a(I1
g58
tp368
a(I0
g63
tp369
a(I1
g60
tp370
a(I0
g74
tp371
a(I1
g58
tp372
a(I0
g58
tp373
a(I1
g63
tp374
a(I0
g63
tp375
a(I1
g67
tp376
a(I0
g74
tp377
a(I1
g63
tp378
a(I0
g58
tp379
a(I1
g60
tp380
a(I0
g58
tp381
a(I1
g58
tp382
a(I0
g60
tp383
a(I1
g58
tp384
a(I0
g67
tp385
a(I1
g63
tp386
a(I0
g74
tp387
a(I1
g67
tp388
a(I0
g60
tp389
a(I1
g63
tp390
a(I0
g67
tp391
a(I1
g63
tp392
a(I0
g60
tp393
a(I1
g67
tp394
a(I0
g60
tp395
a(I1
g58
tp396
a(I0
g60
tp397
a(I1
g60
tp398
a(I0
g60
tp399
a(I1
g58
tp400
a(I0
g63
tp401
a(I1
g60
tp402
a(I0
g58
tp403
a(I1
g58
tp404
a(I0
g74
tp405
a(I1
g63
tp406
a(I0
g63
tp407
a(I1
g67
tp408
a(I0
g58
tp409
a(I1
g63
tp410
a(I0
g74
tp411
a(I1
g60
tp412
a(I0
g74
tp413
a(I1
g58
tp414
a(I0
g67
tp415
a(I1
g67
tp416
a(I0
g58
tp417
a(I1
g63
tp418
a(I0
g58
tp419
a(I1
g60
tp420
a(I0
g63
tp421
a(I1
g58
tp422
a(I0
g60
tp423
a(I1
g58
tp424
a(I0
g60
tp425
a(I1
g63
tp426
a(I0
g67
tp427
a(I1
g67
tp428
a(I0
g60
tp429
a(I1
g63
tp430
a(I0
g67
tp431
a(I1
g63
tp432
a(I0
g63
tp433
a(I1
g67
tp434
a(I0
g58
tp435
a(I1
g63
tp436
a(I0
g67
tp437
a(I1
g63
tp438
a(I0
g67
tp439
a(I1
g60
tp440
a(I0
g58
tp441
a(I1
g60
tp442
a(I0
g60
tp443
a(I1
g63
tp444
a(I0
g74
tp445
a(I1
g63
tp446
a(I0
g58
tp447
a(I1
g58
tp448
a(I0
g60
tp449
a(I1
g58
tp450
a(I0
g74
tp451
a(I1
g67
tp452
a(I0
g67
tp453
a(I1
g67
tp454
a(I0
g63
tp455
a(I1
g58
tp456
a(I0
g74
tp457
a(I1
g58
tp458
a(I0
g58
tp459
a(I1
g58
tp460
a(I0
g58
tp461
a(I1
g60
tp462
a(I0
g67
tp463
a(I1
g58
tp464
a(I0
g67
tp465
a(I1
g60
tp466
a(I0
g60
tp467
a(I1
g58
tp468
a(I0
g60
tp469
a(I1
g63
tp470
a(I0
g74
tp471
a(I1
g67
tp472
a(I0
g74
tp473
a(I1
g63
tp474
a(I0
g63
tp475
a(I1
g63
tp476
a(I0
g74
tp477
a(I1
g67
tp478
a(I0
g60
tp479
a(I1
g63
tp480
a(I0
g58
tp481
a(I1
g63
tp482
a(I0
g74
tp483
a(I1
g63
tp484
a(I0
g63
tp485
a(I1
g63
tp486
a(I0
g74
tp487
a(I1
g58
tp488
a(I0
g67
tp489
a(I1
g58
tp490
a(I0
g60
tp491
a(I1
g60
tp492
a(I0
g74
tp493
a(I1
g60
tp494
a(I0
g60
tp495
a(I1
g63
tp496
a(I0
g60
tp497
a(I1
g63
tp498
a(I0
g67
tp499
a(I1
g58
tp500
a(I0
g60
tp501
a(I1
g58
tp502
a(I0
g67
tp503
a(I1
g67
tp504
a(I0
g74
tp505
a(I1
g67
tp506
a(I0
g63
tp507
a(I1
g63
tp508
a(I0
g58
tp509
a(I1
g63
tp510
a(I0
g67
tp511
a(I1
g58
tp512
a(I0
g58
tp513
a(I1
g67
tp514
a(I0
g58
tp515
a(I1
g58
tp516
a(I0
g74
tp517
a(I1
g60
tp518
a(I0
g74
tp519
a(I1
g60
tp520
a(I0
g74
tp521
a(I1
g60
tp522
a(I0
g74
tp523
a(I1
g63
tp524
a(I0
g63
tp525
a(I1
g63
tp526
a(I0
g74
tp527
a(I1
g58
tp528
a(I0
g67
tp529
a(I1
g58
tp530
a(I0
g74
tp531
a(I1
g67
tp532
a(I0
g67
tp533
a(I1
g67
tp534
a(I0
g67
tp535
a(I1
g63
tp536
a(I0
g74
tp537
a(I1
g63
tp538
a(I0
g60
tp539
a(I1
g58
tp540
a(I0
g60
tp541
a(I1
g67
tp542
a(I0
g67
tp543
a(I1
g58
tp544
a(I0
g60
tp545
a(I1
g60
tp546
a(I0
g74
tp547
a(I1
g58
tp548
a(I0
g63
tp549
a(I1
g58
tp550
a(I0
g58
tp551
a(I1
g60
tp552
a(I0
g60
tp553
a(I1
g58
tp554
a(I0
g74
tp555
a(I1
g67
tp556
a(I0
g74
tp557
a(I1
g67
tp558
a(I0
g67
tp559
a(I1
g67
tp560
a(I0
g60
tp561
a(I1
g58
tp562
a(I0
g74
tp563
a(I1
g60
tp564
as.