(dp1
S'layout'
p2
(ilayout
Layout
p3
(dp4
S'numGhosts'
p5
I1
sS'food'
p6
(igame
Grid
p7
(dp8
S'CELLS_PER_INT'
p9
I30
sS'width'
p10
I10
sS'data'
p11
(lp12
(lp13
I00
aI00
aI00
aI00
aI00
aI00
aI00
aI00
aI00
aI00
aa(lp14
I00
aI00
aI00
aI00
aI00
aI00
aI00
aI00
aI00
aI00
aa(lp15
I00
aI01
aI00
aI00
aI00
aI00
aI01
aI00
aI00
aI00
aa(lp16
I00
aI00
aI00
aI01
aI01
aI01
aI01
aI00
aI01
aI00
aa(lp17
I00
aI00
aI00
aI01
aI01
aI00
aI01
aI00
aI00
aI00
aa(lp18
I00
aI00
aI00
aI00
aI00
aI01
aI01
aI01
aI00
aI00
aa(lp19
I00
aI00
aI00
aI01
aI00
aI00
aI00
aI00
aI00
aI00
aa(lp20
I00
aI00
aI00
aI00
aI01
aI01
aI01
aI01
aI01
aI00
aa(lp21
I00
aI01
aI00
aI00
aI00
aI00
aI00
aI00
aI00
aI00
aa(lp22
I00
aI00
aI00
aI00
aI00
aI00
aI00
aI00
aI00
aI00
aasS'height'
p23
I10
sbsS'agentPositions'
p24
(lp25
(I01
(I1
I3
tp26
tp27
a(I00
(I8
I8
tp28
tp29
asg23
I10
sg10
I10
sS'walls'
p30
(igame
Grid
p31
(dp32
g9
I30
sg10
I10
sg11
(lp33
(lp34
I01
aI01
aI01
aI01
aI01
aI01
aI01
aI01
aI01
aI01
aa(lp35
I01
aI00
aI01
aI00
aI01
aI01
aI00
aI00
aI00
aI01
aa(lp36
I01
aI00
aI01
aI00
aI00
aI01
aI00
aI01
aI00
aI01
aa(lp37
I01
aI00
aI00
aI00
aI00
aI00
aI00
aI00
aI00
aI01
aa(lp38
I01
aI01
aI01
aI00
aI00
aI00
aI00
aI01
aI01
aI01
aa(lp39
I01
aI00
aI00
aI00
aI01
aI00
aI00
aI00
aI00
aI01
aa(lp40
I01
aI00
aI00
aI00
aI00
aI00
aI01
aI01
aI00
aI01
aa(lp41
I01
aI00
aI00
aI01
aI00
aI00
aI00
aI00
aI00
aI01
aa(lp42
I01
aI00
aI01
aI01
aI00
aI01
aI01
aI00
aI00
aI01
aa(lp43
I01
aI01
aI01
aI01
aI01
aI01
aI01
aI01
aI01
aI01
aasg23
I10
sbsS'layoutText'
p44
(lp45
S'%%%%%%%%%%'
p46
aS'%  .%  .G%'
p47
aS'% % %.%. %'
p48
aS'% ....%.%%'
p49
aS'%%%. . .%%'
p50
aS'%% ..% . %'
p51
aS'%P .. .%%%'
p52
aS'%%% %   %%'
p53
aS'% . %   .%'
p54
aS'%%%%%%%%%%'
p55
asbsS'actions'
p56
(lp57
(I0
S'East'
p58
tp59
a(I1
S'South'
p60
tp61
a(I0
g58
tp62
a(I1
S'West'
p63
tp64
a(I0
g58
tp65
a(I1
g60
tp66
a(I0
S'North'
p67
tp68
a(I1
g60
tp69
a(I0
g63
tp70
a(I1
g63
tp71
a(I0
g67
tp72
a(I1
g60
tp73
a(I0
S'Stop'
p74
tp75
a(I1
g58
tp76
a(I0
g58
tp77
a(I1
g58
tp78
a(I0
g58
tp79
a(I1
g63
tp80
a(I0
g67
tp81
a(I1
g67
tp82
a(I0
g74
tp83
a(I1
g63
tp84
a(I0
g67
tp85
a(I1
g60
tp86
a(I0
g74
tp87
a(I1
g60
tp88
a(I0
g74
tp89
a(I1
g60
tp90
a(I0
g67
tp91
a(I1
g58
tp92
a(I0
g58
tp93
a(I1
g60
tp94
a(I0
g63
tp95
a(I1
g58
tp96
a(I0
g58
tp97
a(I1
g63
tp98
a(I0
g63
tp99
a(I1
g63
tp100
a(I0
g74
tp101
a(I1
g67
tp102
a(I0
g74
tp103
a(I1
g58
tp104
a(I0
g74
tp105
a(I1
g60
tp106
a(I0
g74
tp107
a(I1
g58
tp108
a(I0
g60
tp109
a(I1
g63
tp110
a(I0
g60
tp111
a(I1
g67
tp112
a(I0
g67
tp113
a(I1
g63
tp114
a(I0
g60
tp115
a(I1
g67
tp116
a(I0
g63
tp117
a(I1
g63
tp118
a(I0
g74
tp119
a(I1
g60
tp120
a(I0
g63
tp121
a(I1
g58
tp122
a(I0
g58
tp123
a(I1
g58
tp124
a(I0
g58
tp125
a(I1
g60
tp126
a(I0
g67
tp127
a(I1
g58
tp128
a(I0
g67
tp129
a(I1
g63
tp130
a(I0
g74
tp131
a(I1
g67
tp132
a(I0
g58
tp133
a(I1
g63
tp134
a(I0
g63
tp135
a(I1
g60
tp136
a(I0
g74
tp137
a(I1
g58
tp138
a(I0
g74
tp139
a(I1
g67
tp140
a(I0
g60
tp141
a(I1
g63
tp142
a(I0
g60
tp143
a(I1
g60
tp144
a(I0
g60
tp145
a(I1
g58
tp146
a(I0
g58
tp147
a(I1
g67
tp148
a(I0
g58
tp149
a(I1
g63
tp150
a(I0
g60
tp151
a(I1
g63
tp152
a(I0
g58
tp153
a(I1
g60
tp154
a(I0
g63
tp155
a(I1
g58
tp156
a(I0
g67
tp157
a(I1
g58
tp158
a(I0
g67
tp159
a(I1
g67
tp160
a(I0
g67
tp161
a(I1
g63
tp162
a(I0
g74
tp163
a(I1
g63
tp164
a(I0
g67
tp165
a(I1
g60
tp166
a(I0
g60
tp167
a(I1
g58
tp168
a(I0
g58
tp169
a(I1
g67
tp170
a(I0
g74
tp171
a(I1
g58
tp172
a(I0
g63
tp173
a(I1
g60
tp174
a(I0
g67
tp175
a(I1
g58
tp176
a(I0
g63
tp177
a(I1
g63
tp178
a(I0
g58
tp179
a(I1
g67
tp180
a(I0
g58
tp181
a(I1
g63
tp182
a(I0
g63
tp183
a(I1
g63
tp184
a(I0
g74
tp185
a(I1
g60
tp186
a(I0
g63
tp187
a(I1
g58
tp188
a(I0
g58
tp189
a(I1
g67
tp190
a(I0
g63
tp191
a(I1
g58
tp192
a(I0
g74
tp193
a(I1
g60
tp194
a(I0
g63
tp195
a(I1
g58
tp196
a(I0
g58
tp197
a(I1
g63
tp198
a(I0
g74
tp199
a(I1
g63
tp200
a(I0
g58
tp201
a(I1
g67
tp202
a(I0
g74
tp203
a(I1
g67
tp204
a(I0
g60
tp205
a(I1
g63
tp206
a(I0
g60
tp207
a(I1
g60
tp208
a(I0
g74
tp209
a(I1
g58
tp210
a(I0
g60
tp211
a(I1
g58
tp212
a(I0
g74
tp213
a(I1
g60
tp214
a(I0
g67
tp215
a(I1
g58
tp216
a(I0
g60
tp217
a(I1
g63
tp218
a(I0
g63
tp219
a(I1
g67
tp220
a(I0
g58
tp221
a(I1
g63
tp222
a(I0
g60
tp223
a(I1
g63
tp224
a(I0
g67
tp225
a(I1
g60
tp226
a(I0
g63
tp227
a(I1
g58
tp228
a(I0
g63
tp229
a(I1
g67
tp230
a(I0
g67
tp231
a(I1
g58
tp232
a(I0
g60
tp233
a(I1
g60
tp234
a(I0
g74
tp235
a(I1
g58
tp236
a(I0
g74
tp237
a(I1
g63
tp238
a(I0
g74
tp239
a(I1
g67
tp240
a(I0
g67
tp241
a(I1
g63
tp242
a(I0
g74
tp243
a(I1
g67
tp244
a(I0
g67
tp245
a(I1
g67
tp246
a(I0
g60
tp247
a(I1
g58
tp248
a(I0
g63
tp249
a(I1
g58
tp250
a(I0
g74
tp251
a(I1
g63
tp252
a(I0
g74
tp253
a(I1
g63
tp254
a(I0
g58
tp255
a(I1
g60
tp256
a(I0
g60
tp257
a(I1
g60
tp258
a(I0
g67
tp259
a(I1
g58
tp260
a(I0
g67
tp261
a(I1
g60
tp262
a(I0
g74
tp263
a(I1
g58
tp264
a(I0
g60
tp265
a(I1
g63
tp266
a(I0
g74
tp267
a(I1
g67
tp268
a(I0
g67
tp269
a(I1
g63
tp270
a(I0
g74
tp271
a(I1
g67
tp272
a(I0
g74
tp273
a(I1
g67
tp274
a(I0
g60
tp275
a(I1
g58
tp276
a(I0
g60
tp277
a(I1
g58
tp278
a(I0
g67
tp279
a(I1
g63
tp280
a(I0
g67
tp281
a(I1
g67
tp282
a(I0
g67
tp283
a(I1
g63
tp284
a(I0
g60
tp285
a(I1
g60
tp286
a(I0
g67
tp287
a(I1
g58
tp288
a(I0
g58
tp289
a(I1
g58
tp290
a(I0
g63
tp291
a(I1
g63
tp292
a(I0
g60
tp293
a(I1
g67
tp294
a(I0
g74
tp295
a(I1
g63
tp296
a(I0
g67
tp297
a(I1
g60
tp298
a(I0
g60
tp299
a(I1
g60
tp300
a(I0
g60
tp301
a(I1
g60
tp302
a(I0
g60
tp303
a(I1
g58
tp304
a(I0
g58
tp305
a(I1
g60
tp306
a(I0
g74
tp307
a(I1
g58
tp308
a(I0
g74
tp309
a(I1
g63
tp310
a(I0
g58
tp311
a(I1
g67
tp312
a(I0
g60
tp313
a(I1
g63
tp314
a(I0
g58
tp315
a(I1
g60
tp316
a(I0
g74
tp317
a(I1
g63
tp318
a(I0
g63
tp319
a(I1
g67
tp320
a(I0
g58
tp321
a(I1
g58
tp322
a(I0
g63
tp323
a(I1
g58
tp324
a(I0
g74
tp325
a(I1
g60
tp326
a(I0
g74
tp327
a(I1
g58
tp328
a(I0
g67
tp329
a(I1
g63
tp330
a(I0
g60
tp331
a(I1
g67
tp332
a(I0
g58
tp333
a(I1
g63
tp334
a(I0
g63
tp335
a(I1
g63
tp336
a(I0
g74
tp337
a(I1
g60
tp338
a(I0
g74
tp339
a(I1
g58
tp340
a(I0
g74
tp341
a(I1
g58
tp342
a(I0
g74
tp343
a(I1
g58
tp344
a(I0
g74
tp345
a(I1
g63
tp346
a(I0
g63
tp347
a(I1
g67
tp348
a(I0
g67
tp349
a(I1
g63
tp350
a(I0
g74
tp351
a(I1
g63
tp352
a(I0
g74
tp353
a(I1
g60
tp354
a(I0
g74
tp355
a(I1
g58
tp356
a(I0
g58
tp357
a(I1
g58
tp358
a(I0
g67
tp359
a(I1
g58
tp360
a(I0
g67
tp361
a(I1
g63
tp362
a(I0
g60
tp363
a(I1
g63
tp364
a(I0
g67
tp365
a(I1
g67
tp366
a(I0
g74
tp367
a(I1
g58
tp368
a(I0
g74
tp369
a(I1
g60
tp370
a(I0
g67
tp371
a(I1
g58
tp372
a(I0
g60
tp373
a(I1
g63
tp374
a(I0
g67
tp375
a(I1
g67
tp376
a(I0
g58
tp377
a(I1
g63
tp378
a(I0
g63
tp379
a(I1
g67
tp380
a(I0
g74
tp381
a(I1
g63
tp382
a(I0
g74
tp383
a(I1
g60
tp384
a(I0
g74
tp385
a(I1
g58
tp386
a(I0
g58
tp387
a(I1
g60
tp388
a(I0
g63
tp389
a(I1
g58
tp390
a(I0
g74
tp391
a(I1
g67
tp392
a(I0
g60
tp393
a(I1
g63
tp394
a(I0
g74
tp395
a(I1
g60
tp396
a(I0
g74
tp397
a(I1
g58
tp398
a(I0
g58
tp399
a(I1
g67
tp400
a(I0
g74
tp401
a(I1
g63
tp402
a(I0
g67
tp403
a(I1
g60
tp404
a(I0
g74
tp405
a(I1
g58
tp406
a(I0
g60
tp407
a(I1
g58
tp408
a(I0
g63
tp409
a(I1
g63
tp410
a(I0
g58
tp411
a(I1
g67
tp412
a(I0
g74
tp413
a(I1
g63
tp414
a(I0
g74
tp415
a(I1
g67
tp416
a(I0
g74
tp417
a(I1
g67
tp418
a(I0
g74
tp419
a(I1
g67
tp420
a(I0
g63
tp421
a(I1
g58
tp422
a(I0
g58
tp423
a(I1
g67
tp424
a(I0
g74
tp425
a(I1
g67
tp426
a(I0
g67
tp427
a(I1
g58
tp428
a(I0
g74
tp429
a(I1
g67
tp430
as.