(dp1
S'layout'
p2
(ilayout
Layout
p3
(dp4
S'numGhosts'
p5
I1
sS'food'
p6
(igame
Grid
p7
(dp8
S'CELLS_PER_INT'
p9
I30
sS'width'
p10
I10
sS'data'
p11
(lp12
(lp13
I00
aI00
aI00
aI00
aI00
aI00
aI00
aI00
aI00
aI00
aa(lp14
I00
aI00
aI00
aI00
aI00
aI00
aI00
aI00
aI00
aI00
aa(lp15
I00
aI01
aI00
aI00
aI00
aI00
aI01
aI00
aI00
aI00
aa(lp16
I00
aI00
aI00
aI01
aI01
aI01
aI01
aI00
aI01
aI00
aa(lp17
I00
aI00
aI00
aI01
aI01
aI00
aI01
aI00
aI00
aI00
aa(lp18
I00
aI00
aI00
aI00
aI00
aI01
aI01
aI01
aI00
aI00
aa(lp19
I00
aI00
aI00
aI01
aI00
aI00
aI00
aI00
aI00
aI00
aa(lp20
I00
aI00
aI00
aI00
aI01
aI01
aI01
aI01
aI01
aI00
aa(lp21
I00
aI01
aI00
aI00
aI00
aI00
aI00
aI00
aI00
aI00
aa(lp22
I00
aI00
aI00
aI00
aI00
aI00
aI00
aI00
aI00
aI00
aasS'height'
p23
I10
sbsS'agentPositions'
p24
(lp25
(I01
(I1
I3
tp26
tp27
a(I00
(I8
I8
tp28
tp29
asg23
I10
sg10
I10
sS'walls'
p30
(igame
Grid
p31
(dp32
g9
I30
sg10
I10
sg11
(lp33
(lp34
I01
aI01
aI01
aI01
aI01
aI01
aI01
aI01
aI01
aI01
aa(lp35
I01
aI00
aI01
aI00
aI01
aI01
aI00
aI00
aI00
aI01
aa(lp36
I01
aI00
aI01
aI00
aI00
aI01
aI00
aI01
aI00
aI01
aa(lp37
I01
aI00
aI00
aI00
aI00
aI00
aI00
aI00
aI00
aI01
aa(lp38
I01
aI01
aI01
aI00
aI00
aI00
aI00
aI01
aI01
aI01
aa(lp39
I01
aI00
aI00
aI00
aI01
aI00
aI00
aI00
aI00
aI01
aa(lp40
I01
aI00
aI00
aI00
aI00
aI00
aI01
aI01
aI00
aI01
aa(lp41
I01
aI00
aI00
aI01
aI00
aI00
aI00
aI00
aI00
aI01
aa(lp42
I01
aI00
aI01
aI01
aI00
aI01
aI01
aI00
aI00
aI01
aa(lp43
I01
aI01
aI01
aI01
aI01
aI01
aI01
aI01
aI01
aI01
aasg23
I10
sbsS'layoutText'
p44
(lp45
S'%%%%%%%%%%'
p46
aS'%  .%  .G%'
p47
aS'% % %.%. %'
p48
aS'% ....%.%%'
p49
aS'%%%. . .%%'
p50
aS'%% ..% . %'
p51
aS'%P .. .%%%'
p52
aS'%%% %   %%'
p53
aS'% . %   .%'
p54
aS'%%%%%%%%%%'
p55
asbsS'actions'
p56
(lp57
(I0
S'East'
p58
tp59
a(I1
S'West'
p60
tp61
a(I0
g58
tp62
a(I1
g60
tp63
a(I0
S'Stop'
p64
tp65
a(I1
g60
tp66
a(I0
g58
tp67
a(I1
S'South'
p68
tp69
a(I0
S'North'
p70
tp71
a(I1
g68
tp72
a(I0
g60
tp73
a(I1
g60
tp74
a(I0
g70
tp75
a(I1
g68
tp76
a(I0
g70
tp77
a(I1
g60
tp78
a(I0
g70
tp79
a(I1
g68
tp80
a(I0
g70
tp81
a(I1
g60
tp82
a(I0
g68
tp83
a(I1
g68
tp84
a(I0
g68
tp85
a(I1
g60
tp86
a(I0
g58
tp87
a(I1
g58
tp88
a(I0
g58
tp89
a(I1
g70
tp90
a(I0
g68
tp91
a(I1
g58
tp92
a(I0
g70
tp93
a(I1
g68
tp94
a(I0
g70
tp95
a(I1
g68
tp96
a(I0
g70
tp97
a(I1
g68
tp98
a(I0
g58
tp99
a(I1
g60
tp100
a(I0
g64
tp101
a(I1
g60
tp102
a(I0
g58
tp103
a(I1
g58
tp104
a(I0
g68
tp105
a(I1
g58
tp106
a(I0
g68
tp107
a(I1
g70
tp108
a(I0
g64
tp109
a(I1
g70
tp110
a(I0
g64
tp111
a(I1
g60
tp112
a(I0
g68
tp113
a(I1
g60
tp114
a(I0
g68
tp115
a(I1
g58
tp116
a(I0
g70
tp117
a(I1
g70
tp118
a(I0
g70
tp119
a(I1
g58
tp120
a(I0
g68
tp121
a(I1
g68
tp122
a(I0
g64
tp123
a(I1
g68
tp124
a(I0
g60
tp125
a(I1
g68
tp126
a(I0
g60
tp127
a(I1
g60
tp128
a(I0
g64
tp129
a(I1
g60
tp130
a(I0
g58
tp131
a(I1
g58
tp132
a(I0
g58
tp133
a(I1
g58
tp134
a(I0
g64
tp135
a(I1
g70
tp136
a(I0
g68
tp137
a(I1
g70
tp138
a(I0
g58
tp139
a(I1
g60
tp140
a(I0
g64
tp141
a(I1
g60
tp142
a(I0
g64
tp143
a(I1
g58
tp144
a(I0
g64
tp145
a(I1
g70
tp146
a(I0
g60
tp147
a(I1
g58
tp148
a(I0
g70
tp149
a(I1
g68
tp150
a(I0
g70
tp151
a(I1
g60
tp152
a(I0
g70
tp153
a(I1
g60
tp154
a(I0
g58
tp155
a(I1
g58
tp156
a(I0
g64
tp157
a(I1
g70
tp158
a(I0
g60
tp159
a(I1
g58
tp160
a(I0
g64
tp161
a(I1
g68
tp162
a(I0
g58
tp163
a(I1
g68
tp164
a(I0
g70
tp165
a(I1
g68
tp166
a(I0
g64
tp167
a(I1
g60
tp168
a(I0
g68
tp169
a(I1
g60
tp170
a(I0
g70
tp171
a(I1
g58
tp172
a(I0
g64
tp173
a(I1
g58
tp174
a(I0
g68
tp175
a(I1
g70
tp176
a(I0
g60
tp177
a(I1
g70
tp178
a(I0
g68
tp179
a(I1
g60
tp180
a(I0
g70
tp181
a(I1
g60
tp182
a(I0
g70
tp183
a(I1
g58
tp184
a(I0
g64
tp185
a(I1
g58
tp186
a(I0
g58
tp187
a(I1
g68
tp188
a(I0
g60
tp189
a(I1
g68
tp190
a(I0
g64
tp191
a(I1
g60
tp192
a(I0
g64
tp193
a(I1
g60
tp194
a(I0
g68
tp195
a(I1
g58
tp196
a(I0
g68
tp197
a(I1
g58
tp198
a(I0
g70
tp199
a(I1
g70
tp200
a(I0
g68
tp201
a(I1
g70
tp202
a(I0
g70
tp203
a(I1
g60
tp204
a(I0
g58
tp205
a(I1
g60
tp206
a(I0
g60
tp207
a(I1
g58
tp208
a(I0
g64
tp209
a(I1
g58
tp210
a(I0
g70
tp211
a(I1
g68
tp212
a(I0
g60
tp213
a(I1
g68
tp214
a(I0
g58
tp215
a(I1
g60
tp216
a(I0
g60
tp217
a(I1
g60
tp218
a(I0
g58
tp219
a(I1
g58
tp220
a(I0
g60
tp221
a(I1
g58
tp222
a(I0
g64
tp223
a(I1
g70
tp224
a(I0
g60
tp225
a(I1
g70
tp226
a(I0
g58
tp227
a(I1
g58
tp228
a(I0
g64
tp229
a(I1
g58
tp230
a(I0
g60
tp231
a(I1
g68
tp232
a(I0
g64
tp233
a(I1
g68
tp234
a(I0
g58
tp235
a(I1
g58
tp236
a(I0
g58
tp237
a(I1
g70
tp238
a(I0
g68
tp239
a(I1
g60
tp240
a(I0
g58
tp241
a(I1
g68
tp242
a(I0
g60
tp243
a(I1
g58
tp244
a(I0
g70
tp245
a(I1
g70
tp246
a(I0
g58
tp247
a(I1
g60
tp248
a(I0
g60
tp249
a(I1
g70
tp250
a(I0
g60
tp251
a(I1
g58
tp252
a(I0
g60
tp253
a(I1
g70
tp254
a(I0
g58
tp255
a(I1
g58
tp256
a(I0
g60
tp257
a(I1
g58
tp258
a(I0
g58
tp259
a(I1
g60
tp260
a(I0
g64
tp261
a(I1
g60
tp262
a(I0
g60
tp263
a(I1
g68
tp264
a(I0
g58
tp265
a(I1
g68
tp266
a(I0
g58
tp267
a(I1
g58
tp268
a(I0
g68
tp269
a(I1
g68
tp270
a(I0
g70
tp271
a(I1
g58
tp272
a(I0
g64
tp273
a(I1
g60
tp274
a(I0
g64
tp275
a(I1
g70
tp276
a(I0
g64
tp277
a(I1
g60
tp278
a(I0
g64
tp279
a(I1
g70
tp280
a(I0
g60
tp281
a(I1
g70
tp282
a(I0
g64
tp283
a(I1
g70
tp284
a(I0
g60
tp285
a(I1
g58
tp286
a(I0
g58
tp287
a(I1
g70
tp288
a(I0
g58
tp289
a(I1
g70
tp290
a(I0
g58
tp291
a(I1
g70
tp292
a(I0
g68
tp293
a(I1
g58
tp294
a(I0
g60
tp295
a(I1
g68
tp296
a(I0
g58
tp297
as.