(dp1
S'layout'
p2
(ilayout
Layout
p3
(dp4
S'numGhosts'
p5
I2
sS'food'
p6
(igame
Grid
p7
(dp8
S'CELLS_PER_INT'
p9
I30
sS'width'
p10
I10
sS'data'
p11
(lp12
(lp13
I00
aI00
aI00
aI00
aI00
aI00
aI00
aI00
aI00
aI00
aa(lp14
I00
aI00
aI00
aI01
aI00
aI00
aI00
aI00
aI00
aI00
aa(lp15
I00
aI00
aI00
aI00
aI01
aI00
aI00
aI00
aI00
aI00
aa(lp16
I00
aI01
aI01
aI01
aI01
aI01
aI01
aI01
aI01
aI00
aa(lp17
I00
aI00
aI00
aI01
aI01
aI00
aI00
aI00
aI00
aI00
aa(lp18
I00
aI00
aI00
aI00
aI00
aI01
aI01
aI01
aI01
aI00
aa(lp19
I00
aI00
aI00
aI00
aI00
aI00
aI00
aI00
aI00
aI00
aa(lp20
I00
aI00
aI00
aI00
aI01
aI01
aI01
aI01
aI00
aI00
aa(lp21
I00
aI00
aI00
aI00
aI00
aI00
aI00
aI00
aI00
aI00
aa(lp22
I00
aI00
aI00
aI00
aI00
aI00
aI00
aI00
aI00
aI00
aasS'height'
p23
I10
sbsS'agentPositions'
p24
(lp25
(I01
(I7
I1
tp26
tp27
a(I00
(I7
I8
tp28
tp29
a(I00
(I8
I8
tp30
tp31
asg23
I10
sg10
I10
sS'walls'
p32
(igame
Grid
p33
(dp34
g9
I30
sg10
I10
sg11
(lp35
(lp36
I01
aI01
aI01
aI01
aI01
aI01
aI01
aI01
aI01
aI01
aa(lp37
I01
aI00
aI01
aI00
aI01
aI01
aI00
aI00
aI00
aI01
aa(lp38
I01
aI00
aI01
aI00
aI00
aI01
aI00
aI01
aI00
aI01
aa(lp39
I01
aI00
aI00
aI00
aI00
aI00
aI00
aI00
aI00
aI01
aa(lp40
I01
aI01
aI01
aI00
aI00
aI00
aI00
aI01
aI01
aI01
aa(lp41
I01
aI00
aI00
aI00
aI01
aI00
aI00
aI00
aI00
aI01
aa(lp42
I01
aI00
aI00
aI00
aI00
aI00
aI01
aI01
aI00
aI01
aa(lp43
I01
aI00
aI00
aI01
aI00
aI00
aI00
aI00
aI00
aI01
aa(lp44
I01
aI00
aI01
aI01
aI00
aI01
aI01
aI00
aI00
aI01
aa(lp45
I01
aI01
aI01
aI01
aI01
aI01
aI01
aI01
aI01
aI01
aasg23
I10
sbsS'layoutText'
p46
(lp47
S'%%%%%%%%%%'
p48
aS'%  .%. GG%'
p49
aS'% %.%.%. %'
p50
aS'%  . .%.%%'
p51
aS'%%%. . .%%'
p52
aS'%%...% . %'
p53
aS'%. ..  %%%'
p54
aS'%%%.%   %%'
p55
aS'%  .%  P %'
p56
aS'%%%%%%%%%%'
p57
asbsS'actions'
p58
(lp59
(I0
S'West'
p60
tp61
a(I1
g60
tp62
a(I2
g60
tp63
a(I0
S'North'
p64
tp65
a(I1
g60
tp66
a(I2
g60
tp67
a(I0
g60
tp68
a(I1
S'South'
p69
tp70
a(I2
g60
tp71
a(I0
g64
tp72
a(I1
g69
tp73
a(I2
g69
tp74
a(I0
g69
tp75
a(I1
g60
tp76
a(I2
g69
tp77
a(I0
g64
tp78
a(I1
g60
tp79
a(I2
g60
tp80
a(I0
g60
tp81
a(I1
g64
tp82
a(I2
g60
tp83
a(I0
g64
tp84
a(I1
g64
tp85
a(I2
g64
tp86
a(I0
g60
tp87
a(I1
g60
tp88
a(I2
g64
tp89
a(I0
g69
tp90
a(I1
g60
tp91
a(I2
g60
tp92
a(I0
g69
tp93
a(I1
g69
tp94
a(I2
g60
tp95
a(I0
g69
tp96
a(I1
g69
tp97
a(I2
g69
tp98
a(I0
g60
tp99
a(I1
S'East'
p100
tp101
a(I2
g69
tp102
a(I0
S'Stop'
p103
tp104
a(I1
g100
tp105
a(I2
g100
tp106
a(I0
g100
tp107
a(I1
g64
tp108
a(I2
g100
tp109
a(I0
g64
tp110
a(I1
g64
tp111
a(I2
g64
tp112
a(I0
g103
tp113
a(I1
g60
tp114
a(I2
g64
tp115
a(I0
g103
tp116
a(I1
g60
tp117
a(I2
g60
tp118
a(I0
g69
tp119
a(I1
g69
tp120
a(I2
g60
tp121
a(I0
g60
tp122
a(I1
g69
tp123
a(I2
g69
tp124
a(I0
g100
tp125
a(I1
g100
tp126
a(I2
g69
tp127
a(I0
g60
tp128
a(I1
g100
tp129
a(I2
g100
tp130
a(I0
g103
tp131
a(I1
g64
tp132
a(I2
g100
tp133
a(I0
g103
tp134
a(I1
g64
tp135
a(I2
g64
tp136
a(I0
g103
tp137
a(I1
g60
tp138
a(I2
g64
tp139
a(I0
g103
tp140
a(I1
g60
tp141
a(I2
g60
tp142
a(I0
g60
tp143
a(I1
g69
tp144
a(I2
g60
tp145
a(I0
g103
tp146
a(I1
g69
tp147
a(I2
g69
tp148
a(I0
g100
tp149
a(I1
g100
tp150
a(I2
g69
tp151
a(I0
g100
tp152
a(I1
g100
tp153
a(I2
g100
tp154
a(I0
g60
tp155
a(I1
g100
tp156
a(I2
g100
tp157
a(I0
g100
tp158
a(I1
g69
tp159
a(I2
g64
tp160
a(I0
g64
tp161
a(I1
g100
tp162
a(I2
g64
tp163
a(I0
g64
tp164
a(I1
g100
tp165
a(I2
g60
tp166
a(I0
g64
tp167
a(I1
g100
tp168
a(I2
g60
tp169
a(I0
g64
tp170
a(I1
g69
tp171
a(I2
g69
tp172
a(I0
g64
tp173
a(I1
g100
tp174
a(I2
g69
tp175
a(I0
g100
tp176
a(I1
g60
tp177
a(I2
g100
tp178
a(I0
g103
tp179
a(I1
g64
tp180
a(I2
g100
tp181
a(I0
g69
tp182
a(I1
g60
tp183
a(I2
g69
tp184
a(I0
g64
tp185
a(I1
g69
tp186
a(I2
g100
tp187
a(I0
g103
tp188
a(I1
g100
tp189
a(I2
g64
tp190
as.