(dp1
S'layout'
p2
(ilayout
Layout
p3
(dp4
S'numGhosts'
p5
I2
sS'food'
p6
(igame
Grid
p7
(dp8
S'CELLS_PER_INT'
p9
I30
sS'width'
p10
I10
sS'data'
p11
(lp12
(lp13
I00
aI00
aI00
aI00
aI00
aI00
aI00
aI00
aI00
aI00
aa(lp14
I00
aI00
aI00
aI01
aI00
aI00
aI00
aI00
aI00
aI00
aa(lp15
I00
aI00
aI00
aI00
aI01
aI00
aI00
aI00
aI00
aI00
aa(lp16
I00
aI01
aI01
aI01
aI01
aI01
aI01
aI01
aI01
aI00
aa(lp17
I00
aI00
aI00
aI01
aI01
aI00
aI00
aI00
aI00
aI00
aa(lp18
I00
aI00
aI00
aI00
aI00
aI01
aI01
aI01
aI01
aI00
aa(lp19
I00
aI00
aI00
aI00
aI00
aI00
aI00
aI00
aI00
aI00
aa(lp20
I00
aI00
aI00
aI00
aI01
aI01
aI01
aI01
aI00
aI00
aa(lp21
I00
aI00
aI00
aI00
aI00
aI00
aI00
aI00
aI00
aI00
aa(lp22
I00
aI00
aI00
aI00
aI00
aI00
aI00
aI00
aI00
aI00
aasS'height'
p23
I10
sbsS'agentPositions'
p24
(lp25
(I01
(I7
I1
tp26
tp27
a(I00
(I7
I8
tp28
tp29
a(I00
(I8
I8
tp30
tp31
asg23
I10
sg10
I10
sS'walls'
p32
(igame
Grid
p33
(dp34
g9
I30
sg10
I10
sg11
(lp35
(lp36
I01
aI01
aI01
aI01
aI01
aI01
aI01
aI01
aI01
aI01
aa(lp37
I01
aI00
aI01
aI00
aI01
aI01
aI00
aI00
aI00
aI01
aa(lp38
I01
aI00
aI01
aI00
aI00
aI01
aI00
aI01
aI00
aI01
aa(lp39
I01
aI00
aI00
aI00
aI00
aI00
aI00
aI00
aI00
aI01
aa(lp40
I01
aI01
aI01
aI00
aI00
aI00
aI00
aI01
aI01
aI01
aa(lp41
I01
aI00
aI00
aI00
aI01
aI00
aI00
aI00
aI00
aI01
aa(lp42
I01
aI00
aI00
aI00
aI00
aI00
aI01
aI01
aI00
aI01
aa(lp43
I01
aI00
aI00
aI01
aI00
aI00
aI00
aI00
aI00
aI01
aa(lp44
I01
aI00
aI01
aI01
aI00
aI01
aI01
aI00
aI00
aI01
aa(lp45
I01
aI01
aI01
aI01
aI01
aI01
aI01
aI01
aI01
aI01
aasg23
I10
sbsS'layoutText'
p46
(lp47
S'%%%%%%%%%%'
p48
aS'%  .%. GG%'
p49
aS'% %.%.%. %'
p50
aS'%  . .%.%%'
p51
aS'%%%. . .%%'
p52
aS'%%...% . %'
p53
aS'%. ..  %%%'
p54
aS'%%%.%   %%'
p55
aS'%  .%  P %'
p56
aS'%%%%%%%%%%'
p57
asbsS'actions'
p58
(lp59
(I0
S'West'
p60
tp61
a(I1
g60
tp62
a(I2
g60
tp63
a(I0
S'North'
p64
tp65
a(I1
g60
tp66
a(I2
S'South'
p67
tp68
a(I0
g60
tp69
a(I1
g67
tp70
a(I2
S'East'
p71
tp72
a(I0
g64
tp73
a(I1
g67
tp74
a(I2
g64
tp75
a(I0
g60
tp76
a(I1
g60
tp77
a(I2
g60
tp78
a(I0
g64
tp79
a(I1
g60
tp80
a(I2
g60
tp81
a(I0
g60
tp82
a(I1
g64
tp83
a(I2
g60
tp84
a(I0
g67
tp85
a(I1
g64
tp86
a(I2
g67
tp87
a(I0
S'Stop'
p88
tp89
a(I1
g60
tp90
a(I2
g67
tp91
a(I0
g67
tp92
a(I1
g60
tp93
a(I2
g60
tp94
a(I0
g67
tp95
a(I1
g67
tp96
a(I2
g60
tp97
a(I0
g64
tp98
a(I1
g67
tp99
a(I2
g64
tp100
a(I0
g64
tp101
a(I1
g71
tp102
a(I2
g64
tp103
a(I0
g67
tp104
a(I1
g71
tp105
a(I2
g60
tp106
a(I0
g88
tp107
a(I1
g67
tp108
a(I2
g60
tp109
a(I0
g88
tp110
a(I1
g67
tp111
a(I2
g67
tp112
a(I0
g67
tp113
a(I1
g71
tp114
a(I2
g67
tp115
a(I0
g64
tp116
a(I1
g64
tp117
a(I2
g71
tp118
a(I0
g67
tp119
a(I1
g60
tp120
a(I2
g71
tp121
a(I0
g64
tp122
a(I1
g64
tp123
a(I2
g64
tp124
a(I0
g67
tp125
a(I1
g64
tp126
a(I2
g64
tp127
a(I0
g64
tp128
a(I1
g64
tp129
a(I2
g60
tp130
a(I0
g64
tp131
a(I1
g60
tp132
a(I2
g60
tp133
a(I0
g64
tp134
a(I1
g60
tp135
a(I2
g67
tp136
a(I0
g64
tp137
a(I1
g67
tp138
a(I2
g67
tp139
a(I0
g67
tp140
a(I1
g67
tp141
a(I2
g71
tp142
a(I0
g88
tp143
a(I1
g71
tp144
a(I2
g71
tp145
a(I0
g67
tp146
a(I1
g71
tp147
a(I2
g64
tp148
a(I0
g71
tp149
a(I1
g71
tp150
a(I2
g64
tp151
a(I0
g71
tp152
a(I1
g71
tp153
a(I2
g60
tp154
a(I0
g67
tp155
a(I1
g64
tp156
a(I2
g60
tp157
a(I0
g71
tp158
a(I1
g64
tp159
a(I2
g67
tp160
a(I0
g71
tp161
a(I1
g71
tp162
a(I2
g67
tp163
a(I0
g88
tp164
a(I1
g71
tp165
a(I2
g71
tp166
a(I0
g67
tp167
a(I1
g71
tp168
a(I2
g71
tp169
a(I0
g88
tp170
a(I1
g67
tp171
a(I2
g64
tp172
a(I0
g64
tp173
a(I1
g60
tp174
a(I2
g64
tp175
a(I0
g67
tp176
a(I1
g64
tp177
a(I2
g60
tp178
a(I0
g88
tp179
a(I1
g60
tp180
a(I2
g60
tp181
a(I0
g60
tp182
a(I1
g60
tp183
a(I2
g67
tp184
a(I0
g60
tp185
a(I1
g67
tp186
a(I2
g67
tp187
a(I0
g64
tp188
a(I1
g67
tp189
a(I2
g71
tp190
a(I0
g88
tp191
a(I1
g60
tp192
a(I2
g71
tp193
a(I0
g64
tp194
a(I1
g67
tp195
a(I2
g64
tp196
a(I0
g67
tp197
a(I1
g60
tp198
a(I2
g64
tp199
a(I0
g88
tp200
a(I1
g64
tp201
a(I2
g60
tp202
a(I0
g88
tp203
a(I1
g64
tp204
a(I2
g60
tp205
a(I0
g88
tp206
a(I1
g64
tp207
a(I2
g67
tp208
a(I0
g71
tp209
a(I1
g60
tp210
a(I2
g67
tp211
a(I0
g71
tp212
a(I1
g60
tp213
a(I2
g71
tp214
a(I0
g67
tp215
a(I1
g67
tp216
a(I2
g71
tp217
a(I0
g64
tp218
a(I1
g67
tp219
a(I2
g64
tp220
a(I0
g67
tp221
a(I1
g71
tp222
a(I2
g64
tp223
a(I0
g60
tp224
a(I1
g71
tp225
a(I2
g60
tp226
a(I0
g64
tp227
a(I1
g67
tp228
a(I2
g60
tp229
a(I0
g71
tp230
a(I1
g67
tp231
a(I2
g67
tp232
a(I0
g88
tp233
a(I1
g71
tp234
a(I2
g67
tp235
a(I0
g67
tp236
a(I1
g64
tp237
a(I2
g71
tp238
a(I0
g88
tp239
a(I1
g64
tp240
a(I2
g71
tp241
a(I0
g64
tp242
a(I1
g60
tp243
a(I2
g64
tp244
a(I0
g60
tp245
a(I1
g64
tp246
a(I2
g64
tp247
a(I0
g71
tp248
a(I1
g64
tp249
a(I2
g60
tp250
a(I0
g88
tp251
a(I1
g60
tp252
a(I2
g60
tp253
a(I0
g88
tp254
a(I1
g60
tp255
a(I2
g67
tp256
a(I0
g88
tp257
a(I1
g67
tp258
a(I2
g67
tp259
a(I0
g67
tp260
a(I1
g67
tp261
a(I2
g71
tp262
a(I0
g60
tp263
a(I1
g71
tp264
a(I2
g71
tp265
a(I0
g71
tp266
a(I1
g71
tp267
a(I2
g64
tp268
a(I0
g60
tp269
a(I1
g64
tp270
a(I2
g64
tp271
a(I0
g64
tp272
a(I1
g64
tp273
a(I2
g60
tp274
a(I0
g88
tp275
a(I1
g60
tp276
a(I2
g60
tp277
a(I0
g64
tp278
a(I1
g60
tp279
a(I2
g67
tp280
a(I0
g88
tp281
a(I1
g67
tp282
a(I2
g67
tp283
a(I0
g67
tp284
a(I1
g67
tp285
a(I2
g71
tp286
a(I0
g71
tp287
a(I1
g71
tp288
a(I2
g71
tp289
a(I0
g60
tp290
a(I1
g71
tp291
a(I2
g64
tp292
a(I0
g67
tp293
a(I1
g64
tp294
a(I2
g64
tp295
a(I0
g60
tp296
a(I1
g64
tp297
a(I2
g60
tp298
a(I0
g88
tp299
a(I1
g60
tp300
a(I2
g60
tp301
a(I0
g88
tp302
a(I1
g60
tp303
a(I2
g67
tp304
a(I0
g71
tp305
a(I1
g67
tp306
a(I2
g67
tp307
a(I0
g64
tp308
a(I1
g67
tp309
a(I2
g71
tp310
a(I0
g60
tp311
a(I1
g71
tp312
a(I2
g71
tp313
a(I0
g64
tp314
a(I1
g71
tp315
a(I2
g64
tp316
a(I0
g88
tp317
a(I1
g64
tp318
a(I2
g64
tp319
a(I0
g60
tp320
a(I1
g64
tp321
a(I2
g60
tp322
a(I0
g60
tp323
a(I1
g60
tp324
a(I2
g60
tp325
a(I0
g71
tp326
a(I1
g60
tp327
a(I2
g67
tp328
a(I0
g60
tp329
a(I1
g67
tp330
a(I2
g67
tp331
a(I0
g88
tp332
a(I1
g67
tp333
a(I2
g71
tp334
a(I0
g60
tp335
a(I1
g71
tp336
a(I2
g71
tp337
a(I0
g60
tp338
a(I1
g71
tp339
a(I2
g64
tp340
a(I0
g71
tp341
a(I1
g71
tp342
a(I2
g64
tp343
a(I0
g60
tp344
a(I1
g67
tp345
a(I2
g60
tp346
a(I0
g88
tp347
a(I1
g71
tp348
a(I2
g60
tp349
a(I0
g88
tp350
a(I1
g71
tp351
a(I2
g67
tp352
a(I0
g88
tp353
a(I1
g71
tp354
a(I2
g67
tp355
a(I0
g88
tp356
a(I1
g64
tp357
a(I2
g71
tp358
a(I0
g71
tp359
a(I1
g64
tp360
a(I2
g71
tp361
a(I0
g88
tp362
a(I1
g71
tp363
a(I2
g67
tp364
a(I0
g71
tp365
a(I1
g64
tp366
a(I2
g67
tp367
a(I0
g88
tp368
a(I1
g60
tp369
a(I2
g60
tp370
a(I0
g60
tp371
a(I1
g60
tp372
a(I2
g67
tp373
as.