(dp1
S'layout'
p2
(ilayout
Layout
p3
(dp4
S'numGhosts'
p5
I2
sS'food'
p6
(igame
Grid
p7
(dp8
S'CELLS_PER_INT'
p9
I30
sS'width'
p10
I7
sS'data'
p11
(lp12
(lp13
I00
aI00
aI00
aI00
aI00
aI00
aI00
aa(lp14
I00
aI00
aI01
aI00
aI00
aI00
aI00
aa(lp15
I00
aI00
aI00
aI00
aI01
aI00
aI00
aa(lp16
I00
aI00
aI01
aI01
aI01
aI01
aI00
aa(lp17
I00
aI00
aI01
aI01
aI00
aI00
aI00
aa(lp18
I00
aI00
aI01
aI01
aI00
aI00
aI00
aa(lp19
I00
aI00
aI00
aI00
aI00
aI00
aI00
aasS'height'
p20
I7
sbsS'agentPositions'
p21
(lp22
(I01
(I3
I1
tp23
tp24
a(I00
(I4
I5
tp25
tp26
a(I00
(I5
I5
tp27
tp28
asg20
I7
sg10
I7
sS'walls'
p29
(igame
Grid
p30
(dp31
g9
I30
sg10
I7
sg11
(lp32
(lp33
I01
aI01
aI01
aI01
aI01
aI01
aI01
aa(lp34
I01
aI00
aI00
aI01
aI00
aI00
aI01
aa(lp35
I01
aI00
aI01
aI01
aI00
aI01
aI01
aa(lp36
I01
aI00
aI00
aI00
aI00
aI00
aI01
aa(lp37
I01
aI01
aI00
aI00
aI01
aI00
aI01
aa(lp38
I01
aI01
aI00
aI00
aI01
aI00
aI01
aa(lp39
I01
aI01
aI01
aI01
aI01
aI01
aI01
aasg20
I7
sbsS'layoutText'
p40
(lp41
S'%%%%%%%'
p42
aS'% %.GG%'
p43
aS'% ..%%%'
p44
aS'%%%...%'
p45
aS'%.%...%'
p46
aS'%  P%%%'
p47
aS'%%%%%%%'
p48
asbsS'actions'
p49
(lp50
(I0
S'North'
p51
tp52
a(I1
S'West'
p53
tp54
a(I2
g53
tp55
a(I0
S'South'
p56
tp57
a(I1
g56
tp58
a(I2
g53
tp59
a(I0
S'Stop'
p60
tp61
a(I1
g53
tp62
a(I2
g56
tp63
a(I0
g51
tp64
a(I1
g53
tp65
a(I2
g53
tp66
a(I0
g56
tp67
a(I1
g51
tp68
a(I2
g53
tp69
a(I0
g51
tp70
a(I1
g56
tp71
a(I2
g51
tp72
a(I0
S'East'
p73
tp74
a(I1
g73
tp75
a(I2
g56
tp76
a(I0
g51
tp77
a(I1
g73
tp78
a(I2
g73
tp79
a(I0
g73
tp80
a(I1
g56
tp81
a(I2
g73
tp82
a(I0
g56
tp83
a(I1
g56
tp84
a(I2
g51
tp85
a(I0
g53
tp86
a(I1
g73
tp87
as.