(dp1
S'layout'
p2
(ilayout
Layout
p3
(dp4
S'numGhosts'
p5
I2
sS'food'
p6
(igame
Grid
p7
(dp8
S'CELLS_PER_INT'
p9
I30
sS'width'
p10
I10
sS'data'
p11
(lp12
(lp13
I00
aI00
aI00
aI00
aI00
aI00
aI00
aI00
aI00
aI00
aa(lp14
I00
aI01
aI00
aI00
aI00
aI00
aI01
aI00
aI01
aI00
aa(lp15
I00
aI01
aI00
aI00
aI00
aI00
aI01
aI00
aI00
aI00
aa(lp16
I00
aI00
aI00
aI00
aI01
aI01
aI01
aI00
aI00
aI00
aa(lp17
I00
aI00
aI00
aI00
aI00
aI00
aI01
aI00
aI00
aI00
aa(lp18
I00
aI00
aI00
aI01
aI00
aI01
aI01
aI01
aI01
aI00
aa(lp19
I00
aI01
aI00
aI00
aI00
aI00
aI00
aI00
aI01
aI00
aa(lp20
I00
aI00
aI00
aI00
aI01
aI01
aI01
aI01
aI00
aI00
aa(lp21
I00
aI00
aI00
aI00
aI00
aI00
aI00
aI00
aI00
aI00
aa(lp22
I00
aI00
aI00
aI00
aI00
aI00
aI00
aI00
aI00
aI00
aasS'height'
p23
I10
sbsS'agentPositions'
p24
(lp25
(I01
(I7
I1
tp26
tp27
a(I00
(I7
I8
tp28
tp29
a(I00
(I8
I8
tp30
tp31
asg23
I10
sg10
I10
sS'walls'
p32
(igame
Grid
p33
(dp34
g9
I30
sg10
I10
sg11
(lp35
(lp36
I01
aI01
aI01
aI01
aI01
aI01
aI01
aI01
aI01
aI01
aa(lp37
I01
aI00
aI01
aI00
aI01
aI01
aI00
aI00
aI00
aI01
aa(lp38
I01
aI00
aI01
aI00
aI00
aI01
aI00
aI01
aI00
aI01
aa(lp39
I01
aI00
aI00
aI00
aI00
aI00
aI00
aI00
aI00
aI01
aa(lp40
I01
aI01
aI01
aI00
aI00
aI00
aI00
aI01
aI01
aI01
aa(lp41
I01
aI00
aI00
aI00
aI01
aI00
aI00
aI00
aI00
aI01
aa(lp42
I01
aI00
aI00
aI00
aI00
aI00
aI01
aI01
aI00
aI01
aa(lp43
I01
aI00
aI00
aI01
aI00
aI00
aI00
aI00
aI00
aI01
aa(lp44
I01
aI00
aI01
aI01
aI00
aI01
aI01
aI00
aI00
aI01
aa(lp45
I01
aI01
aI01
aI01
aI01
aI01
aI01
aI01
aI01
aI01
aasg23
I10
sbsS'layoutText'
p46
(lp47
S'%%%%%%%%%%'
p48
aS'%.  %..GG%'
p49
aS'% % %.%. %'
p50
aS'%.....%.%%'
p51
aS'%%%. . .%%'
p52
aS'%% . % . %'
p53
aS'%    . %%%'
p54
aS'%%% %   %%'
p55
aS'%.. % .P %'
p56
aS'%%%%%%%%%%'
p57
asbsS'actions'
p58
(lp59
(I0
S'West'
p60
tp61
a(I1
S'East'
p62
tp63
a(I2
S'South'
p64
tp65
a(I0
g60
tp66
a(I1
g64
tp67
a(I2
g60
tp68
a(I0
S'Stop'
p69
tp70
a(I1
g60
tp71
a(I2
S'North'
p72
tp73
a(I0
g72
tp74
a(I1
g72
tp75
a(I2
g62
tp76
a(I0
g72
tp77
a(I1
g60
tp78
a(I2
g64
tp79
a(I0
g62
tp80
a(I1
g60
tp81
a(I2
g60
tp82
a(I0
g60
tp83
a(I1
g64
tp84
a(I2
g72
tp85
a(I0
g69
tp86
a(I1
g64
tp87
a(I2
g62
tp88
a(I0
g60
tp89
a(I1
g64
tp90
a(I2
g64
tp91
a(I0
g60
tp92
a(I1
g60
tp93
a(I2
g60
tp94
a(I0
g64
tp95
a(I1
g60
tp96
a(I2
g72
tp97
a(I0
g69
tp98
a(I1
g72
tp99
a(I2
g62
tp100
a(I0
g64
tp101
a(I1
g72
tp102
a(I2
g64
tp103
a(I0
g72
tp104
a(I1
g72
tp105
a(I2
g60
tp106
a(I0
g72
tp107
a(I1
g60
tp108
a(I2
g64
tp109
a(I0
g69
tp110
a(I1
g60
tp111
a(I2
g64
tp112
a(I0
g72
tp113
a(I1
g64
tp114
a(I2
g64
tp115
a(I0
g60
tp116
a(I1
g64
tp117
a(I2
g62
tp118
a(I0
g62
tp119
a(I1
g62
tp120
a(I2
g60
tp121
a(I0
g62
tp122
a(I1
g62
tp123
a(I2
g60
tp124
a(I0
g64
tp125
a(I1
g72
tp126
a(I2
g72
tp127
a(I0
g60
tp128
a(I1
g72
tp129
a(I2
g62
tp130
a(I0
g60
tp131
a(I1
g60
tp132
a(I2
g72
tp133
a(I0
g62
tp134
a(I1
g60
tp135
a(I2
g72
tp136
a(I0
g72
tp137
a(I1
g64
tp138
a(I2
g72
tp139
a(I0
g72
tp140
a(I1
g64
tp141
a(I2
g62
tp142
a(I0
g62
tp143
a(I1
g62
tp144
a(I2
g64
tp145
a(I0
g64
tp146
a(I1
g62
tp147
a(I2
g60
tp148
a(I0
g64
tp149
a(I1
g72
tp150
a(I2
g64
tp151
a(I0
g60
tp152
a(I1
g72
tp153
a(I2
g64
tp154
a(I0
g69
tp155
a(I1
g60
tp156
a(I2
g64
tp157
a(I0
g60
tp158
a(I1
g60
tp159
a(I2
g62
tp160
a(I0
g62
tp161
a(I1
g64
tp162
a(I2
g60
tp163
a(I0
g64
tp164
a(I1
g64
tp165
a(I2
g72
tp166
a(I0
g72
tp167
a(I1
g62
tp168
a(I2
g72
tp169
a(I0
g64
tp170
a(I1
g62
tp171
a(I2
g72
tp172
a(I0
g64
tp173
a(I1
g62
tp174
a(I2
g72
tp175
a(I0
g60
tp176
a(I1
g62
tp177
a(I2
g62
tp178
a(I0
g69
tp179
a(I1
g72
tp180
a(I2
g64
tp181
a(I0
g62
tp182
a(I1
g72
tp183
a(I2
g60
tp184
a(I0
g60
tp185
a(I1
g62
tp186
a(I2
g64
tp187
a(I0
g69
tp188
a(I1
g62
tp189
a(I2
g64
tp190
a(I0
g60
tp191
a(I1
g62
tp192
a(I2
g60
tp193
a(I0
g62
tp194
a(I1
g64
tp195
a(I2
g60
tp196
a(I0
g69
tp197
a(I1
g60
tp198
a(I2
g72
tp199
a(I0
g60
tp200
a(I1
g72
tp201
a(I2
g72
tp202
a(I0
g69
tp203
a(I1
g60
tp204
a(I2
g72
tp205
a(I0
g62
tp206
a(I1
g60
tp207
a(I2
g62
tp208
a(I0
g60
tp209
a(I1
g64
tp210
a(I2
g62
tp211
a(I0
g62
tp212
a(I1
g64
tp213
a(I2
g62
tp214
a(I0
g62
tp215
a(I1
g60
tp216
a(I2
g64
tp217
a(I0
g72
tp218
a(I1
g60
tp219
a(I2
g60
tp220
a(I0
g72
tp221
a(I1
g72
tp222
a(I2
g64
tp223
a(I0
g60
tp224
a(I1
g72
tp225
a(I2
g64
tp226
a(I0
g62
tp227
a(I1
g60
tp228
a(I2
g60
tp229
a(I0
g60
tp230
a(I1
g60
tp231
a(I2
g60
tp232
a(I0
g72
tp233
a(I1
g64
tp234
a(I2
g60
tp235
a(I0
g69
tp236
a(I1
g64
tp237
a(I2
g64
tp238
a(I0
g69
tp239
a(I1
g62
tp240
a(I2
g64
tp241
a(I0
g69
tp242
a(I1
g62
tp243
a(I2
g60
tp244
a(I0
g62
tp245
a(I1
g72
tp246
a(I2
g72
tp247
as.