(dp1
S'layout'
p2
(ilayout
Layout
p3
(dp4
S'numGhosts'
p5
I2
sS'food'
p6
(igame
Grid
p7
(dp8
S'CELLS_PER_INT'
p9
I30
sS'width'
p10
I10
sS'data'
p11
(lp12
(lp13
I00
aI00
aI00
aI00
aI00
aI00
aI00
aI00
aI00
aI00
aa(lp14
I00
aI00
aI00
aI01
aI00
aI00
aI00
aI00
aI00
aI00
aa(lp15
I00
aI00
aI00
aI00
aI01
aI00
aI00
aI00
aI00
aI00
aa(lp16
I00
aI01
aI01
aI01
aI01
aI01
aI01
aI01
aI01
aI00
aa(lp17
I00
aI00
aI00
aI01
aI01
aI00
aI00
aI00
aI00
aI00
aa(lp18
I00
aI00
aI00
aI00
aI00
aI01
aI01
aI01
aI01
aI00
aa(lp19
I00
aI00
aI00
aI00
aI00
aI00
aI00
aI00
aI00
aI00
aa(lp20
I00
aI00
aI00
aI00
aI01
aI01
aI01
aI01
aI00
aI00
aa(lp21
I00
aI00
aI00
aI00
aI00
aI00
aI00
aI00
aI00
aI00
aa(lp22
I00
aI00
aI00
aI00
aI00
aI00
aI00
aI00
aI00
aI00
aasS'height'
p23
I10
sbsS'agentPositions'
p24
(lp25
(I01
(I7
I1
tp26
tp27
a(I00
(I7
I8
tp28
tp29
a(I00
(I8
I8
tp30
tp31
asg23
I10
sg10
I10
sS'walls'
p32
(igame
Grid
p33
(dp34
g9
I30
sg10
I10
sg11
(lp35
(lp36
I01
aI01
aI01
aI01
aI01
aI01
aI01
aI01
aI01
aI01
aa(lp37
I01
aI00
aI01
aI00
aI01
aI01
aI00
aI00
aI00
aI01
aa(lp38
I01
aI00
aI01
aI00
aI00
aI01
aI00
aI01
aI00
aI01
aa(lp39
I01
aI00
aI00
aI00
aI00
aI00
aI00
aI00
aI00
aI01
aa(lp40
I01
aI01
aI01
aI00
aI00
aI00
aI00
aI01
aI01
aI01
aa(lp41
I01
aI00
aI00
aI00
aI01
aI00
aI00
aI00
aI00
aI01
aa(lp42
I01
aI00
aI00
aI00
aI00
aI00
aI01
aI01
aI00
aI01
aa(lp43
I01
aI00
aI00
aI01
aI00
aI00
aI00
aI00
aI00
aI01
aa(lp44
I01
aI00
aI01
aI01
aI00
aI01
aI01
aI00
aI00
aI01
aa(lp45
I01
aI01
aI01
aI01
aI01
aI01
aI01
aI01
aI01
aI01
aasg23
I10
sbsS'layoutText'
p46
(lp47
S'%%%%%%%%%%'
p48
aS'%  .%. GG%'
p49
aS'% %.%.%. %'
p50
aS'%  . .%.%%'
p51
aS'%%%. . .%%'
p52
aS'%%...% . %'
p53
aS'%. ..  %%%'
p54
aS'%%%.%   %%'
p55
aS'%  .%  P %'
p56
aS'%%%%%%%%%%'
p57
asbsS'actions'
p58
(lp59
(I0
S'West'
p60
tp61
a(I1
g60
tp62
a(I2
S'South'
p63
tp64
a(I0
g60
tp65
a(I1
g60
tp66
a(I2
g60
tp67
a(I0
S'East'
p68
tp69
a(I1
g63
tp70
a(I2
S'North'
p71
tp72
a(I0
g71
tp73
a(I1
g63
tp74
a(I2
g68
tp75
a(I0
g71
tp76
a(I1
g60
tp77
a(I2
g63
tp78
a(I0
g71
tp79
a(I1
g60
tp80
a(I2
g60
tp81
a(I0
g68
tp82
a(I1
g71
tp83
a(I2
g71
tp84
a(I0
g71
tp85
a(I1
g71
tp86
a(I2
g68
tp87
a(I0
g71
tp88
a(I1
g60
tp89
a(I2
g63
tp90
a(I0
g63
tp91
a(I1
g60
tp92
a(I2
g60
tp93
a(I0
g60
tp94
a(I1
g63
tp95
a(I2
g71
tp96
a(I0
g60
tp97
a(I1
g63
tp98
a(I2
g68
tp99
a(I0
g71
tp100
a(I1
g68
tp101
a(I2
g63
tp102
a(I0
g71
tp103
a(I1
g68
tp104
a(I2
g60
tp105
a(I0
g71
tp106
a(I1
g71
tp107
a(I2
g63
tp108
a(I0
S'Stop'
p109
tp110
a(I1
g71
tp111
a(I2
g63
tp112
a(I0
g63
tp113
a(I1
g60
tp114
a(I2
g60
tp115
a(I0
g109
tp116
a(I1
g60
tp117
a(I2
g60
tp118
a(I0
g109
tp119
a(I1
g63
tp120
a(I2
g71
tp121
a(I0
g71
tp122
a(I1
g63
tp123
a(I2
g71
tp124
a(I0
g109
tp125
a(I1
g68
tp126
a(I2
g71
tp127
as.