(dp1
S'layout'
p2
(ilayout
Layout
p3
(dp4
S'numGhosts'
p5
I2
sS'food'
p6
(igame
Grid
p7
(dp8
S'CELLS_PER_INT'
p9
I30
sS'width'
p10
I10
sS'data'
p11
(lp12
(lp13
I00
aI00
aI00
aI00
aI00
aI00
aI00
aI00
aI00
aI00
aa(lp14
I00
aI00
aI00
aI01
aI00
aI00
aI00
aI00
aI00
aI00
aa(lp15
I00
aI00
aI00
aI00
aI01
aI00
aI00
aI00
aI00
aI00
aa(lp16
I00
aI01
aI01
aI01
aI01
aI01
aI01
aI01
aI01
aI00
aa(lp17
I00
aI00
aI00
aI01
aI01
aI00
aI00
aI00
aI00
aI00
aa(lp18
I00
aI00
aI00
aI00
aI00
aI01
aI01
aI01
aI01
aI00
aa(lp19
I00
aI00
aI00
aI00
aI00
aI00
aI00
aI00
aI00
aI00
aa(lp20
I00
aI00
aI00
aI00
aI01
aI01
aI01
aI01
aI00
aI00
aa(lp21
I00
aI00
aI00
aI00
aI00
aI00
aI00
aI00
aI00
aI00
aa(lp22
I00
aI00
aI00
aI00
aI00
aI00
aI00
aI00
aI00
aI00
aasS'height'
p23
I10
sbsS'agentPositions'
p24
(lp25
(I01
(I7
I1
tp26
tp27
a(I00
(I7
I8
tp28
tp29
a(I00
(I8
I8
tp30
tp31
asg23
I10
sg10
I10
sS'walls'
p32
(igame
Grid
p33
(dp34
g9
I30
sg10
I10
sg11
(lp35
(lp36
I01
aI01
aI01
aI01
aI01
aI01
aI01
aI01
aI01
aI01
aa(lp37
I01
aI00
aI01
aI00
aI01
aI01
aI00
aI00
aI00
aI01
aa(lp38
I01
aI00
aI01
aI00
aI00
aI01
aI00
aI01
aI00
aI01
aa(lp39
I01
aI00
aI00
aI00
aI00
aI00
aI00
aI00
aI00
aI01
aa(lp40
I01
aI01
aI01
aI00
aI00
aI00
aI00
aI01
aI01
aI01
aa(lp41
I01
aI00
aI00
aI00
aI01
aI00
aI00
aI00
aI00
aI01
aa(lp42
I01
aI00
aI00
aI00
aI00
aI00
aI01
aI01
aI00
aI01
aa(lp43
I01
aI00
aI00
aI01
aI00
aI00
aI00
aI00
aI00
aI01
aa(lp44
I01
aI00
aI01
aI01
aI00
aI01
aI01
aI00
aI00
aI01
aa(lp45
I01
aI01
aI01
aI01
aI01
aI01
aI01
aI01
aI01
aI01
aasg23
I10
sbsS'layoutText'
p46
(lp47
S'%%%%%%%%%%'
p48
aS'%  .%. GG%'
p49
aS'% %.%.%. %'
p50
aS'%  . .%.%%'
p51
aS'%%%. . .%%'
p52
aS'%%...% . %'
p53
aS'%. ..  %%%'
p54
aS'%%%.%   %%'
p55
aS'%  .%  P %'
p56
aS'%%%%%%%%%%'
p57
asbsS'actions'
p58
(lp59
(I0
S'West'
p60
tp61
a(I1
S'South'
p62
tp63
a(I2
g60
tp64
a(I0
g60
tp65
a(I1
S'East'
p66
tp67
a(I2
g60
tp68
a(I0
S'North'
p69
tp70
a(I1
g69
tp71
a(I2
g60
tp72
a(I0
g69
tp73
a(I1
g60
tp74
a(I2
g62
tp75
a(I0
g60
tp76
a(I1
g62
tp77
a(I2
g62
tp78
a(I0
g69
tp79
a(I1
g66
tp80
a(I2
g62
tp81
a(I0
g60
tp82
a(I1
g69
tp83
a(I2
g66
tp84
a(I0
g62
tp85
a(I1
g60
tp86
a(I2
g66
tp87
a(I0
g62
tp88
a(I1
g62
tp89
a(I2
g62
tp90
a(I0
g69
tp91
a(I1
g66
tp92
a(I2
g66
tp93
a(I0
g62
tp94
a(I1
g69
tp95
a(I2
g60
tp96
a(I0
S'Stop'
p97
tp98
a(I1
g60
tp99
a(I2
g69
tp100
a(I0
g97
tp101
a(I1
g60
tp102
a(I2
g69
tp103
a(I0
g62
tp104
a(I1
g60
tp105
a(I2
g69
tp106
a(I0
g97
tp107
a(I1
g62
tp108
a(I2
g66
tp109
a(I0
g60
tp110
a(I1
g62
tp111
a(I2
g69
tp112
a(I0
g60
tp113
a(I1
g60
tp114
a(I2
g60
tp115
a(I0
g66
tp116
a(I1
g60
tp117
a(I2
g60
tp118
a(I0
g60
tp119
a(I1
g69
tp120
a(I2
g60
tp121
a(I0
g97
tp122
a(I1
g69
tp123
a(I2
g62
tp124
a(I0
g97
tp125
a(I1
g60
tp126
a(I2
g62
tp127
a(I0
g66
tp128
a(I1
g60
tp129
a(I2
g60
tp130
a(I0
g97
tp131
a(I1
g62
tp132
a(I2
g62
tp133
a(I0
g66
tp134
a(I1
g62
tp135
a(I2
g66
tp136
a(I0
g60
tp137
a(I1
g66
tp138
a(I2
g69
tp139
a(I0
g97
tp140
a(I1
g66
tp141
a(I2
g69
tp142
a(I0
g97
tp143
a(I1
g66
tp144
a(I2
g69
tp145
a(I0
g66
tp146
a(I1
g66
tp147
a(I2
g66
tp148
a(I0
g97
tp149
a(I1
g69
tp150
a(I2
g66
tp151
a(I0
g97
tp152
a(I1
g69
tp153
a(I2
g66
tp154
a(I0
g97
tp155
a(I1
g66
tp156
a(I2
g62
tp157
a(I0
g97
tp158
a(I1
g66
tp159
a(I2
g60
tp160
a(I0
g60
tp161
a(I1
g66
tp162
a(I2
g69
tp163
a(I0
g66
tp164
a(I1
g62
tp165
a(I2
g66
tp166
a(I0
g60
tp167
a(I1
g60
tp168
a(I2
g62
tp169
a(I0
g97
tp170
a(I1
g69
tp171
a(I2
g60
tp172
a(I0
g66
tp173
a(I1
g66
tp174
a(I2
g62
tp175
a(I0
g97
tp176
a(I1
g62
tp177
a(I2
g62
tp178
a(I0
g97
tp179
a(I1
g60
tp180
a(I2
g62
tp181
a(I0
g69
tp182
a(I1
g62
tp183
a(I2
g66
tp184
a(I0
g62
tp185
a(I1
g62
tp186
a(I2
g60
tp187
a(I0
g97
tp188
a(I1
g60
tp189
a(I2
g69
tp190
a(I0
g60
tp191
a(I1
g60
tp192
a(I2
g69
tp193
a(I0
g97
tp194
a(I1
g69
tp195
a(I2
g69
tp196
a(I0
g97
tp197
a(I1
g69
tp198
a(I2
g69
tp199
a(I0
g66
tp200
a(I1
g69
tp201
a(I2
g66
tp202
a(I0
g69
tp203
a(I1
g66
tp204
a(I2
g62
tp205
a(I0
g97
tp206
a(I1
g66
tp207
a(I2
g60
tp208
a(I0
g97
tp209
a(I1
g66
tp210
a(I2
g69
tp211
a(I0
g62
tp212
a(I1
g62
tp213
a(I2
g66
tp214
a(I0
g60
tp215
a(I1
g60
tp216
a(I2
g62
tp217
a(I0
g97
tp218
a(I1
g69
tp219
a(I2
g60
tp220
a(I0
g66
tp221
a(I1
g66
tp222
a(I2
g69
tp223
a(I0
g60
tp224
a(I1
g62
tp225
a(I2
g66
tp226
a(I0
g60
tp227
a(I1
g60
tp228
a(I2
g62
tp229
a(I0
g66
tp230
a(I1
g69
tp231
a(I2
g60
tp232
a(I0
g60
tp233
a(I1
g66
tp234
a(I2
g69
tp235
a(I0
g97
tp236
a(I1
g62
tp237
a(I2
g66
tp238
a(I0
g97
tp239
a(I1
g60
tp240
a(I2
g62
tp241
a(I0
g66
tp242
a(I1
g69
tp243
a(I2
g60
tp244
a(I0
g60
tp245
a(I1
g66
tp246
a(I2
g69
tp247
a(I0
g97
tp248
a(I1
g62
tp249
a(I2
g66
tp250
a(I0
g66
tp251
a(I1
g60
tp252
a(I2
g62
tp253
a(I0
g66
tp254
a(I1
g69
tp255
a(I2
g60
tp256
a(I0
g97
tp257
a(I1
g66
tp258
a(I2
g69
tp259
a(I0
g69
tp260
a(I1
g62
tp261
a(I2
g66
tp262
a(I0
g62
tp263
a(I1
g60
tp264
a(I2
g62
tp265
a(I0
g60
tp266
a(I1
g69
tp267
a(I2
g60
tp268
a(I0
g60
tp269
a(I1
g66
tp270
a(I2
g62
tp271
a(I0
g66
tp272
a(I1
g62
tp273
a(I2
g62
tp274
a(I0
g97
tp275
a(I1
g60
tp276
a(I2
g62
tp277
a(I0
g97
tp278
a(I1
g69
tp279
a(I2
g66
tp280
a(I0
g60
tp281
a(I1
g66
tp282
a(I2
g60
tp283
a(I0
g97
tp284
a(I1
g62
tp285
a(I2
g69
tp286
a(I0
g66
tp287
a(I1
g60
tp288
a(I2
g60
tp289
a(I0
g97
tp290
a(I1
g69
tp291
a(I2
g62
tp292
a(I0
g66
tp293
a(I1
g60
tp294
a(I2
g66
tp295
a(I0
g69
tp296
a(I1
g60
tp297
a(I2
g69
tp298
a(I0
g62
tp299
a(I1
g62
tp300
a(I2
g69
tp301
a(I0
g60
tp302
a(I1
g62
tp303
a(I2
g69
tp304
a(I0
g97
tp305
a(I1
g60
tp306
a(I2
g66
tp307
a(I0
g66
tp308
a(I1
g62
tp309
a(I2
g69
tp310
a(I0
g60
tp311
a(I1
g60
tp312
a(I2
g60
tp313
a(I0
g66
tp314
a(I1
g69
tp315
a(I2
g62
tp316
a(I0
g60
tp317
a(I1
g69
tp318
a(I2
g66
tp319
a(I0
g60
tp320
a(I1
g69
tp321
a(I2
g69
tp322
a(I0
g66
tp323
a(I1
g60
tp324
a(I2
g60
tp325
a(I0
g97
tp326
a(I1
g60
tp327
a(I2
g62
tp328
a(I0
g97
tp329
a(I1
g62
tp330
a(I2
g66
tp331
a(I0
g60
tp332
a(I1
g62
tp333
a(I2
g69
tp334
a(I0
g66
tp335
a(I1
g66
tp336
a(I2
g60
tp337
a(I0
g66
tp338
a(I1
g66
tp339
a(I2
g62
tp340
a(I0
g69
tp341
a(I1
g66
tp342
a(I2
g62
tp343
a(I0
g97
tp344
a(I1
g62
tp345
a(I2
g62
tp346
a(I0
g97
tp347
a(I1
g60
tp348
a(I2
g62
tp349
a(I0
g69
tp350
a(I1
g62
tp351
a(I2
g66
tp352
a(I0
g69
tp353
as.