(dp1
S'layout'
p2
(ilayout
Layout
p3
(dp4
S'numGhosts'
p5
I2
sS'food'
p6
(igame
Grid
p7
(dp8
S'CELLS_PER_INT'
p9
I30
sS'width'
p10
I10
sS'data'
p11
(lp12
(lp13
I00
aI00
aI00
aI00
aI00
aI00
aI00
aI00
aI00
aI00
aa(lp14
I00
aI00
aI00
aI01
aI00
aI00
aI00
aI00
aI00
aI00
aa(lp15
I00
aI00
aI00
aI00
aI01
aI00
aI00
aI00
aI00
aI00
aa(lp16
I00
aI01
aI01
aI01
aI01
aI01
aI01
aI01
aI01
aI00
aa(lp17
I00
aI00
aI00
aI01
aI01
aI00
aI00
aI00
aI00
aI00
aa(lp18
I00
aI00
aI00
aI00
aI00
aI01
aI01
aI01
aI01
aI00
aa(lp19
I00
aI00
aI00
aI00
aI00
aI00
aI00
aI00
aI00
aI00
aa(lp20
I00
aI00
aI00
aI00
aI01
aI01
aI01
aI01
aI00
aI00
aa(lp21
I00
aI00
aI00
aI00
aI00
aI00
aI00
aI00
aI00
aI00
aa(lp22
I00
aI00
aI00
aI00
aI00
aI00
aI00
aI00
aI00
aI00
aasS'height'
p23
I10
sbsS'agentPositions'
p24
(lp25
(I01
(I7
I1
tp26
tp27
a(I00
(I7
I8
tp28
tp29
a(I00
(I8
I8
tp30
tp31
asg23
I10
sg10
I10
sS'walls'
p32
(igame
Grid
p33
(dp34
g9
I30
sg10
I10
sg11
(lp35
(lp36
I01
aI01
aI01
aI01
aI01
aI01
aI01
aI01
aI01
aI01
aa(lp37
I01
aI00
aI01
aI00
aI01
aI01
aI00
aI00
aI00
aI01
aa(lp38
I01
aI00
aI01
aI00
aI00
aI01
aI00
aI01
aI00
aI01
aa(lp39
I01
aI00
aI00
aI00
aI00
aI00
aI00
aI00
aI00
aI01
aa(lp40
I01
aI01
aI01
aI00
aI00
aI00
aI00
aI01
aI01
aI01
aa(lp41
I01
aI00
aI00
aI00
aI01
aI00
aI00
aI00
aI00
aI01
aa(lp42
I01
aI00
aI00
aI00
aI00
aI00
aI01
aI01
aI00
aI01
aa(lp43
I01
aI00
aI00
aI01
aI00
aI00
aI00
aI00
aI00
aI01
aa(lp44
I01
aI00
aI01
aI01
aI00
aI01
aI01
aI00
aI00
aI01
aa(lp45
I01
aI01
aI01
aI01
aI01
aI01
aI01
aI01
aI01
aI01
aasg23
I10
sbsS'layoutText'
p46
(lp47
S'%%%%%%%%%%'
p48
aS'%  .%. GG%'
p49
aS'% %.%.%. %'
p50
aS'%  . .%.%%'
p51
aS'%%%. . .%%'
p52
aS'%%...% . %'
p53
aS'%. ..  %%%'
p54
aS'%%%.%   %%'
p55
aS'%  .%  P %'
p56
aS'%%%%%%%%%%'
p57
asbsS'actions'
p58
(lp59
(I0
S'West'
p60
tp61
a(I1
g60
tp62
a(I2
g60
tp63
a(I0
S'North'
p64
tp65
a(I1
g60
tp66
a(I2
g60
tp67
a(I0
g60
tp68
a(I1
S'South'
p69
tp70
a(I2
g60
tp71
a(I0
g64
tp72
a(I1
g69
tp73
a(I2
g69
tp74
a(I0
g69
tp75
a(I1
g60
tp76
a(I2
g69
tp77
a(I0
g64
tp78
a(I1
g60
tp79
a(I2
g60
tp80
a(I0
g60
tp81
a(I1
g64
tp82
a(I2
g69
tp83
a(I0
g60
tp84
a(I1
g64
tp85
a(I2
g60
tp86
a(I0
g69
tp87
a(I1
g60
tp88
a(I2
g69
tp89
a(I0
g69
tp90
a(I1
g60
tp91
a(I2
S'East'
p92
tp93
a(I0
g60
tp94
a(I1
g69
tp95
a(I2
g64
tp96
a(I0
S'Stop'
p97
tp98
a(I1
g69
tp99
a(I2
g60
tp100
a(I0
g97
tp101
a(I1
g92
tp102
a(I2
g64
tp103
a(I0
g60
tp104
a(I1
g92
tp105
a(I2
g64
tp106
a(I0
g92
tp107
a(I1
g64
tp108
a(I2
g64
tp109
a(I0
g97
tp110
a(I1
g64
tp111
a(I2
g60
tp112
a(I0
g92
tp113
a(I1
g60
tp114
a(I2
g60
tp115
a(I0
g60
tp116
a(I1
g60
tp117
a(I2
g69
tp118
a(I0
g92
tp119
a(I1
g69
tp120
a(I2
g69
tp121
a(I0
g60
tp122
a(I1
g69
tp123
a(I2
g92
tp124
a(I0
g97
tp125
a(I1
g92
tp126
a(I2
g92
tp127
a(I0
g60
tp128
a(I1
g92
tp129
a(I2
g64
tp130
a(I0
g97
tp131
a(I1
g64
tp132
a(I2
g64
tp133
a(I0
g92
tp134
a(I1
g64
tp135
a(I2
g60
tp136
a(I0
g60
tp137
a(I1
g60
tp138
a(I2
g60
tp139
a(I0
g92
tp140
a(I1
g60
tp141
a(I2
g69
tp142
a(I0
g92
tp143
a(I1
g69
tp144
a(I2
g69
tp145
a(I0
g60
tp146
a(I1
g69
tp147
a(I2
g92
tp148
a(I0
g60
tp149
a(I1
g92
tp150
a(I2
g92
tp151
a(I0
g92
tp152
a(I1
g92
tp153
a(I2
g64
tp154
a(I0
g60
tp155
a(I1
g64
tp156
a(I2
g64
tp157
a(I0
g97
tp158
a(I1
g64
tp159
a(I2
g60
tp160
a(I0
g97
tp161
a(I1
g60
tp162
a(I2
g60
tp163
a(I0
g92
tp164
a(I1
g60
tp165
a(I2
g69
tp166
a(I0
g60
tp167
a(I1
g69
tp168
a(I2
g69
tp169
a(I0
g92
tp170
a(I1
g69
tp171
a(I2
g92
tp172
a(I0
g92
tp173
a(I1
g92
tp174
a(I2
g92
tp175
a(I0
g97
tp176
a(I1
g92
tp177
a(I2
g64
tp178
a(I0
g60
tp179
a(I1
g64
tp180
a(I2
g64
tp181
a(I0
g60
tp182
a(I1
g64
tp183
a(I2
g60
tp184
a(I0
g97
tp185
a(I1
g60
tp186
a(I2
g60
tp187
a(I0
g97
tp188
a(I1
g60
tp189
a(I2
g69
tp190
a(I0
g97
tp191
a(I1
g69
tp192
a(I2
g69
tp193
a(I0
g92
tp194
a(I1
g69
tp195
a(I2
g92
tp196
a(I0
g92
tp197
a(I1
g92
tp198
a(I2
g92
tp199
a(I0
g64
tp200
a(I1
g92
tp201
a(I2
g64
tp202
a(I0
g69
tp203
a(I1
g92
tp204
a(I2
g64
tp205
a(I0
g60
tp206
a(I1
g92
tp207
a(I2
g60
tp208
a(I0
g92
tp209
a(I1
g64
tp210
a(I2
g60
tp211
a(I0
g60
tp212
a(I1
g64
tp213
a(I2
g69
tp214
a(I0
g97
tp215
a(I1
g92
tp216
a(I2
g69
tp217
a(I0
g92
tp218
a(I1
g92
tp219
a(I2
g92
tp220
a(I0
g60
tp221
a(I1
g69
tp222
a(I2
g92
tp223
a(I0
g60
tp224
a(I1
g92
tp225
a(I2
g64
tp226
a(I0
g97
tp227
a(I1
g64
tp228
a(I2
g64
tp229
a(I0
g92
tp230
a(I1
g60
tp231
a(I2
g60
tp232
a(I0
g97
tp233
a(I1
g60
tp234
a(I2
g60
tp235
a(I0
g97
tp236
a(I1
g60
tp237
a(I2
g69
tp238
a(I0
g60
tp239
a(I1
g69
tp240
a(I2
g69
tp241
a(I0
g97
tp242
a(I1
g69
tp243
a(I2
g92
tp244
a(I0
g97
tp245
a(I1
g60
tp246
a(I2
g92
tp247
a(I0
g97
tp248
a(I1
g69
tp249
a(I2
g64
tp250
a(I0
g92
tp251
a(I1
g60
tp252
a(I2
g64
tp253
a(I0
g60
tp254
a(I1
g64
tp255
a(I2
g60
tp256
a(I0
g92
tp257
a(I1
g64
tp258
a(I2
g60
tp259
a(I0
g97
tp260
a(I1
g64
tp261
a(I2
g69
tp262
a(I0
g92
tp263
a(I1
g60
tp264
a(I2
g69
tp265
a(I0
g60
tp266
a(I1
g60
tp267
a(I2
g92
tp268
a(I0
g60
tp269
a(I1
g69
tp270
a(I2
g92
tp271
a(I0
g92
tp272
a(I1
g69
tp273
a(I2
g64
tp274
a(I0
g97
tp275
a(I1
g92
tp276
a(I2
g64
tp277
a(I0
g92
tp278
a(I1
g92
tp279
a(I2
g60
tp280
a(I0
g97
tp281
a(I1
g69
tp282
a(I2
g60
tp283
a(I0
g64
tp284
a(I1
g69
tp285
a(I2
g69
tp286
a(I0
g64
tp287
a(I1
g69
tp288
as.