(dp1
S'layout'
p2
(ilayout
Layout
p3
(dp4
S'numGhosts'
p5
I2
sS'food'
p6
(igame
Grid
p7
(dp8
S'CELLS_PER_INT'
p9
I30
sS'width'
p10
I10
sS'data'
p11
(lp12
(lp13
I00
aI00
aI00
aI00
aI00
aI00
aI00
aI00
aI00
aI00
aa(lp14
I00
aI01
aI00
aI00
aI00
aI00
aI01
aI00
aI00
aI00
aa(lp15
I00
aI00
aI00
aI00
aI00
aI00
aI01
aI00
aI00
aI00
aa(lp16
I00
aI00
aI00
aI00
aI00
aI00
aI01
aI01
aI00
aI00
aa(lp17
I00
aI00
aI00
aI00
aI01
aI01
aI01
aI00
aI00
aI00
aa(lp18
I00
aI00
aI00
aI00
aI00
aI01
aI01
aI01
aI01
aI00
aa(lp19
I00
aI01
aI00
aI00
aI00
aI01
aI00
aI00
aI00
aI00
aa(lp20
I00
aI01
aI00
aI00
aI01
aI01
aI01
aI01
aI00
aI00
aa(lp21
I00
aI00
aI00
aI00
aI00
aI00
aI00
aI01
aI00
aI00
aa(lp22
I00
aI00
aI00
aI00
aI00
aI00
aI00
aI00
aI00
aI00
aasS'height'
p23
I10
sbsS'agentPositions'
p24
(lp25
(I01
(I1
I3
tp26
tp27
a(I00
(I7
I8
tp28
tp29
a(I00
(I8
I8
tp30
tp31
asg23
I10
sg10
I10
sS'walls'
p32
(igame
Grid
p33
(dp34
g9
I30
sg10
I10
sg11
(lp35
(lp36
I01
aI01
aI01
aI01
aI01
aI01
aI01
aI01
aI01
aI01
aa(lp37
I01
aI00
aI01
aI00
aI01
aI01
aI00
aI00
aI00
aI01
aa(lp38
I01
aI00
aI01
aI00
aI00
aI01
aI00
aI01
aI00
aI01
aa(lp39
I01
aI00
aI00
aI00
aI00
aI00
aI00
aI00
aI00
aI01
aa(lp40
I01
aI01
aI01
aI00
aI00
aI00
aI00
aI01
aI01
aI01
aa(lp41
I01
aI00
aI00
aI00
aI01
aI00
aI00
aI00
aI00
aI01
aa(lp42
I01
aI00
aI00
aI00
aI00
aI00
aI01
aI01
aI00
aI01
aa(lp43
I01
aI00
aI00
aI01
aI00
aI00
aI00
aI00
aI00
aI01
aa(lp44
I01
aI00
aI01
aI01
aI00
aI01
aI01
aI00
aI00
aI01
aa(lp45
I01
aI01
aI01
aI01
aI01
aI01
aI01
aI01
aI01
aI01
aasg23
I10
sbsS'layoutText'
p46
(lp47
S'%%%%%%%%%%'
p48
aS'%   %. GG%'
p49
aS'% %.%.%..%'
p50
aS'%.....%.%%'
p51
aS'%%% ....%%'
p52
aS'%%  .% . %'
p53
aS'%P     %%%'
p54
aS'%%% %   %%'
p55
aS'%.  % .. %'
p56
aS'%%%%%%%%%%'
p57
asbsS'actions'
p58
(lp59
(I0
S'East'
p60
tp61
a(I1
g60
tp62
a(I2
S'South'
p63
tp64
a(I0
g60
tp65
a(I1
g63
tp66
a(I2
S'West'
p67
tp68
a(I0
S'North'
p69
tp70
a(I1
g67
tp71
a(I2
g63
tp72
a(I0
g60
tp73
a(I1
g63
tp74
a(I2
g63
tp75
a(I0
g69
tp76
a(I1
g63
tp77
a(I2
g63
tp78
a(I0
g69
tp79
a(I1
g67
tp80
a(I2
g67
tp81
a(I0
S'Stop'
p82
tp83
a(I1
g63
tp84
a(I2
g63
tp85
a(I0
g67
tp86
a(I1
g63
tp87
a(I2
g63
tp88
a(I0
g67
tp89
a(I1
g63
tp90
a(I2
g60
tp91
a(I0
g82
tp92
a(I1
g67
tp93
a(I2
g63
tp94
a(I0
g82
tp95
a(I1
g69
tp96
a(I2
g60
tp97
a(I0
g82
tp98
a(I1
g60
tp99
a(I2
g67
tp100
a(I0
g67
tp101
a(I1
g63
tp102
a(I2
g69
tp103
a(I0
g69
tp104
a(I1
g67
tp105
a(I2
g67
tp106
a(I0
g63
tp107
a(I1
g69
tp108
a(I2
g63
tp109
a(I0
g69
tp110
a(I1
g67
tp111
a(I2
g60
tp112
a(I0
g82
tp113
a(I1
g67
tp114
a(I2
g69
tp115
a(I0
g82
tp116
a(I1
g67
tp117
a(I2
g67
tp118
a(I0
g69
tp119
a(I1
g67
tp120
a(I2
g67
tp121
a(I0
g63
tp122
a(I1
g60
tp123
a(I2
g63
tp124
a(I0
g63
tp125
a(I1
g60
tp126
a(I2
g60
tp127
a(I0
g60
tp128
a(I1
g63
tp129
a(I2
g60
tp130
a(I0
g60
tp131
a(I1
g63
tp132
a(I2
g60
tp133
a(I0
g67
tp134
a(I1
g67
tp135
a(I2
g67
tp136
a(I0
g67
tp137
a(I1
g67
tp138
a(I2
g69
tp139
a(I0
g82
tp140
a(I1
g60
tp141
a(I2
g67
tp142
a(I0
g82
tp143
a(I1
g60
tp144
a(I2
g69
tp145
a(I0
g60
tp146
a(I1
g69
tp147
a(I2
g67
tp148
a(I0
g60
tp149
a(I1
g69
tp150
a(I2
g63
tp151
a(I0
g82
tp152
a(I1
g67
tp153
a(I2
g60
tp154
a(I0
g60
tp155
a(I1
g67
tp156
a(I2
g60
tp157
a(I0
g82
tp158
a(I1
g60
tp159
a(I2
g63
tp160
a(I0
g82
tp161
a(I1
g60
tp162
a(I2
g60
tp163
a(I0
g60
tp164
a(I1
g63
tp165
a(I2
g67
tp166
a(I0
g63
tp167
a(I1
g63
tp168
a(I2
g67
tp169
a(I0
g60
tp170
a(I1
g67
tp171
a(I2
g69
tp172
a(I0
g67
tp173
a(I1
g67
tp174
a(I2
g60
tp175
a(I0
g69
tp176
a(I1
g60
tp177
a(I2
g63
tp178
a(I0
g63
tp179
a(I1
g60
tp180
a(I2
g60
tp181
a(I0
g69
tp182
a(I1
g69
tp183
a(I2
g67
tp184
a(I0
g63
tp185
a(I1
g69
tp186
a(I2
g69
tp187
a(I0
g60
tp188
a(I1
g67
tp189
a(I2
g67
tp190
a(I0
g63
tp191
a(I1
g67
tp192
a(I2
g67
tp193
a(I0
g69
tp194
a(I1
g60
tp195
a(I2
g69
tp196
a(I0
g60
tp197
a(I1
g60
tp198
a(I2
g60
tp199
a(I0
g69
tp200
a(I1
g63
tp201
a(I2
g63
tp202
a(I0
g63
tp203
a(I1
g63
tp204
a(I2
g60
tp205
a(I0
g69
tp206
a(I1
g67
tp207
a(I2
g63
tp208
a(I0
g63
tp209
a(I1
g67
tp210
a(I2
g60
tp211
a(I0
g69
tp212
a(I1
g60
tp213
a(I2
g67
tp214
a(I0
g82
tp215
a(I1
g60
tp216
a(I2
g69
tp217
a(I0
g63
tp218
a(I1
g69
tp219
a(I2
g67
tp220
a(I0
g69
tp221
a(I1
g69
tp222
a(I2
g63
tp223
a(I0
g63
tp224
a(I1
g67
tp225
a(I2
g60
tp226
a(I0
g63
tp227
a(I1
g67
tp228
a(I2
g69
tp229
a(I0
g67
tp230
a(I1
g60
tp231
a(I2
g67
tp232
a(I0
g60
tp233
a(I1
g69
tp234
a(I2
g63
tp235
a(I0
g67
tp236
a(I1
g60
tp237
a(I2
g60
tp238
a(I0
g60
tp239
a(I1
g69
tp240
a(I2
g69
tp241
a(I0
g67
tp242
a(I1
g69
tp243
a(I2
g67
tp244
a(I0
g63
tp245
a(I1
g69
tp246
a(I2
g69
tp247
as.