(dp1
S'layout'
p2
(ilayout
Layout
p3
(dp4
S'numGhosts'
p5
I2
sS'food'
p6
(igame
Grid
p7
(dp8
S'CELLS_PER_INT'
p9
I30
sS'width'
p10
I10
sS'data'
p11
(lp12
(lp13
I00
aI00
aI00
aI00
aI00
aI00
aI00
aI00
aI00
aI00
aa(lp14
I00
aI01
aI00
aI00
aI00
aI00
aI01
aI00
aI00
aI00
aa(lp15
I00
aI00
aI00
aI00
aI00
aI00
aI01
aI00
aI00
aI00
aa(lp16
I00
aI00
aI00
aI00
aI00
aI00
aI01
aI01
aI00
aI00
aa(lp17
I00
aI00
aI00
aI00
aI01
aI01
aI01
aI00
aI00
aI00
aa(lp18
I00
aI00
aI00
aI00
aI00
aI01
aI01
aI01
aI01
aI00
aa(lp19
I00
aI01
aI00
aI00
aI00
aI01
aI00
aI00
aI00
aI00
aa(lp20
I00
aI01
aI00
aI00
aI01
aI01
aI01
aI01
aI00
aI00
aa(lp21
I00
aI00
aI00
aI00
aI00
aI00
aI00
aI01
aI00
aI00
aa(lp22
I00
aI00
aI00
aI00
aI00
aI00
aI00
aI00
aI00
aI00
aasS'height'
p23
I10
sbsS'agentPositions'
p24
(lp25
(I01
(I1
I3
tp26
tp27
a(I00
(I7
I8
tp28
tp29
a(I00
(I8
I8
tp30
tp31
asg23
I10
sg10
I10
sS'walls'
p32
(igame
Grid
p33
(dp34
g9
I30
sg10
I10
sg11
(lp35
(lp36
I01
aI01
aI01
aI01
aI01
aI01
aI01
aI01
aI01
aI01
aa(lp37
I01
aI00
aI01
aI00
aI01
aI01
aI00
aI00
aI00
aI01
aa(lp38
I01
aI00
aI01
aI00
aI00
aI01
aI00
aI01
aI00
aI01
aa(lp39
I01
aI00
aI00
aI00
aI00
aI00
aI00
aI00
aI00
aI01
aa(lp40
I01
aI01
aI01
aI00
aI00
aI00
aI00
aI01
aI01
aI01
aa(lp41
I01
aI00
aI00
aI00
aI01
aI00
aI00
aI00
aI00
aI01
aa(lp42
I01
aI00
aI00
aI00
aI00
aI00
aI01
aI01
aI00
aI01
aa(lp43
I01
aI00
aI00
aI01
aI00
aI00
aI00
aI00
aI00
aI01
aa(lp44
I01
aI00
aI01
aI01
aI00
aI01
aI01
aI00
aI00
aI01
aa(lp45
I01
aI01
aI01
aI01
aI01
aI01
aI01
aI01
aI01
aI01
aasg23
I10
sbsS'layoutText'
p46
(lp47
S'%%%%%%%%%%'
p48
aS'%   %. GG%'
p49
aS'% %.%.%..%'
p50
aS'%.....%.%%'
p51
aS'%%% ....%%'
p52
aS'%%  .% . %'
p53
aS'%P     %%%'
p54
aS'%%% %   %%'
p55
aS'%.  % .. %'
p56
aS'%%%%%%%%%%'
p57
asbsS'actions'
p58
(lp59
(I0
S'East'
p60
tp61
a(I1
g60
tp62
a(I2
S'South'
p63
tp64
a(I0
g60
tp65
a(I1
g63
tp66
a(I2
S'West'
p67
tp68
a(I0
S'North'
p69
tp70
a(I1
g67
tp71
a(I2
g63
tp72
a(I0
g60
tp73
a(I1
g63
tp74
a(I2
g63
tp75
a(I0
g69
tp76
a(I1
g63
tp77
a(I2
g63
tp78
a(I0
g69
tp79
a(I1
g63
tp80
a(I2
g67
tp81
a(I0
g67
tp82
a(I1
g60
tp83
a(I2
g63
tp84
a(I0
g69
tp85
a(I1
g67
tp86
a(I2
g67
tp87
a(I0
g63
tp88
a(I1
g69
tp89
a(I2
g63
tp90
a(I0
g67
tp91
a(I1
g67
tp92
a(I2
g60
tp93
a(I0
g67
tp94
a(I1
g63
tp95
a(I2
g69
tp96
a(I0
g69
tp97
a(I1
g60
tp98
a(I2
g69
tp99
a(I0
g63
tp100
a(I1
g60
tp101
a(I2
g69
tp102
a(I0
g69
tp103
a(I1
g67
tp104
a(I2
g60
tp105
a(I0
S'Stop'
p106
tp107
a(I1
g67
tp108
a(I2
g63
tp109
a(I0
g63
tp110
a(I1
g63
tp111
a(I2
g60
tp112
a(I0
g60
tp113
a(I1
g63
tp114
a(I2
g67
tp115
a(I0
g67
tp116
a(I1
g60
tp117
a(I2
g69
tp118
a(I0
g60
tp119
a(I1
g63
tp120
a(I2
g69
tp121
a(I0
g67
tp122
a(I1
g67
tp123
a(I2
g69
tp124
a(I0
g106
tp125
a(I1
g69
tp126
a(I2
g69
tp127
a(I0
g69
tp128
a(I1
g67
tp129
a(I2
g60
tp130
a(I0
g69
tp131
a(I1
g63
tp132
a(I2
g63
tp133
a(I0
g60
tp134
a(I1
g60
tp135
a(I2
g67
tp136
a(I0
g60
tp137
a(I1
g69
tp138
a(I2
g63
tp139
a(I0
g63
tp140
a(I1
g67
tp141
a(I2
g63
tp142
a(I0
g63
tp143
a(I1
g69
tp144
a(I2
g63
tp145
a(I0
g67
tp146
a(I1
g67
tp147
a(I2
g60
tp148
a(I0
g67
tp149
a(I1
g67
tp150
a(I2
g67
tp151
a(I0
g106
tp152
a(I1
g63
tp153
a(I2
g69
tp154
a(I0
g69
tp155
a(I1
g63
tp156
a(I2
g69
tp157
a(I0
g69
tp158
a(I1
g67
tp159
a(I2
g69
tp160
a(I0
g60
tp161
a(I1
g67
tp162
a(I2
g69
tp163
a(I0
g60
tp164
a(I1
g60
tp165
a(I2
g60
tp166
a(I0
g106
tp167
a(I1
g60
tp168
a(I2
g63
tp169
a(I0
g67
tp170
a(I1
g69
tp171
a(I2
g67
tp172
a(I0
g67
tp173
a(I1
g69
tp174
a(I2
g63
tp175
a(I0
g63
tp176
a(I1
g60
tp177
a(I2
g63
tp178
a(I0
g106
tp179
a(I1
g69
tp180
a(I2
g63
tp181
a(I0
g106
tp182
a(I1
g67
tp183
a(I2
g67
tp184
a(I0
g106
tp185
a(I1
g69
tp186
a(I2
g63
tp187
a(I0
g69
tp188
a(I1
g60
tp189
a(I2
g67
tp190
a(I0
g63
tp191
a(I1
g63
tp192
a(I2
g67
tp193
a(I0
g69
tp194
a(I1
g63
tp195
a(I2
g67
tp196
a(I0
g63
tp197
a(I1
g67
tp198
a(I2
g63
tp199
a(I0
g69
tp200
a(I1
g69
tp201
a(I2
g63
tp202
a(I0
g63
tp203
a(I1
g60
tp204
a(I2
g67
tp205
a(I0
g106
tp206
a(I1
g69
tp207
a(I2
g67
tp208
a(I0
g63
tp209
a(I1
g69
tp210
a(I2
g60
tp211
a(I0
g106
tp212
a(I1
g60
tp213
a(I2
g60
tp214
a(I0
g60
tp215
a(I1
g69
tp216
a(I2
g69
tp217
a(I0
g60
tp218
a(I1
g69
tp219
a(I2
g69
tp220
a(I0
g67
tp221
a(I1
g60
tp222
a(I2
g60
tp223
a(I0
g60
tp224
a(I1
g60
tp225
a(I2
g69
tp226
a(I0
g69
tp227
a(I1
g63
tp228
a(I2
g69
tp229
a(I0
g106
tp230
a(I1
g60
tp231
a(I2
g69
tp232
a(I0
g69
tp233
a(I1
g69
tp234
a(I2
g60
tp235
a(I0
g106
tp236
a(I1
g67
tp237
a(I2
g69
tp238
a(I0
g67
tp239
a(I1
g67
tp240
a(I2
g69
tp241
a(I0
g60
tp242
a(I1
g67
tp243
a(I2
g60
tp244
a(I0
g67
tp245
a(I1
g63
tp246
a(I2
g60
tp247
a(I0
g60
tp248
a(I1
g63
tp249
a(I2
g60
tp250
a(I0
g106
tp251
a(I1
g63
tp252
a(I2
g63
tp253
a(I0
g63
tp254
a(I1
g60
tp255
a(I2
g67
tp256
a(I0
g106
tp257
a(I1
g63
tp258
a(I2
g63
tp259
a(I0
g69
tp260
a(I1
g63
tp261
a(I2
g63
tp262
a(I0
g63
tp263
a(I1
g67
tp264
a(I2
g63
tp265
a(I0
g63
tp266
a(I1
g67
tp267
a(I2
g60
tp268
a(I0
g67
tp269
a(I1
g69
tp270
a(I2
g67
tp271
a(I0
g67
tp272
a(I1
g67
tp273
a(I2
g67
tp274
a(I0
g106
tp275
a(I1
g67
tp276
a(I2
g63
tp277
a(I0
g60
tp278
a(I1
g63
tp279
a(I2
g63
tp280
a(I0
g60
tp281
a(I1
g67
tp282
a(I2
g60
tp283
a(I0
g106
tp284
a(I1
g60
tp285
a(I2
g63
tp286
a(I0
g106
tp287
a(I1
g69
tp288
a(I2
g60
tp289
a(I0
g69
tp290
a(I1
g60
tp291
a(I2
g67
tp292
a(I0
g106
tp293
a(I1
g69
tp294
a(I2
g69
tp295
a(I0
g69
tp296
a(I1
g69
tp297
a(I2
g67
tp298
a(I0
g106
tp299
a(I1
g69
tp300
a(I2
g69
tp301
a(I0
g106
tp302
a(I1
g69
tp303
as.