(dp1
S'layout'
p2
(ilayout
Layout
p3
(dp4
S'numGhosts'
p5
I2
sS'food'
p6
(igame
Grid
p7
(dp8
S'CELLS_PER_INT'
p9
I30
sS'width'
p10
I10
sS'data'
p11
(lp12
(lp13
I00
aI00
aI00
aI00
aI00
aI00
aI00
aI00
aI00
aI00
aa(lp14
I00
aI01
aI00
aI00
aI00
aI00
aI01
aI00
aI00
aI00
aa(lp15
I00
aI00
aI00
aI00
aI00
aI00
aI01
aI00
aI00
aI00
aa(lp16
I00
aI00
aI00
aI00
aI00
aI00
aI01
aI01
aI00
aI00
aa(lp17
I00
aI00
aI00
aI00
aI01
aI01
aI01
aI00
aI00
aI00
aa(lp18
I00
aI00
aI00
aI00
aI00
aI01
aI01
aI01
aI01
aI00
aa(lp19
I00
aI01
aI00
aI00
aI00
aI01
aI00
aI00
aI00
aI00
aa(lp20
I00
aI01
aI00
aI00
aI01
aI01
aI01
aI01
aI00
aI00
aa(lp21
I00
aI00
aI00
aI00
aI00
aI00
aI00
aI01
aI00
aI00
aa(lp22
I00
aI00
aI00
aI00
aI00
aI00
aI00
aI00
aI00
aI00
aasS'height'
p23
I10
sbsS'agentPositions'
p24
(lp25
(I01
(I1
I3
tp26
tp27
a(I00
(I7
I8
tp28
tp29
a(I00
(I8
I8
tp30
tp31
asg23
I10
sg10
I10
sS'walls'
p32
(igame
Grid
p33
(dp34
g9
I30
sg10
I10
sg11
(lp35
(lp36
I01
aI01
aI01
aI01
aI01
aI01
aI01
aI01
aI01
aI01
aa(lp37
I01
aI00
aI01
aI00
aI01
aI01
aI00
aI00
aI00
aI01
aa(lp38
I01
aI00
aI01
aI00
aI00
aI01
aI00
aI01
aI00
aI01
aa(lp39
I01
aI00
aI00
aI00
aI00
aI00
aI00
aI00
aI00
aI01
aa(lp40
I01
aI01
aI01
aI00
aI00
aI00
aI00
aI01
aI01
aI01
aa(lp41
I01
aI00
aI00
aI00
aI01
aI00
aI00
aI00
aI00
aI01
aa(lp42
I01
aI00
aI00
aI00
aI00
aI00
aI01
aI01
aI00
aI01
aa(lp43
I01
aI00
aI00
aI01
aI00
aI00
aI00
aI00
aI00
aI01
aa(lp44
I01
aI00
aI01
aI01
aI00
aI01
aI01
aI00
aI00
aI01
aa(lp45
I01
aI01
aI01
aI01
aI01
aI01
aI01
aI01
aI01
aI01
aasg23
I10
sbsS'layoutText'
p46
(lp47
S'%%%%%%%%%%'
p48
aS'%   %. GG%'
p49
aS'% %.%.%..%'
p50
aS'%.....%.%%'
p51
aS'%%% ....%%'
p52
aS'%%  .% . %'
p53
aS'%P     %%%'
p54
aS'%%% %   %%'
p55
aS'%.  % .. %'
p56
aS'%%%%%%%%%%'
p57
asbsS'actions'
p58
(lp59
(I0
S'East'
p60
tp61
a(I1
g60
tp62
a(I2
S'West'
p63
tp64
a(I0
g60
tp65
a(I1
S'South'
p66
tp67
a(I2
g66
tp68
a(I0
S'North'
p69
tp70
a(I1
g63
tp71
a(I2
g60
tp72
a(I0
g60
tp73
a(I1
g66
tp74
a(I2
g69
tp75
a(I0
g69
tp76
a(I1
g66
tp77
a(I2
g63
tp78
a(I0
g69
tp79
a(I1
g66
tp80
a(I2
g66
tp81
a(I0
g63
tp82
a(I1
g60
tp83
a(I2
g66
tp84
a(I0
g69
tp85
a(I1
g63
tp86
a(I2
g66
tp87
a(I0
g66
tp88
a(I1
g63
tp89
a(I2
g66
tp90
a(I0
g63
tp91
a(I1
g66
tp92
a(I2
g60
tp93
a(I0
g63
tp94
a(I1
g63
tp95
a(I2
g63
tp96
a(I0
g69
tp97
a(I1
g66
tp98
a(I2
g69
tp99
a(I0
g66
tp100
a(I1
g66
tp101
a(I2
g63
tp102
a(I0
g69
tp103
a(I1
g60
tp104
a(I2
g66
tp105
a(I0
g66
tp106
a(I1
g69
tp107
a(I2
g60
tp108
a(I0
g69
tp109
a(I1
g63
tp110
a(I2
g60
tp111
a(I0
g66
tp112
a(I1
g69
tp113
a(I2
g63
tp114
a(I0
g60
tp115
a(I1
g63
tp116
a(I2
g63
tp117
a(I0
g60
tp118
a(I1
g63
tp119
a(I2
g66
tp120
a(I0
S'Stop'
p121
tp122
a(I1
g69
tp123
a(I2
g66
tp124
a(I0
g63
tp125
a(I1
g63
tp126
a(I2
g60
tp127
a(I0
g63
tp128
a(I1
g66
tp129
a(I2
g66
tp130
a(I0
g60
tp131
a(I1
g63
tp132
a(I2
g60
tp133
a(I0
g60
tp134
a(I1
g60
tp135
a(I2
g63
tp136
a(I0
g66
tp137
a(I1
g69
tp138
a(I2
g63
tp139
a(I0
g121
tp140
a(I1
g60
tp141
a(I2
g69
tp142
a(I0
g60
tp143
a(I1
g66
tp144
a(I2
g69
tp145
a(I0
g121
tp146
a(I1
g63
tp147
a(I2
g69
tp148
a(I0
g63
tp149
a(I1
g63
tp150
a(I2
g69
tp151
a(I0
g69
tp152
a(I1
g60
tp153
a(I2
g60
tp154
a(I0
g60
tp155
a(I1
g60
tp156
a(I2
g69
tp157
a(I0
g60
tp158
a(I1
g66
tp159
a(I2
g69
tp160
a(I0
g69
tp161
a(I1
g66
tp162
a(I2
g60
tp163
a(I0
g66
tp164
a(I1
g63
tp165
a(I2
g69
tp166
a(I0
g121
tp167
a(I1
g63
tp168
a(I2
g63
tp169
a(I0
g63
tp170
a(I1
g60
tp171
a(I2
g66
tp172
a(I0
g66
tp173
a(I1
g60
tp174
a(I2
g66
tp175
a(I0
g121
tp176
a(I1
g69
tp177
a(I2
g66
tp178
a(I0
g60
tp179
a(I1
g69
tp180
a(I2
g66
tp181
a(I0
g63
tp182
a(I1
g63
tp183
a(I2
g60
tp184
a(I0
g60
tp185
a(I1
g63
tp186
a(I2
g63
tp187
a(I0
g60
tp188
a(I1
g60
tp189
a(I2
g63
tp190
a(I0
g63
tp191
a(I1
g69
tp192
a(I2
g69
tp193
a(I0
g121
tp194
a(I1
g60
tp195
a(I2
g63
tp196
as.