(dp1
S'layout'
p2
(ilayout
Layout
p3
(dp4
S'numGhosts'
p5
I2
sS'food'
p6
(igame
Grid
p7
(dp8
S'CELLS_PER_INT'
p9
I30
sS'width'
p10
I10
sS'data'
p11
(lp12
(lp13
I00
aI00
aI00
aI00
aI00
aI00
aI00
aI00
aI00
aI00
aa(lp14
I00
aI01
aI00
aI00
aI00
aI00
aI01
aI00
aI00
aI00
aa(lp15
I00
aI00
aI00
aI00
aI00
aI00
aI01
aI00
aI00
aI00
aa(lp16
I00
aI00
aI00
aI00
aI00
aI00
aI01
aI01
aI00
aI00
aa(lp17
I00
aI00
aI00
aI00
aI01
aI01
aI01
aI00
aI00
aI00
aa(lp18
I00
aI00
aI00
aI00
aI00
aI01
aI01
aI01
aI01
aI00
aa(lp19
I00
aI01
aI00
aI00
aI00
aI01
aI00
aI00
aI00
aI00
aa(lp20
I00
aI01
aI00
aI00
aI01
aI01
aI01
aI01
aI00
aI00
aa(lp21
I00
aI00
aI00
aI00
aI00
aI00
aI00
aI01
aI00
aI00
aa(lp22
I00
aI00
aI00
aI00
aI00
aI00
aI00
aI00
aI00
aI00
aasS'height'
p23
I10
sbsS'agentPositions'
p24
(lp25
(I01
(I1
I3
tp26
tp27
a(I00
(I7
I8
tp28
tp29
a(I00
(I8
I8
tp30
tp31
asg23
I10
sg10
I10
sS'walls'
p32
(igame
Grid
p33
(dp34
g9
I30
sg10
I10
sg11
(lp35
(lp36
I01
aI01
aI01
aI01
aI01
aI01
aI01
aI01
aI01
aI01
aa(lp37
I01
aI00
aI01
aI00
aI01
aI01
aI00
aI00
aI00
aI01
aa(lp38
I01
aI00
aI01
aI00
aI00
aI01
aI00
aI01
aI00
aI01
aa(lp39
I01
aI00
aI00
aI00
aI00
aI00
aI00
aI00
aI00
aI01
aa(lp40
I01
aI01
aI01
aI00
aI00
aI00
aI00
aI01
aI01
aI01
aa(lp41
I01
aI00
aI00
aI00
aI01
aI00
aI00
aI00
aI00
aI01
aa(lp42
I01
aI00
aI00
aI00
aI00
aI00
aI01
aI01
aI00
aI01
aa(lp43
I01
aI00
aI00
aI01
aI00
aI00
aI00
aI00
aI00
aI01
aa(lp44
I01
aI00
aI01
aI01
aI00
aI01
aI01
aI00
aI00
aI01
aa(lp45
I01
aI01
aI01
aI01
aI01
aI01
aI01
aI01
aI01
aI01
aasg23
I10
sbsS'layoutText'
p46
(lp47
S'%%%%%%%%%%'
p48
aS'%   %. GG%'
p49
aS'% %.%.%..%'
p50
aS'%.....%.%%'
p51
aS'%%% ....%%'
p52
aS'%%  .% . %'
p53
aS'%P     %%%'
p54
aS'%%% %   %%'
p55
aS'%.  % .. %'
p56
aS'%%%%%%%%%%'
p57
asbsS'actions'
p58
(lp59
(I0
S'East'
p60
tp61
a(I1
S'South'
p62
tp63
a(I2
g62
tp64
a(I0
g60
tp65
a(I1
g62
tp66
a(I2
S'West'
p67
tp68
a(I0
g60
tp69
a(I1
g62
tp70
a(I2
g62
tp71
a(I0
S'North'
p72
tp73
a(I1
g62
tp74
a(I2
g62
tp75
a(I0
g72
tp76
a(I1
g67
tp77
a(I2
g62
tp78
a(I0
g60
tp79
a(I1
g72
tp80
a(I2
g67
tp81
a(I0
g72
tp82
a(I1
g67
tp83
a(I2
g72
tp84
a(I0
g72
tp85
a(I1
g67
tp86
a(I2
g67
tp87
a(I0
g72
tp88
a(I1
g62
tp89
a(I2
g67
tp90
a(I0
S'Stop'
p91
tp92
a(I1
g62
tp93
a(I2
g67
tp94
a(I0
g60
tp95
a(I1
g67
tp96
a(I2
g72
tp97
a(I0
g67
tp98
a(I1
g72
tp99
a(I2
g72
tp100
a(I0
g62
tp101
a(I1
g72
tp102
a(I2
g72
tp103
a(I0
g72
tp104
a(I1
g72
tp105
a(I2
g67
tp106
a(I0
g62
tp107
a(I1
g67
tp108
a(I2
g67
tp109
a(I0
g62
tp110
a(I1
g67
tp111
a(I2
g62
tp112
a(I0
g72
tp113
a(I1
g72
tp114
a(I2
g62
tp115
a(I0
g62
tp116
a(I1
g72
tp117
a(I2
g60
tp118
a(I0
g72
tp119
a(I1
g60
tp120
a(I2
g60
tp121
a(I0
g62
tp122
a(I1
g60
tp123
a(I2
g62
tp124
a(I0
g72
tp125
a(I1
g62
tp126
a(I2
g62
tp127
a(I0
g91
tp128
a(I1
g62
tp129
a(I2
g67
tp130
a(I0
g91
tp131
a(I1
g62
tp132
a(I2
g62
tp133
a(I0
g62
tp134
a(I1
g62
tp135
a(I2
g67
tp136
a(I0
g62
tp137
a(I1
g62
tp138
a(I2
g60
tp139
a(I0
g67
tp140
a(I1
g67
tp141
a(I2
g60
tp142
a(I0
g60
tp143
a(I1
g67
tp144
a(I2
g62
tp145
a(I0
g91
tp146
a(I1
g60
tp147
a(I2
g62
tp148
a(I0
g60
tp149
a(I1
g60
tp150
a(I2
g67
tp151
a(I0
g67
tp152
a(I1
g62
tp153
a(I2
g67
tp154
a(I0
g67
tp155
a(I1
g62
tp156
a(I2
g60
tp157
a(I0
g67
tp158
a(I1
g67
tp159
a(I2
g60
tp160
a(I0
g72
tp161
a(I1
g67
tp162
a(I2
g72
tp163
a(I0
g72
tp164
a(I1
g60
tp165
a(I2
g72
tp166
a(I0
g62
tp167
a(I1
g60
tp168
a(I2
g67
tp169
a(I0
g72
tp170
a(I1
g72
tp171
a(I2
g67
tp172
a(I0
g72
tp173
a(I1
g72
tp174
a(I2
g60
tp175
a(I0
g91
tp176
a(I1
g67
tp177
a(I2
g60
tp178
a(I0
g62
tp179
a(I1
g67
tp180
a(I2
g62
tp181
a(I0
g62
tp182
a(I1
g60
tp183
a(I2
g62
tp184
a(I0
g91
tp185
a(I1
g60
tp186
a(I2
g67
tp187
a(I0
g60
tp188
a(I1
g60
tp189
a(I2
g67
tp190
a(I0
g62
tp191
a(I1
g72
tp192
a(I2
g60
tp193
a(I0
g67
tp194
a(I1
g72
tp195
a(I2
g60
tp196
a(I0
g91
tp197
a(I1
g67
tp198
as.