(dp1
S'layout'
p2
(ilayout
Layout
p3
(dp4
S'numGhosts'
p5
I2
sS'food'
p6
(igame
Grid
p7
(dp8
S'CELLS_PER_INT'
p9
I30
sS'width'
p10
I10
sS'data'
p11
(lp12
(lp13
I00
aI00
aI00
aI00
aI00
aI00
aI00
aI00
aI00
aI00
aa(lp14
I00
aI01
aI00
aI00
aI00
aI00
aI01
aI00
aI00
aI00
aa(lp15
I00
aI00
aI00
aI00
aI00
aI00
aI01
aI00
aI00
aI00
aa(lp16
I00
aI00
aI00
aI00
aI00
aI00
aI01
aI01
aI00
aI00
aa(lp17
I00
aI00
aI00
aI00
aI01
aI01
aI01
aI00
aI00
aI00
aa(lp18
I00
aI00
aI00
aI00
aI00
aI01
aI01
aI01
aI01
aI00
aa(lp19
I00
aI01
aI00
aI00
aI00
aI01
aI00
aI00
aI00
aI00
aa(lp20
I00
aI01
aI00
aI00
aI01
aI01
aI01
aI01
aI00
aI00
aa(lp21
I00
aI00
aI00
aI00
aI00
aI00
aI00
aI01
aI00
aI00
aa(lp22
I00
aI00
aI00
aI00
aI00
aI00
aI00
aI00
aI00
aI00
aasS'height'
p23
I10
sbsS'agentPositions'
p24
(lp25
(I01
(I1
I3
tp26
tp27
a(I00
(I7
I8
tp28
tp29
a(I00
(I8
I8
tp30
tp31
asg23
I10
sg10
I10
sS'walls'
p32
(igame
Grid
p33
(dp34
g9
I30
sg10
I10
sg11
(lp35
(lp36
I01
aI01
aI01
aI01
aI01
aI01
aI01
aI01
aI01
aI01
aa(lp37
I01
aI00
aI01
aI00
aI01
aI01
aI00
aI00
aI00
aI01
aa(lp38
I01
aI00
aI01
aI00
aI00
aI01
aI00
aI01
aI00
aI01
aa(lp39
I01
aI00
aI00
aI00
aI00
aI00
aI00
aI00
aI00
aI01
aa(lp40
I01
aI01
aI01
aI00
aI00
aI00
aI00
aI01
aI01
aI01
aa(lp41
I01
aI00
aI00
aI00
aI01
aI00
aI00
aI00
aI00
aI01
aa(lp42
I01
aI00
aI00
aI00
aI00
aI00
aI01
aI01
aI00
aI01
aa(lp43
I01
aI00
aI00
aI01
aI00
aI00
aI00
aI00
aI00
aI01
aa(lp44
I01
aI00
aI01
aI01
aI00
aI01
aI01
aI00
aI00
aI01
aa(lp45
I01
aI01
aI01
aI01
aI01
aI01
aI01
aI01
aI01
aI01
aasg23
I10
sbsS'layoutText'
p46
(lp47
S'%%%%%%%%%%'
p48
aS'%   %. GG%'
p49
aS'% %.%.%..%'
p50
aS'%.....%.%%'
p51
aS'%%% ....%%'
p52
aS'%%  .% . %'
p53
aS'%P     %%%'
p54
aS'%%% %   %%'
p55
aS'%.  % .. %'
p56
aS'%%%%%%%%%%'
p57
asbsS'actions'
p58
(lp59
(I0
S'East'
p60
tp61
a(I1
S'South'
p62
tp63
a(I2
g62
tp64
a(I0
g60
tp65
a(I1
g62
tp66
a(I2
S'West'
p67
tp68
a(I0
g60
tp69
a(I1
g62
tp70
a(I2
g62
tp71
a(I0
S'North'
p72
tp73
a(I1
g67
tp74
a(I2
g62
tp75
a(I0
g72
tp76
a(I1
g62
tp77
a(I2
g62
tp78
a(I0
g72
tp79
a(I1
g62
tp80
a(I2
g60
tp81
a(I0
g67
tp82
a(I1
g62
tp83
a(I2
g67
tp84
a(I0
g67
tp85
a(I1
g67
tp86
a(I2
g67
tp87
a(I0
g67
tp88
a(I1
g72
tp89
a(I2
g62
tp90
a(I0
g72
tp91
a(I1
g67
tp92
a(I2
g62
tp93
a(I0
g72
tp94
a(I1
g72
tp95
a(I2
g60
tp96
a(I0
g60
tp97
a(I1
g67
tp98
a(I2
g62
tp99
a(I0
g67
tp100
a(I1
g67
tp101
a(I2
g60
tp102
a(I0
g60
tp103
a(I1
g62
tp104
a(I2
g67
tp105
a(I0
g67
tp106
a(I1
g67
tp107
a(I2
g72
tp108
a(I0
S'Stop'
p109
tp110
a(I1
g60
tp111
a(I2
g67
tp112
a(I0
g62
tp113
a(I1
g72
tp114
a(I2
g67
tp115
a(I0
g109
tp116
a(I1
g60
tp117
a(I2
g72
tp118
a(I0
g72
tp119
a(I1
g72
tp120
a(I2
g60
tp121
a(I0
g62
tp122
a(I1
g72
tp123
a(I2
g62
tp124
a(I0
g62
tp125
a(I1
g60
tp126
a(I2
g60
tp127
a(I0
g60
tp128
a(I1
g60
tp129
a(I2
g62
tp130
a(I0
g67
tp131
a(I1
g62
tp132
a(I2
g67
tp133
a(I0
g72
tp134
a(I1
g60
tp135
a(I2
g72
tp136
a(I0
g72
tp137
a(I1
g60
tp138
a(I2
g60
tp139
a(I0
g109
tp140
a(I1
g62
tp141
a(I2
g62
tp142
a(I0
g109
tp143
a(I1
g60
tp144
a(I2
g60
tp145
a(I0
g62
tp146
a(I1
g67
tp147
a(I2
g67
tp148
a(I0
g62
tp149
a(I1
g72
tp150
a(I2
g72
tp151
a(I0
g72
tp152
a(I1
g67
tp153
a(I2
g67
tp154
a(I0
g62
tp155
a(I1
g62
tp156
a(I2
g67
tp157
a(I0
g109
tp158
a(I1
g60
tp159
a(I2
g62
tp160
a(I0
g109
tp161
a(I1
g60
tp162
a(I2
g60
tp163
a(I0
g109
tp164
a(I1
g67
tp165
a(I2
g72
tp166
a(I0
g60
tp167
a(I1
g67
tp168
a(I2
g60
tp169
a(I0
g67
tp170
a(I1
g62
tp171
a(I2
g62
tp172
a(I0
g60
tp173
a(I1
g62
tp174
a(I2
g60
tp175
a(I0
g60
tp176
a(I1
g60
tp177
a(I2
g67
tp178
a(I0
g109
tp179
a(I1
g62
tp180
a(I2
g72
tp181
a(I0
g109
tp182
a(I1
g60
tp183
a(I2
g67
tp184
a(I0
g72
tp185
a(I1
g67
tp186
a(I2
g62
tp187
a(I0
g72
tp188
a(I1
g72
tp189
a(I2
g67
tp190
a(I0
g67
tp191
a(I1
g67
tp192
a(I2
g72
tp193
a(I0
g109
tp194
a(I1
g67
tp195
a(I2
g60
tp196
a(I0
g109
tp197
a(I1
g62
tp198
a(I2
g60
tp199
a(I0
g67
tp200
a(I1
g60
tp201
a(I2
g62
tp202
a(I0
g109
tp203
a(I1
g60
tp204
a(I2
g60
tp205
a(I0
g62
tp206
a(I1
g60
tp207
a(I2
g67
tp208
a(I0
g109
tp209
a(I1
g67
tp210
a(I2
g72
tp211
a(I0
g72
tp212
a(I1
g72
tp213
a(I2
g67
tp214
a(I0
g62
tp215
a(I1
g67
tp216
a(I2
g67
tp217
a(I0
g109
tp218
a(I1
g67
tp219
a(I2
g62
tp220
a(I0
g62
tp221
a(I1
g62
tp222
a(I2
g60
tp223
a(I0
g72
tp224
a(I1
g60
tp225
a(I2
g60
tp226
a(I0
g109
tp227
a(I1
g60
tp228
a(I2
g60
tp229
a(I0
g109
tp230
a(I1
g72
tp231
a(I2
g67
tp232
a(I0
g109
tp233
a(I1
g67
tp234
a(I2
g72
tp235
a(I0
g72
tp236
a(I1
g62
tp237
a(I2
g67
tp238
a(I0
g109
tp239
a(I1
g60
tp240
a(I2
g67
tp241
a(I0
g60
tp242
a(I1
g60
tp243
a(I2
g62
tp244
a(I0
g109
tp245
a(I1
g67
tp246
a(I2
g60
tp247
a(I0
g67
tp248
a(I1
g67
tp249
a(I2
g60
tp250
a(I0
g109
tp251
a(I1
g72
tp252
a(I2
g72
tp253
a(I0
g60
tp254
a(I1
g60
tp255
a(I2
g67
tp256
a(I0
g109
tp257
a(I1
g62
tp258
a(I2
g72
tp259
a(I0
g109
tp260
a(I1
g60
tp261
a(I2
g67
tp262
a(I0
g67
tp263
a(I1
g67
tp264
a(I2
g67
tp265
a(I0
g60
tp266
a(I1
g72
tp267
a(I2
g72
tp268
a(I0
g60
tp269
a(I1
g67
tp270
a(I2
g67
tp271
a(I0
g62
tp272
a(I1
g67
tp273
a(I2
g62
tp274
a(I0
g72
tp275
a(I1
g72
tp276
a(I2
g62
tp277
a(I0
g67
tp278
a(I1
g60
tp279
a(I2
g62
tp280
a(I0
g109
tp281
a(I1
g62
tp282
a(I2
g67
tp283
a(I0
g60
tp284
a(I1
g60
tp285
a(I2
g67
tp286
a(I0
g62
tp287
a(I1
g62
tp288
a(I2
g60
tp289
a(I0
g72
tp290
a(I1
g60
tp291
a(I2
g60
tp292
a(I0
g62
tp293
a(I1
g67
tp294
a(I2
g72
tp295
a(I0
g62
tp296
a(I1
g72
tp297
a(I2
g72
tp298
a(I0
g109
tp299
a(I1
g67
tp300
a(I2
g72
tp301
a(I0
g60
tp302
a(I1
g72
tp303
a(I2
g72
tp304
a(I0
g67
tp305
a(I1
g72
tp306
a(I2
g72
tp307
as.