(dp1
S'layout'
p2
(ilayout
Layout
p3
(dp4
S'numGhosts'
p5
I2
sS'food'
p6
(igame
Grid
p7
(dp8
S'CELLS_PER_INT'
p9
I30
sS'width'
p10
I10
sS'data'
p11
(lp12
(lp13
I00
aI00
aI00
aI00
aI00
aI00
aI00
aI00
aI00
aI00
aa(lp14
I00
aI01
aI00
aI00
aI00
aI00
aI01
aI00
aI00
aI00
aa(lp15
I00
aI00
aI00
aI00
aI00
aI00
aI01
aI00
aI00
aI00
aa(lp16
I00
aI00
aI00
aI00
aI00
aI00
aI01
aI01
aI00
aI00
aa(lp17
I00
aI00
aI00
aI00
aI01
aI01
aI01
aI00
aI00
aI00
aa(lp18
I00
aI00
aI00
aI00
aI00
aI01
aI01
aI01
aI01
aI00
aa(lp19
I00
aI01
aI00
aI00
aI00
aI01
aI00
aI00
aI00
aI00
aa(lp20
I00
aI01
aI00
aI00
aI01
aI01
aI01
aI01
aI00
aI00
aa(lp21
I00
aI00
aI00
aI00
aI00
aI00
aI00
aI01
aI00
aI00
aa(lp22
I00
aI00
aI00
aI00
aI00
aI00
aI00
aI00
aI00
aI00
aasS'height'
p23
I10
sbsS'agentPositions'
p24
(lp25
(I01
(I1
I3
tp26
tp27
a(I00
(I7
I8
tp28
tp29
a(I00
(I8
I8
tp30
tp31
asg23
I10
sg10
I10
sS'walls'
p32
(igame
Grid
p33
(dp34
g9
I30
sg10
I10
sg11
(lp35
(lp36
I01
aI01
aI01
aI01
aI01
aI01
aI01
aI01
aI01
aI01
aa(lp37
I01
aI00
aI01
aI00
aI01
aI01
aI00
aI00
aI00
aI01
aa(lp38
I01
aI00
aI01
aI00
aI00
aI01
aI00
aI01
aI00
aI01
aa(lp39
I01
aI00
aI00
aI00
aI00
aI00
aI00
aI00
aI00
aI01
aa(lp40
I01
aI01
aI01
aI00
aI00
aI00
aI00
aI01
aI01
aI01
aa(lp41
I01
aI00
aI00
aI00
aI01
aI00
aI00
aI00
aI00
aI01
aa(lp42
I01
aI00
aI00
aI00
aI00
aI00
aI01
aI01
aI00
aI01
aa(lp43
I01
aI00
aI00
aI01
aI00
aI00
aI00
aI00
aI00
aI01
aa(lp44
I01
aI00
aI01
aI01
aI00
aI01
aI01
aI00
aI00
aI01
aa(lp45
I01
aI01
aI01
aI01
aI01
aI01
aI01
aI01
aI01
aI01
aasg23
I10
sbsS'layoutText'
p46
(lp47
S'%%%%%%%%%%'
p48
aS'%   %. GG%'
p49
aS'% %.%.%..%'
p50
aS'%.....%.%%'
p51
aS'%%% ....%%'
p52
aS'%%  .% . %'
p53
aS'%P     %%%'
p54
aS'%%% %   %%'
p55
aS'%.  % .. %'
p56
aS'%%%%%%%%%%'
p57
asbsS'actions'
p58
(lp59
(I0
S'Stop'
p60
tp61
a(I1
S'West'
p62
tp63
a(I2
S'South'
p64
tp65
a(I0
S'East'
p66
tp67
a(I1
g62
tp68
a(I2
g62
tp69
a(I0
S'North'
p70
tp71
a(I1
g64
tp72
a(I2
g64
tp73
a(I0
g66
tp74
a(I1
g64
tp75
a(I2
g64
tp76
a(I0
g66
tp77
a(I1
g62
tp78
a(I2
g64
tp79
a(I0
g60
tp80
a(I1
g62
tp81
a(I2
g62
tp82
a(I0
g70
tp83
a(I1
g64
tp84
a(I2
g64
tp85
a(I0
g70
tp86
a(I1
g66
tp87
a(I2
g62
tp88
a(I0
g66
tp89
a(I1
g70
tp90
a(I2
g62
tp91
a(I0
g64
tp92
a(I1
g66
tp93
a(I2
g62
tp94
a(I0
g66
tp95
a(I1
g64
tp96
a(I2
g62
tp97
a(I0
g66
tp98
a(I1
g62
tp99
a(I2
g62
tp100
a(I0
g70
tp101
a(I1
g64
tp102
a(I2
g66
tp103
a(I0
g60
tp104
a(I1
g62
tp105
a(I2
g70
tp106
a(I0
g60
tp107
a(I1
g62
tp108
a(I2
g66
tp109
a(I0
g64
tp110
a(I1
g64
tp111
a(I2
g64
tp112
a(I0
g60
tp113
a(I1
g62
tp114
a(I2
g62
tp115
a(I0
g64
tp116
a(I1
g66
tp117
a(I2
g62
tp118
a(I0
g70
tp119
a(I1
g70
tp120
a(I2
g66
tp121
a(I0
g64
tp122
a(I1
g66
tp123
a(I2
g70
tp124
a(I0
g60
tp125
a(I1
g64
tp126
a(I2
g66
tp127
a(I0
g66
tp128
a(I1
g64
tp129
a(I2
g64
tp130
a(I0
g60
tp131
a(I1
g64
tp132
a(I2
g64
tp133
a(I0
g60
tp134
a(I1
g62
tp135
a(I2
g64
tp136
a(I0
g62
tp137
a(I1
g62
tp138
a(I2
g62
tp139
a(I0
g60
tp140
a(I1
g66
tp141
a(I2
g62
tp142
a(I0
g70
tp143
a(I1
g66
tp144
a(I2
g66
tp145
a(I0
g62
tp146
a(I1
g70
tp147
a(I2
g66
tp148
a(I0
g66
tp149
a(I1
g70
tp150
a(I2
g70
tp151
a(I0
g60
tp152
a(I1
g70
tp153
a(I2
g70
tp154
a(I0
g64
tp155
a(I1
g62
tp156
a(I2
g62
tp157
a(I0
g66
tp158
a(I1
g64
tp159
a(I2
g62
tp160
a(I0
g62
tp161
a(I1
g62
tp162
a(I2
g66
tp163
a(I0
g66
tp164
a(I1
g66
tp165
a(I2
g66
tp166
a(I0
g60
tp167
a(I1
g66
tp168
a(I2
g64
tp169
a(I0
g60
tp170
a(I1
g64
tp171
a(I2
g64
tp172
a(I0
g60
tp173
a(I1
g64
tp174
a(I2
g62
tp175
a(I0
g60
tp176
a(I1
g62
tp177
a(I2
g62
tp178
a(I0
g60
tp179
a(I1
g62
tp180
a(I2
g66
tp181
a(I0
g62
tp182
a(I1
g66
tp183
a(I2
g66
tp184
a(I0
g62
tp185
a(I1
g66
tp186
a(I2
g70
tp187
a(I0
g70
tp188
a(I1
g70
tp189
a(I2
g70
tp190
a(I0
g60
tp191
a(I1
g70
tp192
a(I2
g62
tp193
a(I0
g62
tp194
a(I1
g66
tp195
a(I2
g62
tp196
a(I0
g66
tp197
a(I1
g70
tp198
a(I2
g66
tp199
a(I0
g66
tp200
a(I1
g62
tp201
a(I2
g66
tp202
a(I0
g64
tp203
a(I1
g70
tp204
a(I2
g64
tp205
a(I0
g60
tp206
a(I1
g70
tp207
a(I2
g64
tp208
a(I0
g62
tp209
a(I1
g62
tp210
a(I2
g62
tp211
a(I0
g60
tp212
a(I1
g62
tp213
a(I2
g62
tp214
a(I0
g64
tp215
a(I1
g70
tp216
a(I2
g66
tp217
a(I0
g70
tp218
a(I1
g70
tp219
a(I2
g66
tp220
a(I0
g66
tp221
a(I1
g66
tp222
a(I2
g70
tp223
a(I0
g70
tp224
a(I1
g66
tp225
a(I2
g70
tp226
a(I0
g60
tp227
a(I1
g64
tp228
a(I2
g62
tp229
a(I0
g60
tp230
a(I1
g64
tp231
a(I2
g62
tp232
a(I0
g64
tp233
a(I1
g62
tp234
a(I2
g66
tp235
a(I0
g70
tp236
a(I1
g62
tp237
a(I2
g70
tp238
a(I0
g62
tp239
a(I1
g70
tp240
a(I2
g66
tp241
a(I0
g64
tp242
a(I1
g70
tp243
a(I2
g64
tp244
a(I0
g64
tp245
a(I1
g66
tp246
a(I2
g62
tp247
a(I0
g60
tp248
a(I1
g66
tp249
a(I2
g62
tp250
a(I0
g70
tp251
a(I1
g64
tp252
a(I2
g66
tp253
a(I0
g64
tp254
a(I1
g64
tp255
a(I2
g66
tp256
a(I0
g60
tp257
a(I1
g66
tp258
a(I2
g64
tp259
a(I0
g70
tp260
a(I1
g66
tp261
a(I2
g64
tp262
a(I0
g64
tp263
a(I1
g64
tp264
a(I2
g62
tp265
a(I0
g62
tp266
a(I1
g62
tp267
a(I2
g62
tp268
a(I0
g64
tp269
a(I1
g64
tp270
a(I2
g66
tp271
a(I0
g60
tp272
a(I1
g62
tp273
a(I2
g66
tp274
a(I0
g60
tp275
a(I1
g64
tp276
a(I2
g70
tp277
a(I0
g70
tp278
a(I1
g66
tp279
a(I2
g70
tp280
a(I0
g64
tp281
a(I1
g66
tp282
a(I2
g66
tp283
a(I0
g64
tp284
a(I1
g64
tp285
a(I2
g66
tp286
a(I0
g70
tp287
as.