(dp1
S'layout'
p2
(ilayout
Layout
p3
(dp4
S'numGhosts'
p5
I2
sS'food'
p6
(igame
Grid
p7
(dp8
S'CELLS_PER_INT'
p9
I30
sS'width'
p10
I10
sS'data'
p11
(lp12
(lp13
I00
aI00
aI00
aI00
aI00
aI00
aI00
aI00
aI00
aI00
aa(lp14
I00
aI01
aI00
aI00
aI00
aI00
aI01
aI00
aI00
aI00
aa(lp15
I00
aI00
aI00
aI00
aI00
aI00
aI01
aI00
aI00
aI00
aa(lp16
I00
aI00
aI00
aI00
aI00
aI00
aI01
aI01
aI00
aI00
aa(lp17
I00
aI00
aI00
aI00
aI01
aI01
aI01
aI00
aI00
aI00
aa(lp18
I00
aI00
aI00
aI00
aI00
aI01
aI01
aI01
aI01
aI00
aa(lp19
I00
aI01
aI00
aI00
aI00
aI01
aI00
aI00
aI00
aI00
aa(lp20
I00
aI01
aI00
aI00
aI01
aI01
aI01
aI01
aI00
aI00
aa(lp21
I00
aI00
aI00
aI00
aI00
aI00
aI00
aI01
aI00
aI00
aa(lp22
I00
aI00
aI00
aI00
aI00
aI00
aI00
aI00
aI00
aI00
aasS'height'
p23
I10
sbsS'agentPositions'
p24
(lp25
(I01
(I1
I3
tp26
tp27
a(I00
(I7
I8
tp28
tp29
a(I00
(I8
I8
tp30
tp31
asg23
I10
sg10
I10
sS'walls'
p32
(igame
Grid
p33
(dp34
g9
I30
sg10
I10
sg11
(lp35
(lp36
I01
aI01
aI01
aI01
aI01
aI01
aI01
aI01
aI01
aI01
aa(lp37
I01
aI00
aI01
aI00
aI01
aI01
aI00
aI00
aI00
aI01
aa(lp38
I01
aI00
aI01
aI00
aI00
aI01
aI00
aI01
aI00
aI01
aa(lp39
I01
aI00
aI00
aI00
aI00
aI00
aI00
aI00
aI00
aI01
aa(lp40
I01
aI01
aI01
aI00
aI00
aI00
aI00
aI01
aI01
aI01
aa(lp41
I01
aI00
aI00
aI00
aI01
aI00
aI00
aI00
aI00
aI01
aa(lp42
I01
aI00
aI00
aI00
aI00
aI00
aI01
aI01
aI00
aI01
aa(lp43
I01
aI00
aI00
aI01
aI00
aI00
aI00
aI00
aI00
aI01
aa(lp44
I01
aI00
aI01
aI01
aI00
aI01
aI01
aI00
aI00
aI01
aa(lp45
I01
aI01
aI01
aI01
aI01
aI01
aI01
aI01
aI01
aI01
aasg23
I10
sbsS'layoutText'
p46
(lp47
S'%%%%%%%%%%'
p48
aS'%   %. GG%'
p49
aS'% %.%.%..%'
p50
aS'%.....%.%%'
p51
aS'%%% ....%%'
p52
aS'%%  .% . %'
p53
aS'%P     %%%'
p54
aS'%%% %   %%'
p55
aS'%.  % .. %'
p56
aS'%%%%%%%%%%'
p57
asbsS'actions'
p58
(lp59
(I0
S'East'
p60
tp61
a(I1
g60
tp62
a(I2
S'West'
p63
tp64
a(I0
g63
tp65
a(I1
S'South'
p66
tp67
a(I2
g66
tp68
a(I0
g60
tp69
a(I1
g63
tp70
a(I2
g66
tp71
a(I0
S'North'
p72
tp73
a(I1
g66
tp74
a(I2
g66
tp75
a(I0
g60
tp76
a(I1
g66
tp77
a(I2
g63
tp78
a(I0
g60
tp79
a(I1
g66
tp80
a(I2
g66
tp81
a(I0
g72
tp82
a(I1
g60
tp83
a(I2
g66
tp84
a(I0
g63
tp85
a(I1
g63
tp86
a(I2
g66
tp87
a(I0
g72
tp88
a(I1
g72
tp89
a(I2
g63
tp90
a(I0
S'Stop'
p91
tp92
a(I1
g63
tp93
a(I2
g66
tp94
a(I0
g63
tp95
a(I1
g66
tp96
a(I2
g60
tp97
a(I0
g91
tp98
a(I1
g66
tp99
a(I2
g72
tp100
a(I0
g63
tp101
a(I1
g66
tp102
a(I2
g63
tp103
a(I0
g91
tp104
a(I1
g60
tp105
a(I2
g72
tp106
a(I0
g91
tp107
a(I1
g66
tp108
a(I2
g63
tp109
a(I0
g91
tp110
a(I1
g60
tp111
a(I2
g63
tp112
a(I0
g72
tp113
a(I1
g63
tp114
a(I2
g66
tp115
a(I0
g91
tp116
a(I1
g72
tp117
a(I2
g66
tp118
a(I0
g66
tp119
a(I1
g63
tp120
a(I2
g63
tp121
a(I0
g72
tp122
a(I1
g63
tp123
a(I2
g63
tp124
a(I0
g91
tp125
a(I1
g66
tp126
a(I2
g60
tp127
a(I0
g72
tp128
a(I1
g60
tp129
a(I2
g60
tp130
a(I0
g60
tp131
a(I1
g60
tp132
a(I2
g72
tp133
a(I0
g91
tp134
a(I1
g60
tp135
a(I2
g72
tp136
a(I0
g60
tp137
a(I1
g63
tp138
a(I2
g63
tp139
a(I0
g63
tp140
a(I1
g72
tp141
a(I2
g63
tp142
a(I0
g60
tp143
a(I1
g63
tp144
a(I2
g60
tp145
a(I0
g66
tp146
a(I1
g66
tp147
a(I2
g60
tp148
a(I0
g72
tp149
a(I1
g63
tp150
a(I2
g66
tp151
a(I0
g91
tp152
a(I1
g72
tp153
a(I2
g66
tp154
a(I0
g63
tp155
a(I1
g60
tp156
a(I2
g63
tp157
a(I0
g60
tp158
a(I1
g60
tp159
a(I2
g63
tp160
a(I0
g91
tp161
a(I1
g66
tp162
a(I2
g60
tp163
a(I0
g63
tp164
a(I1
g60
tp165
a(I2
g60
tp166
a(I0
g60
tp167
a(I1
g63
tp168
a(I2
g72
tp169
a(I0
g91
tp170
a(I1
g72
tp171
a(I2
g72
tp172
a(I0
g66
tp173
a(I1
g63
tp174
a(I2
g63
tp175
a(I0
g91
tp176
a(I1
g66
tp177
a(I2
g63
tp178
a(I0
g66
tp179
a(I1
g60
tp180
a(I2
g60
tp181
a(I0
g63
tp182
a(I1
g72
tp183
a(I2
g72
tp184
a(I0
g63
tp185
a(I1
g63
tp186
a(I2
g60
tp187
a(I0
g91
tp188
a(I1
g72
tp189
a(I2
g66
tp190
a(I0
g72
tp191
a(I1
g63
tp192
a(I2
g66
tp193
a(I0
g72
tp194
a(I1
g66
tp195
a(I2
g66
tp196
a(I0
g66
tp197
a(I1
g66
tp198
a(I2
g63
tp199
a(I0
g91
tp200
a(I1
g60
tp201
a(I2
g63
tp202
a(I0
g91
tp203
a(I1
g72
tp204
a(I2
g60
tp205
a(I0
g91
tp206
a(I1
g60
tp207
a(I2
g60
tp208
a(I0
g66
tp209
a(I1
g66
tp210
a(I2
g72
tp211
a(I0
g60
tp212
a(I1
g60
tp213
a(I2
g72
tp214
a(I0
g91
tp215
a(I1
g63
tp216
a(I2
g63
tp217
a(I0
g91
tp218
a(I1
g63
tp219
a(I2
g63
tp220
a(I0
g60
tp221
a(I1
g63
tp222
a(I2
g60
tp223
a(I0
g63
tp224
a(I1
g72
tp225
a(I2
g60
tp226
a(I0
g60
tp227
a(I1
g60
tp228
a(I2
g66
tp229
a(I0
g63
tp230
a(I1
g60
tp231
a(I2
g66
tp232
a(I0
g60
tp233
a(I1
g66
tp234
a(I2
g63
tp235
a(I0
g66
tp236
a(I1
g63
tp237
a(I2
g63
tp238
a(I0
g60
tp239
a(I1
g72
tp240
a(I2
g60
tp241
a(I0
g60
tp242
a(I1
g60
tp243
a(I2
g60
tp244
a(I0
g60
tp245
a(I1
g66
tp246
a(I2
g72
tp247
a(I0
g63
tp248
a(I1
g60
tp249
a(I2
g72
tp250
a(I0
g60
tp251
a(I1
g63
tp252
a(I2
g63
tp253
a(I0
g63
tp254
a(I1
g72
tp255
a(I2
g63
tp256
a(I0
g63
tp257
a(I1
g63
tp258
a(I2
g60
tp259
a(I0
g66
tp260
a(I1
g72
tp261
a(I2
g60
tp262
a(I0
g72
tp263
a(I1
g63
tp264
a(I2
g66
tp265
a(I0
g60
tp266
a(I1
g66
tp267
a(I2
g66
tp268
a(I0
g91
tp269
a(I1
g60
tp270
a(I2
g63
tp271
a(I0
g63
tp272
a(I1
g60
tp273
a(I2
g63
tp274
a(I0
g91
tp275
a(I1
g66
tp276
a(I2
g60
tp277
a(I0
g66
tp278
a(I1
g60
tp279
a(I2
g60
tp280
a(I0
g66
tp281
a(I1
g63
tp282
a(I2
g72
tp283
a(I0
g91
tp284
a(I1
g72
tp285
a(I2
g72
tp286
a(I0
g60
tp287
a(I1
g63
tp288
a(I2
g63
tp289
a(I0
g60
tp290
a(I1
g72
tp291
as.