(dp1
S'layout'
p2
(ilayout
Layout
p3
(dp4
S'numGhosts'
p5
I2
sS'food'
p6
(igame
Grid
p7
(dp8
S'CELLS_PER_INT'
p9
I30
sS'width'
p10
I10
sS'data'
p11
(lp12
(lp13
I00
aI00
aI00
aI00
aI00
aI00
aI00
aI00
aI00
aI00
aa(lp14
I00
aI01
aI00
aI00
aI00
aI00
aI01
aI00
aI00
aI00
aa(lp15
I00
aI00
aI00
aI00
aI00
aI00
aI01
aI00
aI00
aI00
aa(lp16
I00
aI00
aI00
aI00
aI00
aI00
aI01
aI01
aI00
aI00
aa(lp17
I00
aI00
aI00
aI00
aI01
aI01
aI01
aI00
aI00
aI00
aa(lp18
I00
aI00
aI00
aI00
aI00
aI01
aI01
aI01
aI01
aI00
aa(lp19
I00
aI01
aI00
aI00
aI00
aI01
aI00
aI00
aI00
aI00
aa(lp20
I00
aI01
aI00
aI00
aI01
aI01
aI01
aI01
aI00
aI00
aa(lp21
I00
aI00
aI00
aI00
aI00
aI00
aI00
aI01
aI00
aI00
aa(lp22
I00
aI00
aI00
aI00
aI00
aI00
aI00
aI00
aI00
aI00
aasS'height'
p23
I10
sbsS'agentPositions'
p24
(lp25
(I01
(I1
I3
tp26
tp27
a(I00
(I7
I8
tp28
tp29
a(I00
(I8
I8
tp30
tp31
asg23
I10
sg10
I10
sS'walls'
p32
(igame
Grid
p33
(dp34
g9
I30
sg10
I10
sg11
(lp35
(lp36
I01
aI01
aI01
aI01
aI01
aI01
aI01
aI01
aI01
aI01
aa(lp37
I01
aI00
aI01
aI00
aI01
aI01
aI00
aI00
aI00
aI01
aa(lp38
I01
aI00
aI01
aI00
aI00
aI01
aI00
aI01
aI00
aI01
aa(lp39
I01
aI00
aI00
aI00
aI00
aI00
aI00
aI00
aI00
aI01
aa(lp40
I01
aI01
aI01
aI00
aI00
aI00
aI00
aI01
aI01
aI01
aa(lp41
I01
aI00
aI00
aI00
aI01
aI00
aI00
aI00
aI00
aI01
aa(lp42
I01
aI00
aI00
aI00
aI00
aI00
aI01
aI01
aI00
aI01
aa(lp43
I01
aI00
aI00
aI01
aI00
aI00
aI00
aI00
aI00
aI01
aa(lp44
I01
aI00
aI01
aI01
aI00
aI01
aI01
aI00
aI00
aI01
aa(lp45
I01
aI01
aI01
aI01
aI01
aI01
aI01
aI01
aI01
aI01
aasg23
I10
sbsS'layoutText'
p46
(lp47
S'%%%%%%%%%%'
p48
aS'%   %. GG%'
p49
aS'% %.%.%..%'
p50
aS'%.....%.%%'
p51
aS'%%% ....%%'
p52
aS'%%  .% . %'
p53
aS'%P     %%%'
p54
aS'%%% %   %%'
p55
aS'%.  % .. %'
p56
aS'%%%%%%%%%%'
p57
asbsS'actions'
p58
(lp59
(I0
S'East'
p60
tp61
a(I1
g60
tp62
a(I2
S'South'
p63
tp64
a(I0
S'North'
p65
tp66
a(I1
g63
tp67
a(I2
S'West'
p68
tp69
a(I0
g60
tp70
a(I1
g68
tp71
a(I2
g63
tp72
a(I0
g60
tp73
a(I1
g65
tp74
a(I2
g63
tp75
a(I0
g65
tp76
a(I1
g60
tp77
a(I2
g63
tp78
a(I0
g60
tp79
a(I1
g63
tp80
a(I2
g60
tp81
a(I0
g60
tp82
a(I1
g68
tp83
a(I2
g68
tp84
a(I0
g68
tp85
a(I1
g63
tp86
a(I2
g65
tp87
a(I0
g65
tp88
a(I1
g63
tp89
a(I2
g65
tp90
a(I0
g68
tp91
a(I1
g63
tp92
a(I2
g65
tp93
a(I0
g68
tp94
a(I1
g60
tp95
a(I2
g60
tp96
a(I0
g65
tp97
a(I1
g68
tp98
a(I2
g65
tp99
a(I0
g63
tp100
a(I1
g65
tp101
a(I2
g68
tp102
a(I0
g68
tp103
a(I1
g65
tp104
a(I2
g63
tp105
a(I0
g60
tp106
a(I1
g65
tp107
a(I2
g60
tp108
a(I0
S'Stop'
p109
tp110
a(I1
g60
tp111
a(I2
g65
tp112
a(I0
g65
tp113
a(I1
g65
tp114
a(I2
g68
tp115
a(I0
g65
tp116
a(I1
g68
tp117
a(I2
g63
tp118
a(I0
g63
tp119
a(I1
g63
tp120
a(I2
g60
tp121
a(I0
g65
tp122
a(I1
g60
tp123
a(I2
g65
tp124
a(I0
g63
tp125
a(I1
g65
tp126
a(I2
g68
tp127
a(I0
g109
tp128
a(I1
g68
tp129
a(I2
g63
tp130
a(I0
g109
tp131
a(I1
g63
tp132
a(I2
g63
tp133
a(I0
g63
tp134
a(I1
g60
tp135
a(I2
g63
tp136
a(I0
g60
tp137
a(I1
g65
tp138
a(I2
g63
tp139
a(I0
g68
tp140
a(I1
g68
tp141
a(I2
g60
tp142
a(I0
g63
tp143
a(I1
g63
tp144
a(I2
g68
tp145
a(I0
g109
tp146
a(I1
g63
tp147
a(I2
g68
tp148
a(I0
g63
tp149
a(I1
g63
tp150
a(I2
g63
tp151
a(I0
g63
tp152
a(I1
g63
tp153
a(I2
g63
tp154
a(I0
g68
tp155
a(I1
g60
tp156
a(I2
g60
tp157
a(I0
g109
tp158
a(I1
g68
tp159
a(I2
g63
tp160
a(I0
g60
tp161
a(I1
g68
tp162
a(I2
g60
tp163
a(I0
g63
tp164
a(I1
g63
tp165
a(I2
g68
tp166
a(I0
g65
tp167
a(I1
g63
tp168
a(I2
g65
tp169
a(I0
g68
tp170
a(I1
g60
tp171
a(I2
g68
tp172
a(I0
g60
tp173
a(I1
g63
tp174
a(I2
g63
tp175
a(I0
g63
tp176
a(I1
g60
tp177
a(I2
g60
tp178
a(I0
g65
tp179
a(I1
g68
tp180
a(I2
g60
tp181
a(I0
g68
tp182
a(I1
g65
tp183
a(I2
g68
tp184
a(I0
g68
tp185
a(I1
g68
tp186
a(I2
g65
tp187
a(I0
g109
tp188
a(I1
g63
tp189
a(I2
g68
tp190
a(I0
g109
tp191
a(I1
g60
tp192
a(I2
g63
tp193
a(I0
g109
tp194
a(I1
g60
tp195
a(I2
g60
tp196
a(I0
g60
tp197
a(I1
g68
tp198
a(I2
g65
tp199
a(I0
g65
tp200
a(I1
g68
tp201
a(I2
g68
tp202
a(I0
g63
tp203
a(I1
g65
tp204
a(I2
g63
tp205
a(I0
g60
tp206
a(I1
g60
tp207
a(I2
g60
tp208
a(I0
g63
tp209
a(I1
g63
tp210
a(I2
g65
tp211
a(I0
g65
tp212
a(I1
g60
tp213
a(I2
g68
tp214
a(I0
g60
tp215
a(I1
g68
tp216
a(I2
g63
tp217
a(I0
g65
tp218
a(I1
g65
tp219
a(I2
g60
tp220
a(I0
g68
tp221
a(I1
g68
tp222
a(I2
g60
tp223
a(I0
g63
tp224
a(I1
g63
tp225
a(I2
g68
tp226
a(I0
g68
tp227
a(I1
g60
tp228
a(I2
g65
tp229
a(I0
g60
tp230
a(I1
g65
tp231
a(I2
g68
tp232
a(I0
g109
tp233
a(I1
g68
tp234
a(I2
g65
tp235
a(I0
g68
tp236
a(I1
g68
tp237
a(I2
g65
tp238
a(I0
g109
tp239
a(I1
g63
tp240
a(I2
g60
tp241
a(I0
g68
tp242
a(I1
g60
tp243
a(I2
g65
tp244
a(I0
g60
tp245
a(I1
g65
tp246
a(I2
g65
tp247
a(I0
g109
tp248
a(I1
g60
tp249
a(I2
g65
tp250
a(I0
g68
tp251
a(I1
g63
tp252
a(I2
g65
tp253
a(I0
g60
tp254
a(I1
g60
tp255
a(I2
g60
tp256
a(I0
g60
tp257
a(I1
g68
tp258
a(I2
g63
tp259
a(I0
g60
tp260
a(I1
g65
tp261
a(I2
g68
tp262
a(I0
g65
tp263
a(I1
g68
tp264
a(I2
g63
tp265
a(I0
g68
tp266
a(I1
g65
tp267
a(I2
g63
tp268
a(I0
g65
tp269
a(I1
g65
tp270
a(I2
g63
tp271
a(I0
g109
tp272
a(I1
g60
tp273
a(I2
g60
tp274
a(I0
g65
tp275
a(I1
g60
tp276
a(I2
g68
tp277
a(I0
g68
tp278
a(I1
g68
tp279
a(I2
g65
tp280
a(I0
g109
tp281
a(I1
g65
tp282
a(I2
g65
tp283
a(I0
g109
tp284
a(I1
g65
tp285
a(I2
g65
tp286
a(I0
g60
tp287
a(I1
g65
tp288
a(I2
g60
tp289
a(I0
g60
tp290
a(I1
g65
tp291
a(I2
g65
tp292
a(I0
g63
tp293
a(I1
g60
tp294
a(I2
g68
tp295
a(I0
g65
tp296
a(I1
g63
tp297
a(I2
g63
tp298
a(I0
g68
tp299
a(I1
g68
tp300
a(I2
g63
tp301
a(I0
g63
tp302
a(I1
g65
tp303
a(I2
g63
tp304
a(I0
g63
tp305
a(I1
g68
tp306
a(I2
g63
tp307
a(I0
g68
tp308
a(I1
g68
tp309
a(I2
g68
tp310
a(I0
g63
tp311
a(I1
g63
tp312
a(I2
g63
tp313
a(I0
g68
tp314
a(I1
g63
tp315
a(I2
g68
tp316
a(I0
g60
tp317
a(I1
g68
tp318
a(I2
g63
tp319
a(I0
g65
tp320
a(I1
g68
tp321
a(I2
g60
tp322
a(I0
g63
tp323
a(I1
g68
tp324
a(I2
g60
tp325
a(I0
g65
tp326
a(I1
g68
tp327
a(I2
g63
tp328
a(I0
g60
tp329
a(I1
g65
tp330
a(I2
g60
tp331
a(I0
g60
tp332
a(I1
g65
tp333
a(I2
g68
tp334
a(I0
g65
tp335
a(I1
g60
tp336
a(I2
g65
tp337
a(I0
g65
tp338
a(I1
g60
tp339
a(I2
g68
tp340
a(I0
g60
tp341
a(I1
g63
tp342
a(I2
g68
tp343
a(I0
g109
tp344
a(I1
g63
tp345
a(I2
g65
tp346
a(I0
g65
tp347
a(I1
g60
tp348
a(I2
g60
tp349
a(I0
g109
tp350
a(I1
g60
tp351
a(I2
g63
tp352
a(I0
g65
tp353
a(I1
g65
tp354
a(I2
g60
tp355
a(I0
g63
tp356
as.