(dp1
S'layout'
p2
(ilayout
Layout
p3
(dp4
S'numGhosts'
p5
I3
sS'food'
p6
(igame
Grid
p7
(dp8
S'CELLS_PER_INT'
p9
I30
sS'width'
p10
I25
sS'data'
p11
(lp12
(lp13
I00
aI00
aI00
aI00
aI00
aI00
aI00
aI00
aI00
aI00
aI00
aI00
aa(lp14
I00
aI00
aI00
aI00
aI00
aI01
aI00
aI00
aI00
aI01
aI01
aI00
aa(lp15
I00
aI00
aI00
aI00
aI00
aI00
aI00
aI00
aI00
aI00
aI00
aI00
aa(lp16
I00
aI00
aI00
aI01
aI00
aI01
aI00
aI01
aI00
aI00
aI01
aI00
aa(lp17
I00
aI00
aI00
aI01
aI00
aI00
aI00
aI00
aI00
aI00
aI00
aI00
aa(lp18
I00
aI00
aI01
aI00
aI00
aI01
aI00
aI01
aI01
aI00
aI00
aI00
aa(lp19
I00
aI01
aI00
aI01
aI00
aI01
aI00
aI01
aI01
aI00
aI01
aI00
aa(lp20
I00
aI00
aI01
aI00
aI00
aI01
aI00
aI01
aI00
aI01
aI01
aI00
aa(lp21
I00
aI01
aI01
aI01
aI01
aI01
aI00
aI01
aI01
aI00
aI01
aI00
aa(lp22
I00
aI01
aI01
aI00
aI01
aI01
aI00
aI01
aI00
aI00
aI00
aI00
aa(lp23
I00
aI00
aI00
aI01
aI00
aI01
aI00
aI00
aI01
aI00
aI00
aI00
aa(lp24
I00
aI00
aI00
aI00
aI00
aI01
aI00
aI01
aI00
aI00
aI00
aI00
aa(lp25
I00
aI01
aI00
aI01
aI01
aI01
aI00
aI01
aI00
aI00
aI00
aI00
aa(lp26
I00
aI01
aI00
aI01
aI00
aI00
aI00
aI01
aI00
aI00
aI00
aI00
aa(lp27
I00
aI01
aI00
aI01
aI00
aI00
aI01
aI01
aI00
aI00
aI00
aI00
aa(lp28
I00
aI01
aI00
aI01
aI00
aI01
aI00
aI01
aI00
aI01
aI00
aI00
aa(lp29
I00
aI00
aI00
aI01
aI00
aI00
aI01
aI01
aI00
aI00
aI00
aI00
aa(lp30
I00
aI00
aI01
aI00
aI00
aI01
aI01
aI00
aI00
aI01
aI01
aI00
aa(lp31
I00
aI00
aI00
aI00
aI00
aI00
aI00
aI00
aI00
aI01
aI00
aI00
aa(lp32
I00
aI00
aI01
aI01
aI01
aI01
aI00
aI01
aI00
aI00
aI00
aI00
aa(lp33
I00
aI00
aI01
aI01
aI00
aI01
aI00
aI00
aI00
aI00
aI00
aI00
aa(lp34
I00
aI00
aI00
aI00
aI00
aI00
aI00
aI01
aI00
aI00
aI00
aI00
aa(lp35
I00
aI00
aI00
aI01
aI00
aI00
aI00
aI01
aI00
aI00
aI00
aI00
aa(lp36
I00
aI00
aI00
aI00
aI00
aI01
aI00
aI01
aI00
aI00
aI00
aI00
aa(lp37
I00
aI00
aI00
aI00
aI00
aI00
aI00
aI00
aI00
aI00
aI00
aI00
aasS'height'
p38
I12
sbsS'agentPositions'
p39
(lp40
(I01
(I20
I1
tp41
tp42
a(I00
(I21
I10
tp43
tp44
a(I00
(I22
I10
tp45
tp46
a(I00
(I23
I10
tp47
tp48
asg38
I12
sg10
I25
sS'walls'
p49
(igame
Grid
p50
(dp51
g9
I30
sg10
I25
sg11
(lp52
(lp53
I01
aI01
aI01
aI01
aI01
aI01
aI01
aI01
aI01
aI01
aI01
aI01
aa(lp54
I01
aI00
aI00
aI00
aI01
aI00
aI00
aI00
aI01
aI00
aI00
aI01
aa(lp55
I01
aI00
aI00
aI00
aI01
aI00
aI00
aI00
aI01
aI00
aI00
aI01
aa(lp56
I01
aI00
aI00
aI00
aI01
aI00
aI00
aI00
aI01
aI00
aI00
aI01
aa(lp57
I01
aI00
aI00
aI00
aI01
aI00
aI00
aI00
aI01
aI01
aI00
aI01
aa(lp58
I01
aI00
aI00
aI00
aI01
aI00
aI00
aI00
aI00
aI01
aI00
aI01
aa(lp59
I01
aI00
aI00
aI00
aI01
aI00
aI00
aI00
aI00
aI01
aI00
aI01
aa(lp60
I01
aI01
aI00
aI01
aI01
aI00
aI01
aI00
aI00
aI00
aI00
aI01
aa(lp61
I01
aI00
aI00
aI00
aI00
aI00
aI01
aI00
aI00
aI00
aI00
aI01
aa(lp62
I01
aI00
aI00
aI00
aI00
aI00
aI00
aI00
aI00
aI01
aI00
aI01
aa(lp63
I01
aI00
aI00
aI00
aI00
aI00
aI00
aI00
aI00
aI01
aI01
aI01
aa(lp64
I01
aI00
aI00
aI00
aI00
aI00
aI00
aI00
aI00
aI00
aI00
aI01
aa(lp65
I01
aI00
aI00
aI00
aI00
aI00
aI00
aI00
aI00
aI00
aI00
aI01
aa(lp66
I01
aI00
aI00
aI00
aI00
aI01
aI00
aI00
aI00
aI00
aI00
aI01
aa(lp67
I01
aI00
aI01
aI00
aI00
aI00
aI00
aI00
aI00
aI00
aI00
aI01
aa(lp68
I01
aI00
aI01
aI00
aI00
aI00
aI00
aI00
aI00
aI00
aI00
aI01
aa(lp69
I01
aI00
aI00
aI00
aI00
aI00
aI00
aI00
aI01
aI00
aI01
aI01
aa(lp70
I01
aI00
aI00
aI00
aI00
aI00
aI00
aI00
aI01
aI00
aI00
aI01
aa(lp71
I01
aI00
aI00
aI00
aI00
aI00
aI01
aI01
aI01
aI00
aI00
aI01
aa(lp72
I01
aI00
aI00
aI00
aI00
aI00
aI00
aI00
aI00
aI00
aI00
aI01
aa(lp73
I01
aI00
aI00
aI00
aI00
aI00
aI01
aI00
aI00
aI00
aI00
aI01
aa(lp74
I01
aI00
aI00
aI00
aI00
aI00
aI01
aI00
aI00
aI00
aI00
aI01
aa(lp75
I01
aI00
aI00
aI00
aI01
aI00
aI01
aI00
aI00
aI00
aI00
aI01
aa(lp76
I01
aI00
aI00
aI01
aI01
aI00
aI01
aI00
aI00
aI00
aI00
aI01
aa(lp77
I01
aI01
aI01
aI01
aI01
aI01
aI01
aI01
aI01
aI01
aI01
aI01
aasg38
I12
sbsS'layoutText'
p78
(lp79
S'%%%%%%%%%%%%%%%%%%%%%%%%%'
p80
aS'%. .  ... %     %.   GGG%'
p81
aS'%.  %%%. %%    . ..     %'
p82
aS'%%%%%.. . .     %%%     %'
p83
aS'%  . ..... ...... %. ...%'
p84
aS'%      %%     . ..% %%%%%'
p85
aS'%. . ........% . . ..  .%'
p86
aS'%%%%%%%%..  .      .  %%%'
p87
aS'%  .. .%. . .....  .. .%%'
p88
aS'%    . ...    %% . ..   %'
p89
aS'%     .%..  ....    P   %'
p90
aS'%%%%%%%%%%%%%%%%%%%%%%%%%'
p91
asbsS'actions'
p92
(lp93
(I0
S'North'
p94
tp95
a(I1
S'West'
p96
tp97
a(I2
g96
tp98
a(I3
g96
tp99
a(I0
g94
tp100
a(I1
S'South'
p101
tp102
a(I2
g96
tp103
a(I3
g96
tp104
a(I0
g96
tp105
a(I1
g101
tp106
a(I2
g96
tp107
a(I3
g96
tp108
a(I0
g94
tp109
a(I1
g96
tp110
a(I2
g96
tp111
a(I3
g96
tp112
a(I0
g96
tp113
a(I1
g101
tp114
a(I2
g96
tp115
a(I3
g96
tp116
a(I0
S'Stop'
p117
tp118
a(I1
g101
tp119
a(I2
g101
tp120
a(I3
g96
tp121
a(I0
g117
tp122
a(I1
g101
tp123
a(I2
g96
tp124
a(I3
g101
tp125
a(I0
g117
tp126
a(I1
g101
tp127
a(I2
g96
tp128
a(I3
g96
tp129
a(I0
g94
tp130
a(I1
S'East'
p131
tp132
a(I2
g96
tp133
a(I3
g96
tp134
a(I0
g101
tp135
a(I1
g101
tp136
a(I2
g96
tp137
a(I3
g96
tp138
a(I0
g94
tp139
a(I1
g96
tp140
a(I2
g96
tp141
a(I3
g96
tp142
a(I0
g117
tp143
a(I1
g96
tp144
a(I2
g101
tp145
a(I3
g96
tp146
a(I0
g131
tp147
a(I1
g96
tp148
a(I2
g96
tp149
a(I3
g94
tp150
a(I0
g94
tp151
a(I1
g94
tp152
a(I2
g96
tp153
a(I3
g96
tp154
a(I0
g117
tp155
a(I1
g96
tp156
a(I2
g101
tp157
a(I3
g101
tp158
a(I0
g101
tp159
a(I1
g96
tp160
a(I2
g101
tp161
a(I3
g101
tp162
a(I0
g101
tp163
a(I1
g96
tp164
a(I2
g101
tp165
a(I3
g96
tp166
a(I0
g101
tp167
a(I1
g96
tp168
a(I2
g96
tp169
a(I3
g101
tp170
a(I0
g94
tp171
a(I1
g96
tp172
a(I2
g101
tp173
a(I3
g96
tp174
a(I0
g94
tp175
a(I1
g96
tp176
a(I2
g101
tp177
a(I3
g94
tp178
a(I0
g94
tp179
a(I1
g96
tp180
a(I2
g131
tp181
a(I3
g96
tp182
a(I0
g117
tp183
a(I1
g94
tp184
a(I2
g94
tp185
a(I3
g94
tp186
a(I0
g117
tp187
a(I1
g131
tp188
a(I2
g131
tp189
a(I3
g94
tp190
a(I0
g117
tp191
a(I1
g94
tp192
a(I2
g94
tp193
a(I3
g131
tp194
a(I0
g117
tp195
a(I1
g94
tp196
a(I2
g131
tp197
a(I3
g96
tp198
a(I0
g101
tp199
a(I1
g96
tp200
a(I2
g94
tp201
a(I3
g101
tp202
a(I0
g96
tp203
a(I1
g94
tp204
a(I2
g94
tp205
a(I3
g96
tp206
a(I0
g131
tp207
a(I1
g131
tp208
a(I2
g96
tp209
a(I3
g94
tp210
a(I0
g96
tp211
a(I1
g94
tp212
a(I2
g94
tp213
a(I3
g131
tp214
a(I0
g101
tp215
a(I1
g94
tp216
a(I2
g94
tp217
a(I3
g131
tp218
a(I0
g94
tp219
a(I1
g131
tp220
a(I2
g94
tp221
a(I3
g96
tp222
a(I0
g96
tp223
a(I1
g101
tp224
a(I2
g131
tp225
a(I3
g96
tp226
a(I0
g94
tp227
a(I1
g96
tp228
a(I2
g101
tp229
a(I3
g101
tp230
a(I0
g96
tp231
a(I1
g94
tp232
a(I2
g96
tp233
a(I3
g131
tp234
a(I0
g131
tp235
a(I1
g131
tp236
a(I2
g94
tp237
a(I3
g94
tp238
a(I0
g94
tp239
a(I1
g101
tp240
a(I2
g131
tp241
a(I3
g96
tp242
a(I0
g101
tp243
a(I1
g101
tp244
a(I2
g101
tp245
a(I3
g101
tp246
a(I0
g96
tp247
a(I1
g96
tp248
a(I2
g96
tp249
a(I3
g131
tp250
a(I0
g96
tp251
a(I1
g96
tp252
a(I2
g94
tp253
a(I3
g94
tp254
a(I0
g96
tp255
a(I1
g96
tp256
a(I2
g131
tp257
a(I3
g131
tp258
a(I0
g96
tp259
a(I1
g96
tp260
a(I2
g101
tp261
a(I3
g96
tp262
a(I0
g117
tp263
a(I1
g94
tp264
a(I2
g131
tp265
a(I3
g96
tp266
a(I0
g96
tp267
a(I1
g94
tp268
a(I2
g94
tp269
a(I3
g96
tp270
a(I0
g131
tp271
a(I1
g131
tp272
a(I2
g96
tp273
a(I3
g96
tp274
a(I0
g117
tp275
a(I1
g96
tp276
a(I2
g96
tp277
a(I3
g96
tp278
a(I0
g94
tp279
a(I1
g96
tp280
a(I2
g101
tp281
a(I3
g96
tp282
a(I0
g101
tp283
a(I1
g96
tp284
a(I2
g101
tp285
a(I3
g96
tp286
a(I0
g131
tp287
a(I1
g96
tp288
a(I2
g96
tp289
a(I3
g96
tp290
a(I0
g117
tp291
a(I1
g96
tp292
a(I2
g96
tp293
a(I3
g101
tp294
a(I0
g117
tp295
a(I1
g96
tp296
a(I2
g96
tp297
a(I3
g131
tp298
a(I0
g96
tp299
a(I1
g101
tp300
a(I2
g94
tp301
a(I3
g94
tp302
a(I0
g131
tp303
a(I1
g96
tp304
a(I2
g96
tp305
a(I3
g131
tp306
a(I0
g96
tp307
a(I1
g94
tp308
a(I2
g94
tp309
a(I3
g131
tp310
a(I0
g131
tp311
a(I1
g131
tp312
a(I2
g96
tp313
a(I3
g131
tp314
a(I0
g131
tp315
a(I1
g131
tp316
a(I2
g96
tp317
a(I3
g131
tp318
a(I0
g131
tp319
a(I1
g131
tp320
a(I2
g96
tp321
a(I3
g131
tp322
a(I0
g101
tp323
a(I1
g131
tp324
a(I2
g96
tp325
a(I3
g131
tp326
a(I0
g94
tp327
a(I1
g131
tp328
a(I2
g101
tp329
a(I3
g131
tp330
a(I0
g94
tp331
a(I1
g131
tp332
a(I2
g96
tp333
a(I3
g96
tp334
a(I0
g117
tp335
a(I1
g101
tp336
a(I2
g94
tp337
a(I3
g101
tp338
a(I0
g131
tp339
a(I1
g101
tp340
a(I2
g131
tp341
a(I3
g96
tp342
a(I0
g96
tp343
a(I1
g131
tp344
a(I2
g131
tp345
a(I3
g94
tp346
a(I0
g131
tp347
a(I1
g101
tp348
a(I2
g131
tp349
a(I3
g131
tp350
a(I0
g101
tp351
a(I1
g101
tp352
a(I2
g131
tp353
a(I3
g131
tp354
a(I0
g101
tp355
a(I1
g131
tp356
a(I2
g131
tp357
a(I3
g96
tp358
a(I0
g117
tp359
a(I1
g101
tp360
a(I2
g131
tp361
a(I3
g101
tp362
a(I0
g131
tp363
a(I1
g96
tp364
a(I2
g101
tp365
a(I3
g101
tp366
a(I0
g96
tp367
a(I1
g101
tp368
a(I2
g96
tp369
a(I3
g101
tp370
a(I0
g131
tp371
a(I1
g131
tp372
a(I2
g94
tp373
a(I3
g96
tp374
a(I0
g101
tp375
a(I1
g101
tp376
a(I2
g96
tp377
a(I3
g96
tp378
a(I0
g94
tp379
a(I1
g101
tp380
a(I2
g96
tp381
a(I3
g101
tp382
a(I0
g131
tp383
a(I1
g96
tp384
a(I2
g96
tp385
a(I3
g96
tp386
a(I0
g117
tp387
a(I1
g94
tp388
a(I2
g96
tp389
a(I3
g94
tp390
a(I0
g117
tp391
a(I1
g131
tp392
a(I2
g101
tp393
a(I3
g96
tp394
a(I0
g96
tp395
a(I1
g94
tp396
a(I2
g96
tp397
a(I3
g96
tp398
a(I0
g117
tp399
a(I1
g94
tp400
a(I2
g94
tp401
a(I3
g96
tp402
a(I0
g96
tp403
a(I1
g96
tp404
a(I2
g131
tp405
a(I3
g101
tp406
a(I0
g101
tp407
a(I1
g101
tp408
a(I2
g101
tp409
a(I3
g101
tp410
a(I0
g94
tp411
a(I1
g96
tp412
a(I2
g96
tp413
a(I3
g131
tp414
a(I0
g101
tp415
a(I1
g101
tp416
a(I2
g94
tp417
a(I3
g94
tp418
a(I0
g131
tp419
a(I1
g101
tp420
a(I2
g131
tp421
a(I3
g96
tp422
a(I0
g96
tp423
a(I1
g96
tp424
a(I2
g101
tp425
a(I3
g101
tp426
a(I0
g101
tp427
a(I1
g96
tp428
a(I2
g96
tp429
a(I3
g96
tp430
a(I0
g96
tp431
a(I1
g96
tp432
a(I2
g94
tp433
a(I3
g94
tp434
a(I0
g101
tp435
a(I1
g96
tp436
a(I2
g131
tp437
a(I3
g131
tp438
a(I0
g101
tp439
a(I1
g96
tp440
a(I2
g101
tp441
a(I3
g101
tp442
a(I0
g94
tp443
a(I1
g96
tp444
a(I2
g96
tp445
a(I3
g131
tp446
a(I0
g94
tp447
a(I1
g94
tp448
a(I2
g94
tp449
a(I3
g131
tp450
a(I0
g94
tp451
a(I1
g131
tp452
a(I2
g131
tp453
a(I3
g94
tp454
a(I0
g101
tp455
a(I1
g101
tp456
a(I2
g101
tp457
a(I3
g96
tp458
a(I0
g101
tp459
a(I1
g131
tp460
a(I2
g96
tp461
a(I3
g96
tp462
a(I0
g101
tp463
a(I1
g94
tp464
a(I2
g94
tp465
a(I3
g101
tp466
a(I0
g131
tp467
a(I1
g96
tp468
a(I2
g131
tp469
a(I3
g131
tp470
a(I0
g96
tp471
a(I1
g101
tp472
a(I2
g131
tp473
a(I3
g131
tp474
a(I0
g117
tp475
a(I1
g131
tp476
a(I2
g131
tp477
a(I3
g131
tp478
a(I0
g131
tp479
a(I1
g94
tp480
a(I2
g131
tp481
a(I3
g94
tp482
a(I0
g117
tp483
a(I1
g96
tp484
a(I2
g131
tp485
a(I3
g96
tp486
a(I0
g117
tp487
a(I1
g96
tp488
a(I2
g101
tp489
a(I3
g96
tp490
a(I0
g96
tp491
a(I1
g101
tp492
a(I2
g101
tp493
a(I3
g96
tp494
a(I0
g131
tp495
a(I1
g131
tp496
a(I2
g96
tp497
a(I3
g94
tp498
a(I0
g131
tp499
a(I1
g94
tp500
a(I2
g96
tp501
a(I3
g131
tp502
a(I0
g131
tp503
a(I1
g96
tp504
a(I2
g101
tp505
a(I3
g101
tp506
a(I0
g94
tp507
a(I1
g96
tp508
a(I2
g96
tp509
a(I3
g96
tp510
a(I0
g96
tp511
a(I1
g101
tp512
a(I2
g96
tp513
a(I3
g101
tp514
a(I0
g94
tp515
a(I1
g131
tp516
a(I2
g96
tp517
a(I3
g96
tp518
a(I0
g101
tp519
a(I1
g131
tp520
a(I2
g101
tp521
a(I3
g94
tp522
a(I0
g101
tp523
a(I1
g94
tp524
a(I2
g101
tp525
a(I3
g131
tp526
a(I0
g117
tp527
a(I1
g131
tp528
a(I2
g131
tp529
a(I3
g131
tp530
a(I0
g94
tp531
a(I1
g131
tp532
a(I2
g94
tp533
a(I3
g101
tp534
a(I0
g131
tp535
a(I1
g131
tp536
a(I2
g94
tp537
a(I3
g131
tp538
a(I0
g101
tp539
a(I1
g101
tp540
a(I2
g96
tp541
a(I3
g131
tp542
a(I0
g131
tp543
a(I1
g96
tp544
a(I2
g96
tp545
a(I3
g131
tp546
a(I0
g117
tp547
a(I1
g96
tp548
a(I2
g101
tp549
a(I3
g131
tp550
a(I0
g96
tp551
a(I1
g94
tp552
a(I2
g131
tp553
a(I3
g131
tp554
a(I0
g117
tp555
a(I1
g96
tp556
a(I2
g94
tp557
a(I3
g101
tp558
a(I0
g131
tp559
a(I1
g101
tp560
a(I2
g131
tp561
a(I3
g131
tp562
a(I0
g94
tp563
a(I1
g131
tp564
a(I2
g131
tp565
a(I3
g131
tp566
a(I0
g117
tp567
a(I1
g94
tp568
a(I2
g131
tp569
a(I3
g101
tp570
a(I0
g96
tp571
a(I1
g131
tp572
a(I2
g94
tp573
a(I3
g96
tp574
a(I0
g117
tp575
a(I1
g131
tp576
a(I2
g131
tp577
a(I3
g96
tp578
a(I0
g117
tp579
a(I1
g101
tp580
a(I2
g101
tp581
a(I3
g94
tp582
a(I0
g131
tp583
a(I1
g96
tp584
a(I2
g96
tp585
a(I3
g94
tp586
a(I0
g96
tp587
a(I1
g94
tp588
a(I2
g96
tp589
a(I3
g96
tp590
a(I0
g96
tp591
a(I1
g96
tp592
a(I2
g96
tp593
a(I3
g96
tp594
a(I0
g117
tp595
a(I1
g101
tp596
a(I2
g96
tp597
a(I3
g96
tp598
a(I0
g101
tp599
a(I1
g96
tp600
a(I2
g101
tp601
a(I3
g94
tp602
a(I0
g94
tp603
a(I1
g94
tp604
a(I2
g96
tp605
a(I3
g94
tp606
a(I0
g101
tp607
a(I1
g96
tp608
a(I2
g94
tp609
a(I3
g96
tp610
a(I0
g117
tp611
a(I1
g96
tp612
a(I2
g131
tp613
a(I3
g96
tp614
a(I0
g96
tp615
a(I1
g101
tp616
a(I2
g131
tp617
a(I3
g96
tp618
a(I0
g94
tp619
a(I1
g131
tp620
a(I2
g101
tp621
a(I3
g101
tp622
a(I0
g131
tp623
a(I1
g94
tp624
a(I2
g101
tp625
a(I3
g131
tp626
a(I0
g94
tp627
a(I1
g131
tp628
a(I2
g96
tp629
a(I3
g101
tp630
a(I0
g131
tp631
a(I1
g131
tp632
a(I2
g94
tp633
a(I3
g96
tp634
a(I0
g117
tp635
a(I1
g131
tp636
a(I2
g94
tp637
a(I3
g94
tp638
a(I0
g131
tp639
a(I1
g101
tp640
a(I2
g131
tp641
a(I3
g131
tp642
a(I0
g131
tp643
a(I1
g96
tp644
a(I2
g131
tp645
a(I3
g94
tp646
a(I0
g117
tp647
a(I1
g96
tp648
a(I2
g101
tp649
a(I3
g131
tp650
a(I0
g131
tp651
a(I1
g96
tp652
a(I2
g96
tp653
a(I3
g131
tp654
a(I0
g96
tp655
a(I1
g96
tp656
a(I2
g94
tp657
a(I3
g94
tp658
a(I0
g94
tp659
a(I1
g94
tp660
a(I2
g96
tp661
a(I3
g131
tp662
a(I0
g96
tp663
a(I1
g131
tp664
a(I2
g96
tp665
a(I3
g101
tp666
a(I0
g96
tp667
a(I1
g131
tp668
a(I2
g101
tp669
a(I3
g101
tp670
a(I0
g94
tp671
a(I1
g101
tp672
a(I2
g131
tp673
a(I3
g96
tp674
a(I0
g131
tp675
a(I1
g101
tp676
a(I2
g131
tp677
a(I3
g96
tp678
a(I0
g101
tp679
a(I1
g96
tp680
a(I2
g94
tp681
a(I3
g94
tp682
a(I0
g117
tp683
a(I1
g94
tp684
a(I2
g96
tp685
a(I3
g96
tp686
a(I0
g96
tp687
a(I1
g131
tp688
a(I2
g96
tp689
a(I3
g101
tp690
a(I0
g131
tp691
a(I1
g94
tp692
a(I2
g101
tp693
a(I3
g131
tp694
a(I0
g96
tp695
a(I1
g131
tp696
a(I2
g131
tp697
a(I3
g94
tp698
a(I0
g96
tp699
a(I1
g131
tp700
a(I2
g131
tp701
a(I3
g131
tp702
a(I0
g101
tp703
a(I1
g101
tp704
a(I2
g94
tp705
a(I3
g94
tp706
a(I0
g131
tp707
a(I1
g96
tp708
a(I2
g131
tp709
a(I3
g131
tp710
a(I0
g117
tp711
a(I1
g94
tp712
a(I2
g131
tp713
a(I3
g101
tp714
a(I0
g96
tp715
a(I1
g96
tp716
a(I2
g94
tp717
a(I3
g96
tp718
a(I0
g101
tp719
a(I1
g96
tp720
a(I2
g131
tp721
a(I3
g94
tp722
a(I0
g96
tp723
a(I1
g101
tp724
a(I2
g131
tp725
a(I3
g131
tp726
a(I0
g96
tp727
a(I1
g131
tp728
a(I2
g94
tp729
a(I3
g131
tp730
a(I0
g117
tp731
a(I1
g94
tp732
a(I2
g94
tp733
a(I3
g94
tp734
a(I0
g131
tp735
a(I1
g131
tp736
a(I2
g131
tp737
a(I3
g94
tp738
a(I0
g96
tp739
a(I1
g101
tp740
a(I2
g131
tp741
a(I3
g96
tp742
a(I0
g101
tp743
a(I1
g96
tp744
a(I2
g96
tp745
a(I3
g96
tp746
a(I0
g117
tp747
a(I1
g94
tp748
a(I2
g101
tp749
a(I3
g96
tp750
a(I0
g94
tp751
a(I1
g96
tp752
a(I2
g96
tp753
a(I3
g96
tp754
a(I0
g101
tp755
a(I1
g96
tp756
a(I2
g94
tp757
a(I3
g101
tp758
a(I0
g117
tp759
a(I1
g101
tp760
a(I2
g96
tp761
a(I3
g96
tp762
a(I0
g96
tp763
a(I1
g131
tp764
a(I2
g96
tp765
a(I3
g96
tp766
a(I0
g117
tp767
a(I1
g94
tp768
a(I2
g96
tp769
a(I3
g94
tp770
a(I0
g131
tp771
a(I1
g131
tp772
a(I2
g96
tp773
a(I3
g131
tp774
a(I0
g131
tp775
a(I1
g131
tp776
a(I2
g101
tp777
a(I3
g131
tp778
a(I0
g96
tp779
a(I1
g101
tp780
a(I2
g96
tp781
a(I3
g131
tp782
a(I0
g131
tp783
a(I1
g96
tp784
a(I2
g96
tp785
a(I3
g131
tp786
a(I0
g94
tp787
a(I1
g101
tp788
a(I2
g94
tp789
a(I3
g131
tp790
a(I0
g131
tp791
a(I1
g131
tp792
a(I2
g131
tp793
a(I3
g131
tp794
a(I0
g94
tp795
a(I1
g131
tp796
a(I2
g101
tp797
a(I3
g131
tp798
a(I0
g94
tp799
a(I1
g94
tp800
a(I2
g96
tp801
a(I3
g101
tp802
a(I0
g101
tp803
a(I1
g131
tp804
a(I2
g94
tp805
a(I3
g101
tp806
a(I0
g117
tp807
a(I1
g101
tp808
a(I2
g131
tp809
a(I3
g101
tp810
a(I0
g94
tp811
a(I1
g96
tp812
a(I2
g101
tp813
a(I3
g131
tp814
a(I0
g96
tp815
a(I1
g94
tp816
a(I2
g96
tp817
a(I3
g131
tp818
a(I0
g117
tp819
a(I1
g96
tp820
a(I2
g94
tp821
a(I3
g101
tp822
a(I0
g96
tp823
a(I1
g96
tp824
a(I2
g131
tp825
a(I3
g101
tp826
a(I0
g117
tp827
a(I1
g94
tp828
a(I2
g101
tp829
a(I3
g101
tp830
a(I0
g131
tp831
a(I1
g96
tp832
a(I2
g96
tp833
a(I3
g101
tp834
a(I0
g96
tp835
a(I1
g101
tp836
a(I2
g94
tp837
a(I3
g101
tp838
a(I0
g101
tp839
a(I1
g131
tp840
a(I2
g131
tp841
a(I3
g101
tp842
a(I0
g96
tp843
a(I1
g94
tp844
a(I2
g101
tp845
a(I3
g131
tp846
a(I0
g117
tp847
a(I1
g131
tp848
a(I2
g131
tp849
a(I3
g131
tp850
a(I0
g94
tp851
a(I1
g131
tp852
a(I2
g94
tp853
a(I3
g94
tp854
a(I0
g117
tp855
a(I1
g131
tp856
a(I2
g96
tp857
a(I3
g96
tp858
a(I0
g131
tp859
a(I1
g101
tp860
a(I2
g101
tp861
a(I3
g96
tp862
a(I0
g94
tp863
a(I1
g96
tp864
a(I2
g131
tp865
a(I3
g94
tp866
a(I0
g101
tp867
a(I1
g101
tp868
a(I2
g94
tp869
a(I3
g94
tp870
a(I0
g131
tp871
a(I1
g96
tp872
a(I2
g96
tp873
a(I3
g94
tp874
a(I0
g96
tp875
a(I1
g94
tp876
a(I2
g96
tp877
a(I3
g94
tp878
a(I0
g101
tp879
a(I1
g94
tp880
a(I2
g101
tp881
a(I3
g94
tp882
a(I0
g101
tp883
a(I1
g96
tp884
a(I2
g131
tp885
a(I3
g94
tp886
a(I0
g131
tp887
a(I1
g96
tp888
a(I2
g94
tp889
a(I3
g96
tp890
a(I0
g101
tp891
a(I1
g96
tp892
a(I2
g96
tp893
a(I3
g101
tp894
a(I0
g117
tp895
a(I1
g101
tp896
a(I2
g101
tp897
a(I3
g131
tp898
a(I0
g131
tp899
a(I1
g131
tp900
a(I2
g131
tp901
a(I3
g94
tp902
a(I0
g117
tp903
a(I1
g94
tp904
a(I2
g131
tp905
a(I3
g96
tp906
a(I0
g117
tp907
a(I1
g131
tp908
a(I2
g94
tp909
a(I3
g96
tp910
a(I0
g94
tp911
a(I1
g101
tp912
a(I2
g131
tp913
a(I3
g94
tp914
a(I0
g131
tp915
a(I1
g101
tp916
a(I2
g131
tp917
a(I3
g94
tp918
a(I0
g96
tp919
a(I1
g96
tp920
a(I2
g131
tp921
a(I3
g131
tp922
a(I0
g101
tp923
a(I1
g94
tp924
a(I2
g131
tp925
a(I3
g96
tp926
a(I0
g96
tp927
a(I1
g131
tp928
a(I2
g131
tp929
a(I3
g101
tp930
a(I0
g131
tp931
a(I1
g94
tp932
a(I2
g101
tp933
a(I3
g96
tp934
a(I0
g96
tp935
a(I1
g131
tp936
a(I2
g101
tp937
a(I3
g101
tp938
a(I0
g96
tp939
a(I1
g131
tp940
a(I2
g131
tp941
a(I3
g131
tp942
a(I0
g94
tp943
a(I1
g131
tp944
a(I2
g101
tp945
a(I3
g94
tp946
a(I0
g117
tp947
a(I1
g101
tp948
a(I2
g131
tp949
a(I3
g94
tp950
a(I0
g117
tp951
a(I1
g96
tp952
a(I2
g94
tp953
a(I3
g131
tp954
a(I0
g117
tp955
a(I1
g96
tp956
a(I2
g96
tp957
a(I3
g96
tp958
a(I0
g94
tp959
a(I1
g96
tp960
a(I2
g101
tp961
a(I3
g96
tp962
a(I0
g101
tp963
a(I1
g94
tp964
a(I2
g131
tp965
a(I3
g96
tp966
a(I0
g131
tp967
a(I1
g96
tp968
a(I2
g94
tp969
a(I3
g96
tp970
a(I0
g117
tp971
a(I1
g96
tp972
a(I2
g131
tp973
a(I3
g96
tp974
a(I0
g96
tp975
a(I1
g101
tp976
a(I2
g101
tp977
a(I3
g96
tp978
a(I0
g117
tp979
a(I1
g131
tp980
a(I2
g96
tp981
a(I3
g101
tp982
a(I0
g117
tp983
a(I1
g94
tp984
a(I2
g94
tp985
a(I3
g96
tp986
a(I0
g131
tp987
a(I1
g131
tp988
a(I2
g131
tp989
a(I3
g96
tp990
a(I0
g131
tp991
a(I1
g101
tp992
a(I2
g94
tp993
a(I3
g94
tp994
a(I0
g96
tp995
a(I1
g101
tp996
a(I2
g94
tp997
a(I3
g131
tp998
a(I0
g101
tp999
a(I1
g96
tp1000
a(I2
g131
tp1001
a(I3
g131
tp1002
a(I0
g117
tp1003
a(I1
g94
tp1004
a(I2
g131
tp1005
a(I3
g131
tp1006
a(I0
g96
tp1007
a(I1
g94
tp1008
a(I2
g131
tp1009
a(I3
g131
tp1010
a(I0
g94
tp1011
a(I1
g131
tp1012
a(I2
g101
tp1013
a(I3
g131
tp1014
a(I0
g117
tp1015
a(I1
g101
tp1016
a(I2
g96
tp1017
a(I3
g131
tp1018
a(I0
g131
tp1019
a(I1
g131
tp1020
a(I2
g94
tp1021
a(I3
g131
tp1022
a(I0
g94
tp1023
a(I1
g94
tp1024
a(I2
g96
tp1025
a(I3
g131
tp1026
a(I0
g131
tp1027
a(I1
g96
tp1028
a(I2
g96
tp1029
a(I3
g96
tp1030
a(I0
g101
tp1031
a(I1
g96
tp1032
a(I2
g101
tp1033
a(I3
g101
tp1034
a(I0
g101
tp1035
a(I1
g96
tp1036
a(I2
g131
tp1037
a(I3
g101
tp1038
a(I0
g96
tp1039
a(I1
g101
tp1040
a(I2
g101
tp1041
a(I3
g131
tp1042
a(I0
g94
tp1043
a(I1
g131
tp1044
a(I2
g96
tp1045
a(I3
g131
tp1046
a(I0
g131
tp1047
a(I1
g94
tp1048
a(I2
g94
tp1049
a(I3
g101
tp1050
a(I0
g101
tp1051
a(I1
g131
tp1052
a(I2
g94
tp1053
a(I3
g131
tp1054
a(I0
g94
tp1055
a(I1
g101
tp1056
a(I2
g131
tp1057
a(I3
g101
tp1058
a(I0
g101
tp1059
a(I1
g131
tp1060
a(I2
g131
tp1061
a(I3
g101
tp1062
a(I0
g117
tp1063
a(I1
g94
tp1064
a(I2
g101
tp1065
a(I3
g96
tp1066
a(I0
g94
tp1067
a(I1
g96
tp1068
a(I2
g96
tp1069
a(I3
g101
tp1070
a(I0
g101
tp1071
a(I1
g101
tp1072
a(I2
g96
tp1073
a(I3
g96
tp1074
a(I0
g94
tp1075
a(I1
g101
tp1076
a(I2
g94
tp1077
a(I3
g101
tp1078
a(I0
g101
tp1079
a(I1
g96
tp1080
a(I2
g131
tp1081
a(I3
g96
tp1082
a(I0
g94
tp1083
a(I1
g94
tp1084
a(I2
g101
tp1085
a(I3
g94
tp1086
a(I0
g96
tp1087
a(I1
g94
tp1088
a(I2
g96
tp1089
a(I3
g94
tp1090
a(I0
g96
tp1091
a(I1
g96
tp1092
a(I2
g94
tp1093
a(I3
g96
tp1094
a(I0
g117
tp1095
a(I1
g101
tp1096
a(I2
g131
tp1097
a(I3
g96
tp1098
a(I0
g101
tp1099
a(I1
g131
tp1100
a(I2
g101
tp1101
a(I3
g96
tp1102
a(I0
g94
tp1103
a(I1
g94
tp1104
a(I2
g96
tp1105
a(I3
g96
tp1106
a(I0
g117
tp1107
a(I1
g131
tp1108
a(I2
g94
tp1109
a(I3
g96
tp1110
a(I0
g117
tp1111
a(I1
g131
tp1112
a(I2
g131
tp1113
a(I3
g94
tp1114
a(I0
g117
tp1115
a(I1
g131
tp1116
a(I2
g131
tp1117
a(I3
g94
tp1118
a(I0
g94
tp1119
a(I1
g131
tp1120
a(I2
g131
tp1121
a(I3
g96
tp1122
a(I0
g117
tp1123
a(I1
g101
tp1124
a(I2
g131
tp1125
a(I3
g101
tp1126
a(I0
g131
tp1127
a(I1
g131
tp1128
a(I2
g101
tp1129
a(I3
g131
tp1130
a(I0
g117
tp1131
a(I1
g131
tp1132
a(I2
g96
tp1133
a(I3
g94
tp1134
a(I0
g131
tp1135
a(I1
g94
tp1136
a(I2
g96
tp1137
a(I3
g131
tp1138
a(I0
g117
tp1139
a(I1
g131
tp1140
a(I2
g96
tp1141
a(I3
g131
tp1142
a(I0
g94
tp1143
a(I1
g131
tp1144
a(I2
g96
tp1145
a(I3
g94
tp1146
a(I0
g94
tp1147
a(I1
g94
tp1148
a(I2
g94
tp1149
a(I3
g131
tp1150
a(I0
g101
tp1151
a(I1
g94
tp1152
a(I2
g131
tp1153
a(I3
g131
tp1154
a(I0
g117
tp1155
a(I1
g94
tp1156
a(I2
g101
tp1157
a(I3
g131
tp1158
a(I0
g117
tp1159
a(I1
g94
tp1160
a(I2
g131
tp1161
a(I3
g94
tp1162
a(I0
g96
tp1163
a(I1
g94
tp1164
a(I2
g94
tp1165
a(I3
g96
tp1166
a(I0
g96
tp1167
a(I1
g131
tp1168
a(I2
g96
tp1169
a(I3
g94
tp1170
a(I0
g94
tp1171
a(I1
g94
tp1172
a(I2
g96
tp1173
a(I3
g96
tp1174
a(I0
g94
tp1175
a(I1
g94
tp1176
a(I2
g101
tp1177
a(I3
g96
tp1178
a(I0
g117
tp1179
a(I1
g131
tp1180
a(I2
g101
tp1181
a(I3
g96
tp1182
a(I0
g131
tp1183
a(I1
g131
tp1184
a(I2
g96
tp1185
a(I3
g96
tp1186
a(I0
g94
tp1187
a(I1
g101
tp1188
a(I2
g96
tp1189
a(I3
g96
tp1190
a(I0
g96
tp1191
a(I1
g131
tp1192
a(I2
g96
tp1193
a(I3
g96
tp1194
a(I0
g131
tp1195
a(I1
g94
tp1196
a(I2
g94
tp1197
a(I3
g101
tp1198
a(I0
g96
tp1199
a(I1
g96
tp1200
a(I2
g96
tp1201
a(I3
g131
tp1202
a(I0
g96
tp1203
a(I1
g96
tp1204
a(I2
g94
tp1205
a(I3
g131
tp1206
a(I0
g131
tp1207
a(I1
g96
tp1208
a(I2
g96
tp1209
a(I3
g94
tp1210
a(I0
g117
tp1211
a(I1
g101
tp1212
a(I2
g96
tp1213
a(I3
g96
tp1214
a(I0
g117
tp1215
a(I1
g101
tp1216
a(I2
g96
tp1217
a(I3
g101
tp1218
a(I0
g96
tp1219
a(I1
g101
tp1220
a(I2
g96
tp1221
a(I3
g131
tp1222
a(I0
g96
tp1223
a(I1
g101
tp1224
a(I2
g96
tp1225
a(I3
g94
tp1226
a(I0
g131
tp1227
a(I1
g101
tp1228
a(I2
g101
tp1229
a(I3
g96
tp1230
a(I0
g94
tp1231
a(I1
g96
tp1232
a(I2
g131
tp1233
a(I3
g101
tp1234
a(I0
g117
tp1235
a(I1
g96
tp1236
a(I2
g94
tp1237
a(I3
g131
tp1238
a(I0
g101
tp1239
a(I1
g101
tp1240
a(I2
g96
tp1241
a(I3
g94
tp1242
a(I0
g96
tp1243
a(I1
g101
tp1244
a(I2
g96
tp1245
a(I3
g131
tp1246
a(I0
g101
tp1247
a(I1
g101
tp1248
a(I2
g101
tp1249
a(I3
g131
tp1250
a(I0
g101
tp1251
a(I1
g96
tp1252
a(I2
g131
tp1253
a(I3
g131
tp1254
a(I0
g131
tp1255
a(I1
g96
tp1256
a(I2
g94
tp1257
a(I3
g131
tp1258
a(I0
g101
tp1259
a(I1
g96
tp1260
a(I2
g131
tp1261
a(I3
g101
tp1262
a(I0
g131
tp1263
a(I1
g96
tp1264
a(I2
g101
tp1265
a(I3
g101
tp1266
a(I0
g94
tp1267
a(I1
g96
tp1268
a(I2
g96
tp1269
a(I3
g96
tp1270
a(I0
g131
tp1271
a(I1
g96
tp1272
a(I2
g94
tp1273
a(I3
g101
tp1274
a(I0
g131
tp1275
a(I1
g96
tp1276
a(I2
g131
tp1277
a(I3
g96
tp1278
a(I0
g131
tp1279
a(I1
g94
tp1280
a(I2
g131
tp1281
a(I3
g94
tp1282
a(I0
g94
tp1283
a(I1
g131
tp1284
a(I2
g131
tp1285
a(I3
g131
tp1286
a(I0
g101
tp1287
a(I1
g131
tp1288
a(I2
g131
tp1289
a(I3
g101
tp1290
a(I0
g117
tp1291
a(I1
g101
tp1292
a(I2
g131
tp1293
a(I3
g101
tp1294
a(I0
g117
tp1295
a(I1
g131
tp1296
a(I2
g131
tp1297
a(I3
g96
tp1298
a(I0
g131
tp1299
a(I1
g94
tp1300
a(I2
g131
tp1301
a(I3
g94
tp1302
a(I0
g101
tp1303
a(I1
g96
tp1304
a(I2
g96
tp1305
a(I3
g94
tp1306
a(I0
g131
tp1307
a(I1
g96
tp1308
a(I2
g101
tp1309
a(I3
g131
tp1310
a(I0
g96
tp1311
a(I1
g96
tp1312
a(I2
g96
tp1313
a(I3
g101
tp1314
a(I0
g101
tp1315
a(I1
g96
tp1316
a(I2
g94
tp1317
a(I3
g131
tp1318
a(I0
g131
tp1319
a(I1
g101
tp1320
a(I2
g96
tp1321
a(I3
g94
tp1322
a(I0
g131
tp1323
a(I1
g131
tp1324
a(I2
g96
tp1325
a(I3
g96
tp1326
a(I0
g117
tp1327
a(I1
g94
tp1328
a(I2
g96
tp1329
a(I3
g96
tp1330
a(I0
g117
tp1331
a(I1
g131
tp1332
a(I2
g96
tp1333
a(I3
g101
tp1334
a(I0
g117
tp1335
a(I1
g101
tp1336
a(I2
g101
tp1337
a(I3
g96
tp1338
a(I0
g101
tp1339
a(I1
g96
tp1340
a(I2
g96
tp1341
a(I3
g96
tp1342
a(I0
g94
tp1343
a(I1
g94
tp1344
a(I2
g96
tp1345
a(I3
g96
tp1346
a(I0
g101
tp1347
a(I1
g131
tp1348
a(I2
g94
tp1349
a(I3
g96
tp1350
a(I0
g101
tp1351
a(I1
g131
tp1352
a(I2
g131
tp1353
a(I3
g101
tp1354
a(I0
g131
tp1355
a(I1
g131
tp1356
a(I2
g101
tp1357
a(I3
g131
tp1358
a(I0
g96
tp1359
a(I1
g131
tp1360
a(I2
g131
tp1361
a(I3
g101
tp1362
a(I0
g94
tp1363
a(I1
g101
tp1364
a(I2
g94
tp1365
a(I3
g96
tp1366
a(I0
g101
tp1367
a(I1
g131
tp1368
a(I2
g131
tp1369
a(I3
g94
tp1370
a(I0
g117
tp1371
a(I1
g131
tp1372
a(I2
g131
tp1373
a(I3
g94
tp1374
a(I0
g94
tp1375
a(I1
g94
tp1376
a(I2
g131
tp1377
a(I3
g131
tp1378
a(I0
g94
tp1379
a(I1
g131
tp1380
a(I2
g131
tp1381
a(I3
g101
tp1382
a(I0
g96
tp1383
a(I1
g94
tp1384
a(I2
g131
tp1385
a(I3
g101
tp1386
a(I0
g117
tp1387
a(I1
g131
tp1388
a(I2
g101
tp1389
a(I3
g96
tp1390
a(I0
g94
tp1391
a(I1
g94
tp1392
a(I2
g101
tp1393
a(I3
g94
tp1394
a(I0
g117
tp1395
a(I1
g94
tp1396
a(I2
g131
tp1397
a(I3
g131
tp1398
a(I0
g101
tp1399
a(I1
g94
tp1400
a(I2
g131
tp1401
a(I3
g101
tp1402
a(I0
g131
tp1403
a(I1
g94
tp1404
a(I2
g101
tp1405
a(I3
g96
tp1406
a(I0
g101
tp1407
a(I1
g131
tp1408
a(I2
g101
tp1409
a(I3
g94
tp1410
a(I0
g101
tp1411
a(I1
g94
tp1412
a(I2
g101
tp1413
a(I3
g131
tp1414
a(I0
g96
tp1415
a(I1
g94
tp1416
a(I2
g101
tp1417
a(I3
g101
tp1418
a(I0
g131
tp1419
a(I1
g131
tp1420
a(I2
g96
tp1421
a(I3
g131
tp1422
a(I0
g96
tp1423
a(I1
g101
tp1424
a(I2
g94
tp1425
a(I3
g94
tp1426
a(I0
g117
tp1427
a(I1
g96
tp1428
a(I2
g94
tp1429
a(I3
g131
tp1430
a(I0
g94
tp1431
a(I1
g94
tp1432
a(I2
g94
tp1433
a(I3
g101
tp1434
a(I0
g117
tp1435
a(I1
g131
tp1436
a(I2
g94
tp1437
a(I3
g96
tp1438
a(I0
g117
tp1439
a(I1
g101
tp1440
a(I2
g131
tp1441
a(I3
g96
tp1442
a(I0
g101
tp1443
a(I1
g96
tp1444
a(I2
g131
tp1445
a(I3
g94
tp1446
a(I0
g94
tp1447
a(I1
g94
tp1448
a(I2
g94
tp1449
a(I3
g131
tp1450
a(I0
g94
tp1451
a(I1
g131
tp1452
a(I2
g94
tp1453
a(I3
g101
tp1454
a(I0
g117
tp1455
a(I1
g101
tp1456
a(I2
g131
tp1457
a(I3
g96
tp1458
a(I0
g101
tp1459
a(I1
g96
tp1460
a(I2
g101
tp1461
a(I3
g96
tp1462
a(I0
g96
tp1463
a(I1
g94
tp1464
a(I2
g101
tp1465
a(I3
g94
tp1466
a(I0
g96
tp1467
a(I1
g131
tp1468
a(I2
g96
tp1469
a(I3
g131
tp1470
a(I0
g94
tp1471
a(I1
g131
tp1472
a(I2
g94
tp1473
a(I3
g94
tp1474
a(I0
g117
tp1475
a(I1
g131
tp1476
a(I2
g94
tp1477
a(I3
g96
tp1478
a(I0
g94
tp1479
a(I1
g131
tp1480
a(I2
g131
tp1481
a(I3
g101
tp1482
a(I0
g96
tp1483
a(I1
g101
tp1484
a(I2
g101
tp1485
a(I3
g131
tp1486
a(I0
g117
tp1487
a(I1
g96
tp1488
a(I2
g96
tp1489
a(I3
g101
tp1490
a(I0
g96
tp1491
a(I1
g94
tp1492
a(I2
g94
tp1493
a(I3
g96
tp1494
a(I0
g131
tp1495
a(I1
g96
tp1496
a(I2
g131
tp1497
a(I3
g94
tp1498
a(I0
g101
tp1499
a(I1
g96
tp1500
a(I2
g101
tp1501
a(I3
g131
tp1502
a(I0
g94
tp1503
a(I1
g96
tp1504
a(I2
g96
tp1505
a(I3
g101
tp1506
a(I0
g101
tp1507
a(I1
g101
tp1508
a(I2
g94
tp1509
a(I3
g131
tp1510
a(I0
g96
tp1511
a(I1
g131
tp1512
a(I2
g131
tp1513
a(I3
g94
tp1514
a(I0
g101
tp1515
a(I1
g94
tp1516
a(I2
g131
tp1517
a(I3
g96
tp1518
a(I0
g96
tp1519
a(I1
g96
tp1520
a(I2
g101
tp1521
a(I3
g101
tp1522
a(I0
g117
tp1523
a(I1
g101
tp1524
a(I2
g96
tp1525
a(I3
g96
tp1526
a(I0
g101
tp1527
a(I1
g101
tp1528
a(I2
g96
tp1529
a(I3
g94
tp1530
a(I0
g94
tp1531
a(I1
g96
tp1532
a(I2
g94
tp1533
a(I3
g131
tp1534
a(I0
g131
tp1535
a(I1
g96
tp1536
a(I2
g131
tp1537
a(I3
g94
tp1538
a(I0
g96
tp1539
a(I1
g96
tp1540
a(I2
g131
tp1541
a(I3
g131
tp1542
a(I0
g101
tp1543
a(I1
g94
tp1544
a(I2
g131
tp1545
a(I3
g101
tp1546
a(I0
g117
tp1547
a(I1
g94
tp1548
a(I2
g101
tp1549
a(I3
g96
tp1550
a(I0
g96
tp1551
a(I1
g131
tp1552
a(I2
g131
tp1553
a(I3
g94
tp1554
a(I0
g131
tp1555
a(I1
g96
tp1556
a(I2
g94
tp1557
a(I3
g131
tp1558
a(I0
g131
tp1559
a(I1
g96
tp1560
a(I2
g96
tp1561
a(I3
g131
tp1562
a(I0
g96
tp1563
a(I1
g96
tp1564
a(I2
g101
tp1565
a(I3
g101
tp1566
a(I0
g131
tp1567
a(I1
g96
tp1568
a(I2
g96
tp1569
a(I3
g101
tp1570
a(I0
g117
tp1571
a(I1
g96
tp1572
a(I2
g94
tp1573
a(I3
g96
tp1574
a(I0
g131
tp1575
a(I1
g96
tp1576
a(I2
g96
tp1577
a(I3
g94
tp1578
a(I0
g131
tp1579
a(I1
g96
tp1580
a(I2
g96
tp1581
a(I3
g94
tp1582
a(I0
g131
tp1583
a(I1
g101
tp1584
a(I2
g101
tp1585
a(I3
g96
tp1586
a(I0
g94
tp1587
a(I1
g131
tp1588
a(I2
g101
tp1589
a(I3
g96
tp1590
a(I0
g131
tp1591
a(I1
g94
tp1592
a(I2
g96
tp1593
a(I3
g101
tp1594
a(I0
g117
tp1595
a(I1
g96
tp1596
a(I2
g96
tp1597
a(I3
g131
tp1598
a(I0
g96
tp1599
a(I1
g101
tp1600
a(I2
g101
tp1601
a(I3
g94
tp1602
a(I0
g131
tp1603
a(I1
g131
tp1604
a(I2
g131
tp1605
a(I3
g131
tp1606
a(I0
g117
tp1607
a(I1
g94
tp1608
a(I2
g94
tp1609
a(I3
g101
tp1610
a(I0
g117
tp1611
a(I1
g96
tp1612
a(I2
g131
tp1613
a(I3
g101
tp1614
a(I0
g94
tp1615
a(I1
g96
tp1616
a(I2
g94
tp1617
a(I3
g131
tp1618
a(I0
g117
tp1619
a(I1
g101
tp1620
a(I2
g131
tp1621
a(I3
g94
tp1622
a(I0
g117
tp1623
a(I1
g131
tp1624
a(I2
g94
tp1625
a(I3
g96
tp1626
a(I0
g131
tp1627
a(I1
g131
tp1628
a(I2
g96
tp1629
a(I3
g94
tp1630
a(I0
g101
tp1631
a(I1
g94
tp1632
a(I2
g101
tp1633
a(I3
g96
tp1634
a(I0
g131
tp1635
a(I1
g131
tp1636
a(I2
g101
tp1637
a(I3
g96
tp1638
a(I0
g101
tp1639
a(I1
g131
tp1640
a(I2
g96
tp1641
a(I3
g101
tp1642
a(I0
g94
tp1643
a(I1
g131
tp1644
a(I2
g96
tp1645
a(I3
g131
tp1646
a(I0
g96
tp1647
a(I1
g131
tp1648
a(I2
g101
tp1649
a(I3
g94
tp1650
a(I0
g94
tp1651
a(I1
g131
tp1652
a(I2
g131
tp1653
a(I3
g131
tp1654
a(I0
g101
tp1655
a(I1
g131
tp1656
a(I2
g94
tp1657
a(I3
g101
tp1658
a(I0
g131
tp1659
a(I1
g96
tp1660
a(I2
g96
tp1661
a(I3
g96
tp1662
a(I0
g101
tp1663
a(I1
g96
tp1664
a(I2
g96
tp1665
a(I3
g94
tp1666
a(I0
g117
tp1667
a(I1
g96
tp1668
a(I2
g94
tp1669
a(I3
g131
tp1670
a(I0
g96
tp1671
a(I1
g96
tp1672
a(I2
g94
tp1673
a(I3
g131
tp1674
a(I0
g94
tp1675
a(I1
g96
tp1676
a(I2
g131
tp1677
a(I3
g101
tp1678
a(I0
g117
tp1679
a(I1
g96
tp1680
a(I2
g96
tp1681
a(I3
g96
tp1682
a(I0
g117
tp1683
a(I1
g96
tp1684
a(I2
g101
tp1685
a(I3
g94
tp1686
a(I0
g117
tp1687
a(I1
g96
tp1688
a(I2
g101
tp1689
a(I3
g96
tp1690
a(I0
g117
tp1691
a(I1
g101
tp1692
a(I2
g131
tp1693
a(I3
g101
tp1694
a(I0
g94
tp1695
a(I1
g131
tp1696
a(I2
g101
tp1697
a(I3
g131
tp1698
a(I0
g101
tp1699
a(I1
g131
tp1700
a(I2
g131
tp1701
a(I3
g94
tp1702
a(I0
g131
tp1703
a(I1
g94
tp1704
a(I2
g94
tp1705
a(I3
g131
tp1706
a(I0
g101
tp1707
a(I1
g131
tp1708
a(I2
g96
tp1709
a(I3
g131
tp1710
a(I0
g96
tp1711
a(I1
g131
tp1712
a(I2
g96
tp1713
a(I3
g94
tp1714
a(I0
g94
tp1715
a(I1
g131
tp1716
a(I2
g94
tp1717
a(I3
g131
tp1718
a(I0
g117
tp1719
a(I1
g131
tp1720
a(I2
g94
tp1721
a(I3
g101
tp1722
a(I0
g96
tp1723
a(I1
g131
tp1724
a(I2
g131
tp1725
a(I3
g96
tp1726
a(I0
g117
tp1727
a(I1
g131
tp1728
a(I2
g96
tp1729
a(I3
g101
tp1730
a(I0
g94
tp1731
a(I1
g96
tp1732
a(I2
g101
tp1733
a(I3
g96
tp1734
a(I0
g94
tp1735
a(I1
g101
tp1736
a(I2
g101
tp1737
a(I3
g94
tp1738
a(I0
g101
tp1739
a(I1
g96
tp1740
a(I2
g131
tp1741
a(I3
g96
tp1742
a(I0
g94
tp1743
a(I1
g94
tp1744
a(I2
g131
tp1745
a(I3
g101
tp1746
a(I0
g101
tp1747
a(I1
g131
tp1748
a(I2
g131
tp1749
a(I3
g101
tp1750
a(I0
g131
tp1751
a(I1
g131
tp1752
a(I2
g94
tp1753
a(I3
g96
tp1754
a(I0
g117
tp1755
a(I1
g96
tp1756
a(I2
g94
tp1757
a(I3
g94
tp1758
a(I0
g117
tp1759
a(I1
g101
tp1760
a(I2
g131
tp1761
a(I3
g94
tp1762
a(I0
g101
tp1763
a(I1
g96
tp1764
a(I2
g101
tp1765
a(I3
g131
tp1766
a(I0
g117
tp1767
a(I1
g94
tp1768
a(I2
g96
tp1769
a(I3
g101
tp1770
a(I0
g131
tp1771
a(I1
g131
tp1772
a(I2
g94
tp1773
a(I3
g131
tp1774
a(I0
g101
tp1775
a(I1
g101
tp1776
a(I2
g131
tp1777
a(I3
g94
tp1778
a(I0
g117
tp1779
a(I1
g96
tp1780
a(I2
g131
tp1781
a(I3
g96
tp1782
a(I0
g94
tp1783
a(I1
g94
tp1784
a(I2
g131
tp1785
a(I3
g101
tp1786
a(I0
g101
tp1787
a(I1
g131
tp1788
a(I2
g101
tp1789
a(I3
g101
tp1790
a(I0
g96
tp1791
a(I1
g131
tp1792
a(I2
g96
tp1793
a(I3
g96
tp1794
a(I0
g94
tp1795
a(I1
g96
tp1796
a(I2
g96
tp1797
a(I3
g96
tp1798
a(I0
g94
tp1799
a(I1
g101
tp1800
a(I2
g94
tp1801
a(I3
g94
tp1802
a(I0
g101
tp1803
a(I1
g101
tp1804
a(I2
g96
tp1805
a(I3
g131
tp1806
a(I0
g101
tp1807
a(I1
g131
tp1808
a(I2
g101
tp1809
a(I3
g131
tp1810
a(I0
g131
tp1811
a(I1
g101
tp1812
a(I2
g101
tp1813
a(I3
g101
tp1814
a(I0
g96
tp1815
a(I1
g131
tp1816
a(I2
g96
tp1817
a(I3
g131
tp1818
a(I0
g117
tp1819
a(I1
g94
tp1820
a(I2
g101
tp1821
a(I3
g94
tp1822
a(I0
g94
tp1823
a(I1
g96
tp1824
a(I2
g96
tp1825
a(I3
g94
tp1826
a(I0
g96
tp1827
a(I1
g101
tp1828
a(I2
g94
tp1829
a(I3
g96
tp1830
a(I0
g94
tp1831
a(I1
g131
tp1832
a(I2
g131
tp1833
a(I3
g101
tp1834
a(I0
g131
tp1835
a(I1
g101
tp1836
a(I2
g101
tp1837
a(I3
g101
tp1838
a(I0
g96
tp1839
a(I1
g96
tp1840
a(I2
g101
tp1841
a(I3
g131
tp1842
a(I0
g131
tp1843
a(I1
g94
tp1844
a(I2
g131
tp1845
a(I3
g94
tp1846
a(I0
g101
tp1847
a(I1
g131
tp1848
a(I2
g94
tp1849
a(I3
g96
tp1850
a(I0
g117
tp1851
a(I1
g94
tp1852
a(I2
g96
tp1853
a(I3
g94
tp1854
a(I0
g96
tp1855
a(I1
g96
tp1856
a(I2
g94
tp1857
a(I3
g96
tp1858
a(I0
g94
tp1859
a(I1
g96
tp1860
a(I2
g96
tp1861
a(I3
g101
tp1862
a(I0
g94
tp1863
a(I1
g94
tp1864
a(I2
g96
tp1865
a(I3
g131
tp1866
a(I0
g101
tp1867
a(I1
g94
tp1868
a(I2
g94
tp1869
a(I3
g94
tp1870
a(I0
g117
tp1871
a(I1
g131
tp1872
a(I2
g94
tp1873
a(I3
g96
tp1874
a(I0
g131
tp1875
a(I1
g96
tp1876
a(I2
g131
tp1877
a(I3
g101
tp1878
a(I0
g101
tp1879
a(I1
g101
tp1880
a(I2
g96
tp1881
a(I3
g131
tp1882
a(I0
g117
tp1883
a(I1
g96
tp1884
a(I2
g101
tp1885
a(I3
g94
tp1886
a(I0
g94
tp1887
a(I1
g94
tp1888
a(I2
g101
tp1889
a(I3
g131
tp1890
a(I0
g117
tp1891
a(I1
g131
tp1892
a(I2
g131
tp1893
a(I3
g131
tp1894
a(I0
g101
tp1895
a(I1
g131
tp1896
a(I2
g131
tp1897
a(I3
g94
tp1898
a(I0
g96
tp1899
a(I1
g96
tp1900
a(I2
g101
tp1901
a(I3
g131
tp1902
a(I0
g101
tp1903
a(I1
g96
tp1904
a(I2
g131
tp1905
a(I3
g131
tp1906
a(I0
g117
tp1907
a(I1
g101
tp1908
a(I2
g94
tp1909
a(I3
g94
tp1910
a(I0
g94
tp1911
a(I1
g131
tp1912
a(I2
g94
tp1913
a(I3
g94
tp1914
a(I0
g117
tp1915
a(I1
g94
tp1916
a(I2
g94
tp1917
a(I3
g96
tp1918
a(I0
g101
tp1919
a(I1
g131
tp1920
a(I2
g131
tp1921
a(I3
g96
tp1922
a(I0
g131
tp1923
a(I1
g96
tp1924
a(I2
g131
tp1925
a(I3
g96
tp1926
a(I0
g131
tp1927
a(I1
g101
tp1928
a(I2
g131
tp1929
a(I3
g96
tp1930
a(I0
g96
tp1931
a(I1
g101
tp1932
a(I2
g131
tp1933
a(I3
g101
tp1934
a(I0
g117
tp1935
a(I1
g131
tp1936
a(I2
g101
tp1937
a(I3
g96
tp1938
a(I0
g117
tp1939
a(I1
g131
tp1940
a(I2
g96
tp1941
a(I3
g94
tp1942
a(I0
g94
tp1943
a(I1
g101
tp1944
a(I2
g96
tp1945
a(I3
g131
tp1946
a(I0
g94
tp1947
a(I1
g101
tp1948
a(I2
g96
tp1949
a(I3
g131
tp1950
a(I0
g101
tp1951
a(I1
g96
tp1952
a(I2
g94
tp1953
a(I3
g131
tp1954
a(I0
g96
tp1955
a(I1
g94
tp1956
a(I2
g131
tp1957
a(I3
g131
tp1958
a(I0
g117
tp1959
a(I1
g94
tp1960
a(I2
g131
tp1961
a(I3
g131
tp1962
a(I0
g117
tp1963
a(I1
g96
tp1964
a(I2
g101
tp1965
a(I3
g131
tp1966
a(I0
g131
tp1967
a(I1
g94
tp1968
a(I2
g96
tp1969
a(I3
g131
tp1970
a(I0
g117
tp1971
a(I1
g94
tp1972
a(I2
g96
tp1973
a(I3
g96
tp1974
a(I0
g101
tp1975
a(I1
g131
tp1976
a(I2
g96
tp1977
a(I3
g101
tp1978
a(I0
g96
tp1979
a(I1
g96
tp1980
a(I2
g94
tp1981
a(I3
g101
tp1982
a(I0
g94
tp1983
a(I1
g101
tp1984
a(I2
g131
tp1985
a(I3
g131
tp1986
a(I0
g117
tp1987
a(I1
g96
tp1988
a(I2
g101
tp1989
a(I3
g131
tp1990
a(I0
g94
tp1991
a(I1
g94
tp1992
a(I2
g96
tp1993
a(I3
g101
tp1994
a(I0
g96
tp1995
a(I1
g131
tp1996
a(I2
g94
tp1997
a(I3
g96
tp1998
a(I0
g101
tp1999
a(I1
g131
tp2000
a(I2
g131
tp2001
a(I3
g94
tp2002
a(I0
g94
tp2003
a(I1
g96
tp2004
a(I2
g131
tp2005
a(I3
g131
tp2006
a(I0
g96
tp2007
a(I1
g101
tp2008
a(I2
g131
tp2009
a(I3
g131
tp2010
a(I0
g101
tp2011
a(I1
g96
tp2012
a(I2
g101
tp2013
a(I3
g94
tp2014
a(I0
g131
tp2015
a(I1
g94
tp2016
a(I2
g96
tp2017
a(I3
g94
tp2018
a(I0
g117
tp2019
a(I1
g96
tp2020
a(I2
g94
tp2021
a(I3
g131
tp2022
a(I0
g131
tp2023
a(I1
g96
tp2024
a(I2
g96
tp2025
a(I3
g131
tp2026
a(I0
g101
tp2027
a(I1
g96
tp2028
a(I2
g96
tp2029
a(I3
g101
tp2030
a(I0
g131
tp2031
a(I1
g96
tp2032
a(I2
g101
tp2033
a(I3
g96
tp2034
a(I0
g94
tp2035
a(I1
g101
tp2036
a(I2
g131
tp2037
a(I3
g94
tp2038
a(I0
g94
tp2039
a(I1
g96
tp2040
a(I2
g94
tp2041
a(I3
g96
tp2042
a(I0
g117
tp2043
a(I1
g94
tp2044
a(I2
g96
tp2045
a(I3
g101
tp2046
a(I0
g96
tp2047
a(I1
g131
tp2048
a(I2
g101
tp2049
a(I3
g131
tp2050
a(I0
g117
tp2051
a(I1
g131
tp2052
a(I2
g131
tp2053
a(I3
g94
tp2054
a(I0
g94
tp2055
a(I1
g131
tp2056
a(I2
g94
tp2057
a(I3
g96
tp2058
a(I0
g117
tp2059
a(I1
g131
tp2060
a(I2
g96
tp2061
a(I3
g101
tp2062
a(I0
g96
tp2063
a(I1
g131
tp2064
a(I2
g101
tp2065
a(I3
g131
tp2066
a(I0
g117
tp2067
a(I1
g131
tp2068
a(I2
g101
tp2069
a(I3
g101
tp2070
a(I0
g131
tp2071
a(I1
g101
tp2072
a(I2
g96
tp2073
a(I3
g96
tp2074
a(I0
g94
tp2075
a(I1
g96
tp2076
a(I2
g96
tp2077
a(I3
g96
tp2078
a(I0
g117
tp2079
a(I1
g94
tp2080
a(I2
g101
tp2081
a(I3
g96
tp2082
a(I0
g96
tp2083
a(I1
g131
tp2084
a(I2
g131
tp2085
a(I3
g96
tp2086
a(I0
g96
tp2087
a(I1
g131
tp2088
a(I2
g94
tp2089
a(I3
g96
tp2090
a(I0
g94
tp2091
a(I1
g96
tp2092
a(I2
g96
tp2093
a(I3
g101
tp2094
a(I0
g117
tp2095
a(I1
g96
tp2096
a(I2
g101
tp2097
a(I3
g96
tp2098
a(I0
g101
tp2099
a(I1
g101
tp2100
a(I2
g131
tp2101
a(I3
g101
tp2102
a(I0
g96
tp2103
a(I1
g101
tp2104
a(I2
g94
tp2105
a(I3
g101
tp2106
a(I0
g131
tp2107
a(I1
g96
tp2108
a(I2
g131
tp2109
a(I3
g96
tp2110
a(I0
g94
tp2111
a(I1
g96
tp2112
a(I2
g131
tp2113
a(I3
g96
tp2114
a(I0
g101
tp2115
a(I1
g101
tp2116
a(I2
g94
tp2117
a(I3
g96
tp2118
a(I0
g117
tp2119
a(I1
g96
tp2120
a(I2
g94
tp2121
a(I3
g96
tp2122
a(I0
g96
tp2123
a(I1
g96
tp2124
a(I2
g96
tp2125
a(I3
g96
tp2126
a(I0
g101
tp2127
a(I1
g96
tp2128
a(I2
g101
tp2129
a(I3
g94
tp2130
a(I0
g131
tp2131
a(I1
g101
tp2132
a(I2
g131
tp2133
a(I3
g131
tp2134
a(I0
g96
tp2135
a(I1
g131
tp2136
a(I2
g94
tp2137
a(I3
g101
tp2138
a(I0
g94
tp2139
a(I1
g94
tp2140
a(I2
g96
tp2141
a(I3
g96
tp2142
a(I0
g101
tp2143
a(I1
g96
tp2144
a(I2
g101
tp2145
a(I3
g94
tp2146
a(I0
g131
tp2147
a(I1
g96
tp2148
a(I2
g131
tp2149
a(I3
g131
tp2150
a(I0
g131
tp2151
a(I1
g101
tp2152
a(I2
g94
tp2153
a(I3
g101
tp2154
a(I0
g117
tp2155
a(I1
g131
tp2156
a(I2
g96
tp2157
a(I3
g131
tp2158
a(I0
g117
tp2159
a(I1
g94
tp2160
a(I2
g101
tp2161
a(I3
g94
tp2162
a(I0
g96
tp2163
a(I1
g131
tp2164
a(I2
g131
tp2165
a(I3
g96
tp2166
a(I0
g131
tp2167
a(I1
g131
tp2168
a(I2
g94
tp2169
a(I3
g101
tp2170
a(I0
g94
tp2171
a(I1
g101
tp2172
a(I2
g96
tp2173
a(I3
g96
tp2174
a(I0
g117
tp2175
a(I1
g96
tp2176
a(I2
g101
tp2177
a(I3
g94
tp2178
a(I0
g131
tp2179
a(I1
g94
tp2180
a(I2
g101
tp2181
a(I3
g131
tp2182
a(I0
g131
tp2183
a(I1
g131
tp2184
a(I2
g96
tp2185
a(I3
g101
tp2186
a(I0
g131
tp2187
a(I1
g131
tp2188
a(I2
g96
tp2189
a(I3
g96
tp2190
a(I0
g117
tp2191
a(I1
g94
tp2192
a(I2
g96
tp2193
a(I3
g94
tp2194
a(I0
g117
tp2195
a(I1
g131
tp2196
a(I2
g94
tp2197
a(I3
g131
tp2198
a(I0
g96
tp2199
a(I1
g101
tp2200
a(I2
g94
tp2201
a(I3
g101
tp2202
a(I0
g131
tp2203
a(I1
g96
tp2204
a(I2
g131
tp2205
a(I3
g131
tp2206
a(I0
g96
tp2207
a(I1
g96
tp2208
a(I2
g96
tp2209
a(I3
g131
tp2210
a(I0
g117
tp2211
a(I1
g96
tp2212
a(I2
g101
tp2213
a(I3
g131
tp2214
a(I0
g131
tp2215
a(I1
g96
tp2216
a(I2
g101
tp2217
a(I3
g131
tp2218
a(I0
g117
tp2219
a(I1
g101
tp2220
a(I2
g131
tp2221
a(I3
g131
tp2222
a(I0
g96
tp2223
a(I1
g131
tp2224
a(I2
g131
tp2225
a(I3
g131
tp2226
a(I0
g131
tp2227
a(I1
g94
tp2228
a(I2
g131
tp2229
a(I3
g101
tp2230
a(I0
g117
tp2231
a(I1
g131
tp2232
a(I2
g94
tp2233
a(I3
g131
tp2234
a(I0
g96
tp2235
a(I1
g101
tp2236
a(I2
g94
tp2237
a(I3
g131
tp2238
a(I0
g131
tp2239
a(I1
g96
tp2240
a(I2
g131
tp2241
a(I3
g94
tp2242
a(I0
g117
tp2243
a(I1
g96
tp2244
a(I2
g101
tp2245
a(I3
g94
tp2246
a(I0
g117
tp2247
a(I1
g101
tp2248
a(I2
g96
tp2249
a(I3
g94
tp2250
a(I0
g117
tp2251
a(I1
g131
tp2252
a(I2
g101
tp2253
a(I3
g94
tp2254
a(I0
g96
tp2255
a(I1
g131
tp2256
a(I2
g131
tp2257
a(I3
g96
tp2258
a(I0
g96
tp2259
a(I1
g131
tp2260
a(I2
g94
tp2261
a(I3
g96
tp2262
a(I0
g117
tp2263
a(I1
g131
tp2264
a(I2
g96
tp2265
a(I3
g94
tp2266
a(I0
g131
tp2267
a(I1
g94
tp2268
a(I2
g94
tp2269
a(I3
g96
tp2270
a(I0
g117
tp2271
a(I1
g94
tp2272
a(I2
g131
tp2273
a(I3
g94
tp2274
a(I0
g131
tp2275
a(I1
g96
tp2276
a(I2
g131
tp2277
a(I3
g131
tp2278
a(I0
g117
tp2279
a(I1
g101
tp2280
a(I2
g101
tp2281
a(I3
g131
tp2282
a(I0
g96
tp2283
a(I1
g101
tp2284
a(I2
g96
tp2285
a(I3
g96
tp2286
a(I0
g117
tp2287
a(I1
g96
tp2288
a(I2
g94
tp2289
a(I3
g96
tp2290
a(I0
g117
tp2291
a(I1
g96
tp2292
a(I2
g96
tp2293
a(I3
g96
tp2294
a(I0
g117
tp2295
a(I1
g94
tp2296
a(I2
g101
tp2297
a(I3
g96
tp2298
a(I0
g96
tp2299
a(I1
g96
tp2300
a(I2
g131
tp2301
a(I3
g96
tp2302
a(I0
g96
tp2303
a(I1
g101
tp2304
a(I2
g94
tp2305
a(I3
g96
tp2306
a(I0
g96
tp2307
a(I1
g131
tp2308
a(I2
g96
tp2309
a(I3
g96
tp2310
a(I0
g96
tp2311
a(I1
g131
tp2312
a(I2
g101
tp2313
a(I3
g96
tp2314
a(I0
g131
tp2315
a(I1
g131
tp2316
a(I2
g131
tp2317
a(I3
g101
tp2318
a(I0
g96
tp2319
a(I1
g131
tp2320
a(I2
g94
tp2321
a(I3
g131
tp2322
a(I0
g131
tp2323
a(I1
g131
tp2324
a(I2
g96
tp2325
a(I3
g131
tp2326
a(I0
g131
tp2327
a(I1
g131
tp2328
a(I2
g101
tp2329
a(I3
g94
tp2330
a(I0
g96
tp2331
a(I1
g101
tp2332
a(I2
g131
tp2333
a(I3
g131
tp2334
a(I0
g94
tp2335
a(I1
g101
tp2336
a(I2
g94
tp2337
a(I3
g131
tp2338
a(I0
g94
tp2339
a(I1
g101
tp2340
a(I2
g96
tp2341
a(I3
g131
tp2342
a(I0
g131
tp2343
a(I1
g96
tp2344
a(I2
g101
tp2345
a(I3
g131
tp2346
a(I0
g94
tp2347
a(I1
g96
tp2348
a(I2
g131
tp2349
a(I3
g131
tp2350
a(I0
g117
tp2351
a(I1
g96
tp2352
a(I2
g94
tp2353
a(I3
g131
tp2354
a(I0
g131
tp2355
a(I1
g96
tp2356
a(I2
g96
tp2357
a(I3
g96
tp2358
a(I0
g94
tp2359
a(I1
g96
tp2360
a(I2
g101
tp2361
a(I3
g96
tp2362
a(I0
g131
tp2363
a(I1
g96
tp2364
a(I2
g131
tp2365
a(I3
g101
tp2366
a(I0
g131
tp2367
a(I1
g94
tp2368
a(I2
g94
tp2369
a(I3
g131
tp2370
a(I0
g101
tp2371
a(I1
g131
tp2372
a(I2
g96
tp2373
a(I3
g94
tp2374
a(I0
g101
tp2375
a(I1
g101
tp2376
a(I2
g101
tp2377
a(I3
g131
tp2378
a(I0
g96
tp2379
a(I1
g131
tp2380
a(I2
g101
tp2381
a(I3
g96
tp2382
a(I0
g96
tp2383
a(I1
g131
tp2384
a(I2
g96
tp2385
a(I3
g96
tp2386
a(I0
g117
tp2387
a(I1
g131
tp2388
a(I2
g101
tp2389
a(I3
g96
tp2390
a(I0
g96
tp2391
a(I1
g94
tp2392
a(I2
g96
tp2393
a(I3
g96
tp2394
a(I0
g131
tp2395
a(I1
g96
tp2396
a(I2
g96
tp2397
a(I3
g96
tp2398
a(I0
g117
tp2399
a(I1
g96
tp2400
a(I2
g94
tp2401
a(I3
g96
tp2402
a(I0
g96
tp2403
a(I1
g101
tp2404
a(I2
g94
tp2405
a(I3
g96
tp2406
a(I0
g117
tp2407
a(I1
g131
tp2408
a(I2
g94
tp2409
a(I3
g101
tp2410
a(I0
g117
tp2411
a(I1
g101
tp2412
a(I2
g131
tp2413
a(I3
g131
tp2414
a(I0
g94
tp2415
a(I1
g131
tp2416
a(I2
g96
tp2417
a(I3
g94
tp2418
a(I0
g101
tp2419
a(I1
g94
tp2420
a(I2
g101
tp2421
a(I3
g131
tp2422
a(I0
g96
tp2423
a(I1
g131
tp2424
a(I2
g96
tp2425
a(I3
g131
tp2426
a(I0
g94
tp2427
a(I1
g131
tp2428
a(I2
g94
tp2429
a(I3
g131
tp2430
a(I0
g101
tp2431
a(I1
g94
tp2432
a(I2
g131
tp2433
a(I3
g131
tp2434
a(I0
g117
tp2435
a(I1
g131
tp2436
a(I2
g131
tp2437
a(I3
g131
tp2438
a(I0
g117
tp2439
a(I1
g94
tp2440
a(I2
g96
tp2441
a(I3
g131
tp2442
a(I0
g131
tp2443
a(I1
g96
tp2444
a(I2
g96
tp2445
a(I3
g96
tp2446
a(I0
g96
tp2447
a(I1
g94
tp2448
a(I2
g96
tp2449
a(I3
g96
tp2450
a(I0
g94
tp2451
a(I1
g96
tp2452
a(I2
g96
tp2453
a(I3
g96
tp2454
a(I0
g117
tp2455
a(I1
g96
tp2456
a(I2
g96
tp2457
a(I3
g96
tp2458
a(I0
g131
tp2459
a(I1
g96
tp2460
a(I2
g96
tp2461
a(I3
g96
tp2462
a(I0
g131
tp2463
a(I1
g96
tp2464
a(I2
g101
tp2465
a(I3
g96
tp2466
a(I0
g96
tp2467
a(I1
g94
tp2468
a(I2
g96
tp2469
a(I3
g96
tp2470
a(I0
g96
tp2471
a(I1
g96
tp2472
a(I2
g94
tp2473
a(I3
g101
tp2474
a(I0
g131
tp2475
a(I1
g94
tp2476
a(I2
g131
tp2477
a(I3
g131
tp2478
a(I0
g101
tp2479
a(I1
g131
tp2480
a(I2
g131
tp2481
a(I3
g94
tp2482
a(I0
g96
tp2483
a(I1
g131
tp2484
a(I2
g131
tp2485
a(I3
g131
tp2486
a(I0
g131
tp2487
a(I1
g94
tp2488
a(I2
g131
tp2489
a(I3
g131
tp2490
a(I0
g94
tp2491
a(I1
g131
tp2492
a(I2
g131
tp2493
a(I3
g131
tp2494
a(I0
g94
tp2495
a(I1
g131
tp2496
a(I2
g131
tp2497
a(I3
g131
tp2498
a(I0
g94
tp2499
a(I1
g131
tp2500
a(I2
g131
tp2501
a(I3
g131
tp2502
a(I0
g96
tp2503
a(I1
g94
tp2504
a(I2
g96
tp2505
a(I3
g131
tp2506
a(I0
g131
tp2507
a(I1
g94
tp2508
a(I2
g101
tp2509
a(I3
g96
tp2510
a(I0
g131
tp2511
a(I1
g131
tp2512
a(I2
g96
tp2513
a(I3
g96
tp2514
a(I0
g117
tp2515
a(I1
g96
tp2516
a(I2
g94
tp2517
a(I3
g101
tp2518
a(I0
g96
tp2519
a(I1
g96
tp2520
a(I2
g131
tp2521
a(I3
g131
tp2522
a(I0
g131
tp2523
a(I1
g96
tp2524
a(I2
g131
tp2525
a(I3
g101
tp2526
a(I0
g117
tp2527
a(I1
g96
tp2528
a(I2
g96
tp2529
a(I3
g131
tp2530
a(I0
g96
tp2531
a(I1
g96
tp2532
a(I2
g96
tp2533
a(I3
g131
tp2534
a(I0
g117
tp2535
a(I1
g96
tp2536
a(I2
g96
tp2537
a(I3
g101
tp2538
a(I0
g101
tp2539
a(I1
g96
tp2540
a(I2
g96
tp2541
a(I3
g96
tp2542
a(I0
g117
tp2543
a(I1
g96
tp2544
a(I2
g96
tp2545
a(I3
g94
tp2546
a(I0
g131
tp2547
a(I1
g101
tp2548
a(I2
g96
tp2549
a(I3
g131
tp2550
a(I0
g96
tp2551
a(I1
g131
tp2552
a(I2
g96
tp2553
a(I3
g101
tp2554
a(I0
g131
tp2555
a(I1
g94
tp2556
a(I2
g96
tp2557
a(I3
g96
tp2558
a(I0
g131
tp2559
a(I1
g131
tp2560
a(I2
g101
tp2561
a(I3
g94
tp2562
a(I0
g101
tp2563
a(I1
g101
tp2564
a(I2
g131
tp2565
a(I3
g131
tp2566
a(I0
g94
tp2567
a(I1
g96
tp2568
a(I2
g131
tp2569
a(I3
g101
tp2570
a(I0
g94
tp2571
a(I1
g94
tp2572
a(I2
g94
tp2573
a(I3
g96
tp2574
a(I0
g117
tp2575
a(I1
g131
tp2576
a(I2
g131
tp2577
a(I3
g96
tp2578
a(I0
g131
tp2579
a(I1
g101
tp2580
a(I2
g131
tp2581
a(I3
g96
tp2582
a(I0
g96
tp2583
a(I1
g96
tp2584
a(I2
g131
tp2585
a(I3
g94
tp2586
a(I0
g96
tp2587
a(I1
g94
tp2588
a(I2
g131
tp2589
a(I3
g94
tp2590
a(I0
g96
tp2591
a(I1
g131
tp2592
a(I2
g101
tp2593
a(I3
g94
tp2594
a(I0
g117
tp2595
a(I1
g101
tp2596
a(I2
g101
tp2597
a(I3
g131
tp2598
a(I0
g96
tp2599
a(I1
g96
tp2600
a(I2
g96
tp2601
a(I3
g131
tp2602
a(I0
g131
tp2603
a(I1
g94
tp2604
a(I2
g96
tp2605
a(I3
g96
tp2606
a(I0
g101
tp2607
a(I1
g131
tp2608
a(I2
g101
tp2609
a(I3
g101
tp2610
a(I0
g131
tp2611
a(I1
g101
tp2612
a(I2
g96
tp2613
a(I3
g101
tp2614
a(I0
g94
tp2615
a(I1
g96
tp2616
a(I2
g96
tp2617
a(I3
g131
tp2618
a(I0
g101
tp2619
a(I1
g96
tp2620
a(I2
g96
tp2621
a(I3
g131
tp2622
a(I0
g101
tp2623
a(I1
g94
tp2624
a(I2
g96
tp2625
a(I3
g101
tp2626
a(I0
g96
tp2627
a(I1
g131
tp2628
a(I2
g101
tp2629
a(I3
g131
tp2630
a(I0
g94
tp2631
a(I1
g131
tp2632
a(I2
g131
tp2633
a(I3
g94
tp2634
a(I0
g131
tp2635
a(I1
g131
tp2636
a(I2
g94
tp2637
a(I3
g96
tp2638
a(I0
g117
tp2639
a(I1
g131
tp2640
a(I2
g131
tp2641
a(I3
g96
tp2642
a(I0
g94
tp2643
a(I1
g131
tp2644
a(I2
g131
tp2645
a(I3
g101
tp2646
a(I0
g96
tp2647
a(I1
g131
tp2648
a(I2
g131
tp2649
a(I3
g131
tp2650
a(I0
g117
tp2651
a(I1
g101
tp2652
a(I2
g94
tp2653
a(I3
g94
tp2654
a(I0
g117
tp2655
a(I1
g101
tp2656
a(I2
g131
tp2657
a(I3
g96
tp2658
a(I0
g101
tp2659
a(I1
g96
tp2660
a(I2
g101
tp2661
a(I3
g96
tp2662
a(I0
g101
tp2663
a(I1
g96
tp2664
a(I2
g96
tp2665
a(I3
g94
tp2666
a(I0
g117
tp2667
a(I1
g101
tp2668
a(I2
g94
tp2669
a(I3
g94
tp2670
a(I0
g101
tp2671
a(I1
g101
tp2672
a(I2
g131
tp2673
a(I3
g131
tp2674
a(I0
g131
tp2675
a(I1
g96
tp2676
a(I2
g101
tp2677
a(I3
g96
tp2678
a(I0
g117
tp2679
a(I1
g96
tp2680
a(I2
g96
tp2681
a(I3
g101
tp2682
a(I0
g96
tp2683
a(I1
g96
tp2684
a(I2
g94
tp2685
a(I3
g96
tp2686
a(I0
g96
tp2687
a(I1
g94
tp2688
a(I2
g131
tp2689
a(I3
g94
tp2690
a(I0
g117
tp2691
a(I1
g131
tp2692
a(I2
g131
tp2693
a(I3
g131
tp2694
a(I0
g94
tp2695
a(I1
g131
tp2696
a(I2
g94
tp2697
a(I3
g131
tp2698
a(I0
g131
tp2699
a(I1
g101
tp2700
a(I2
g94
tp2701
a(I3
g96
tp2702
a(I0
g96
tp2703
a(I1
g131
tp2704
a(I2
g96
tp2705
a(I3
g96
tp2706
a(I0
g101
tp2707
a(I1
g94
tp2708
a(I2
g96
tp2709
a(I3
g101
tp2710
a(I0
g117
tp2711
a(I1
g131
tp2712
a(I2
g96
tp2713
a(I3
g131
tp2714
a(I0
g101
tp2715
a(I1
g101
tp2716
a(I2
g96
tp2717
a(I3
g94
tp2718
a(I0
g101
tp2719
a(I1
g101
tp2720
a(I2
g101
tp2721
a(I3
g96
tp2722
a(I0
g131
tp2723
a(I1
g131
tp2724
a(I2
g96
tp2725
a(I3
g96
tp2726
a(I0
g117
tp2727
a(I1
g131
tp2728
a(I2
g94
tp2729
a(I3
g96
tp2730
a(I0
g117
tp2731
a(I1
g131
tp2732
a(I2
g131
tp2733
a(I3
g96
tp2734
a(I0
g101
tp2735
a(I1
g94
tp2736
a(I2
g131
tp2737
a(I3
g96
tp2738
a(I0
g96
tp2739
a(I1
g131
tp2740
a(I2
g131
tp2741
a(I3
g101
tp2742
a(I0
g96
tp2743
a(I1
g94
tp2744
a(I2
g131
tp2745
a(I3
g96
tp2746
a(I0
g131
tp2747
a(I1
g94
tp2748
a(I2
g131
tp2749
a(I3
g94
tp2750
a(I0
g131
tp2751
a(I1
g131
tp2752
a(I2
g101
tp2753
a(I3
g96
tp2754
a(I0
g96
tp2755
a(I1
g94
tp2756
a(I2
g131
tp2757
a(I3
g101
tp2758
a(I0
g117
tp2759
a(I1
g94
tp2760
a(I2
g94
tp2761
a(I3
g131
tp2762
a(I0
g117
tp2763
a(I1
g131
tp2764
a(I2
g96
tp2765
a(I3
g94
tp2766
a(I0
g101
tp2767
a(I1
g101
tp2768
a(I2
g96
tp2769
a(I3
g131
tp2770
a(I0
g131
tp2771
a(I1
g96
tp2772
a(I2
g96
tp2773
a(I3
g131
tp2774
a(I0
g96
tp2775
a(I1
g101
tp2776
a(I2
g96
tp2777
a(I3
g131
tp2778
a(I0
g131
tp2779
a(I1
g96
tp2780
a(I2
g96
tp2781
a(I3
g131
tp2782
a(I0
g117
tp2783
a(I1
g101
tp2784
a(I2
g101
tp2785
a(I3
g131
tp2786
a(I0
g94
tp2787
a(I1
g131
tp2788
a(I2
g96
tp2789
a(I3
g131
tp2790
a(I0
g117
tp2791
a(I1
g94
tp2792
a(I2
g94
tp2793
a(I3
g131
tp2794
a(I0
g131
tp2795
a(I1
g96
tp2796
a(I2
g131
tp2797
a(I3
g96
tp2798
a(I0
g117
tp2799
a(I1
g101
tp2800
a(I2
g101
tp2801
a(I3
g96
tp2802
a(I0
g96
tp2803
a(I1
g96
tp2804
a(I2
g96
tp2805
a(I3
g101
tp2806
a(I0
g96
tp2807
a(I1
g94
tp2808
a(I2
g94
tp2809
a(I3
g131
tp2810
a(I0
g96
tp2811
a(I1
g131
tp2812
a(I2
g131
tp2813
a(I3
g94
tp2814
a(I0
g131
tp2815
a(I1
g131
tp2816
a(I2
g101
tp2817
a(I3
g131
tp2818
a(I0
g131
tp2819
a(I1
g94
tp2820
a(I2
g96
tp2821
a(I3
g96
tp2822
a(I0
g94
tp2823
a(I1
g94
tp2824
a(I2
g94
tp2825
a(I3
g96
tp2826
a(I0
g117
tp2827
a(I1
g131
tp2828
a(I2
g96
tp2829
a(I3
g96
tp2830
a(I0
g117
tp2831
a(I1
g131
tp2832
a(I2
g101
tp2833
a(I3
g96
tp2834
a(I0
g101
tp2835
a(I1
g131
tp2836
a(I2
g131
tp2837
a(I3
g96
tp2838
a(I0
g131
tp2839
a(I1
g101
tp2840
a(I2
g131
tp2841
a(I3
g96
tp2842
a(I0
g117
tp2843
a(I1
g96
tp2844
a(I2
g94
tp2845
a(I3
g101
tp2846
a(I0
g117
tp2847
a(I1
g94
tp2848
a(I2
g131
tp2849
a(I3
g96
tp2850
a(I0
g96
tp2851
a(I1
g96
tp2852
a(I2
g131
tp2853
a(I3
g94
tp2854
a(I0
g131
tp2855
a(I1
g96
tp2856
a(I2
g131
tp2857
a(I3
g131
tp2858
a(I0
g96
tp2859
a(I1
g101
tp2860
a(I2
g131
tp2861
a(I3
g131
tp2862
a(I0
g94
tp2863
a(I1
g131
tp2864
a(I2
g101
tp2865
a(I3
g131
tp2866
a(I0
g101
tp2867
a(I1
g94
tp2868
a(I2
g131
tp2869
a(I3
g131
tp2870
a(I0
g131
tp2871
a(I1
g96
tp2872
a(I2
g94
tp2873
a(I3
g131
tp2874
a(I0
g117
tp2875
a(I1
g101
tp2876
a(I2
g96
tp2877
a(I3
g131
tp2878
a(I0
g96
tp2879
a(I1
g101
tp2880
a(I2
g96
tp2881
a(I3
g131
tp2882
a(I0
g94
tp2883
a(I1
g96
tp2884
a(I2
g96
tp2885
a(I3
g96
tp2886
a(I0
g101
tp2887
a(I1
g96
tp2888
a(I2
g96
tp2889
a(I3
g101
tp2890
a(I0
g101
tp2891
a(I1
g101
tp2892
a(I2
g96
tp2893
a(I3
g96
tp2894
a(I0
g131
tp2895
a(I1
g131
tp2896
a(I2
g96
tp2897
a(I3
g94
tp2898
a(I0
g131
tp2899
a(I1
g94
tp2900
a(I2
g96
tp2901
a(I3
g131
tp2902
a(I0
g96
tp2903
a(I1
g131
tp2904
a(I2
g101
tp2905
a(I3
g131
tp2906
a(I0
g96
tp2907
a(I1
g94
tp2908
a(I2
g131
tp2909
a(I3
g96
tp2910
a(I0
g101
tp2911
a(I1
g131
tp2912
a(I2
g131
tp2913
a(I3
g96
tp2914
a(I0
g94
tp2915
a(I1
g94
tp2916
a(I2
g94
tp2917
a(I3
g96
tp2918
a(I0
g101
tp2919
a(I1
g131
tp2920
a(I2
g96
tp2921
a(I3
g96
tp2922
a(I0
g131
tp2923
a(I1
g131
tp2924
a(I2
g96
tp2925
a(I3
g96
tp2926
a(I0
g131
tp2927
a(I1
g101
tp2928
a(I2
g101
tp2929
a(I3
g96
tp2930
a(I0
g94
tp2931
a(I1
g96
tp2932
a(I2
g131
tp2933
a(I3
g101
tp2934
a(I0
g117
tp2935
a(I1
g96
tp2936
a(I2
g131
tp2937
a(I3
g96
tp2938
a(I0
g96
tp2939
a(I1
g96
tp2940
a(I2
g94
tp2941
a(I3
g94
tp2942
a(I0
g131
tp2943
a(I1
g94
tp2944
a(I2
g96
tp2945
a(I3
g131
tp2946
a(I0
g117
tp2947
a(I1
g131
tp2948
a(I2
g101
tp2949
a(I3
g131
tp2950
a(I0
g101
tp2951
a(I1
g101
tp2952
a(I2
g131
tp2953
a(I3
g131
tp2954
a(I0
g96
tp2955
a(I1
g96
tp2956
a(I2
g94
tp2957
a(I3
g131
tp2958
a(I0
g131
tp2959
a(I1
g94
tp2960
a(I2
g131
tp2961
a(I3
g131
tp2962
a(I0
g131
tp2963
a(I1
g131
tp2964
a(I2
g131
tp2965
a(I3
g131
tp2966
a(I0
g101
tp2967
a(I1
g101
tp2968
a(I2
g131
tp2969
a(I3
g131
tp2970
a(I0
g96
tp2971
a(I1
g96
tp2972
a(I2
g131
tp2973
a(I3
g96
tp2974
a(I0
g96
tp2975
a(I1
g94
tp2976
a(I2
g131
tp2977
a(I3
g96
tp2978
a(I0
g131
tp2979
a(I1
g131
tp2980
a(I2
g131
tp2981
a(I3
g96
tp2982
a(I0
g131
tp2983
a(I1
g101
tp2984
a(I2
g96
tp2985
a(I3
g96
tp2986
a(I0
g117
tp2987
a(I1
g96
tp2988
a(I2
g96
tp2989
a(I3
g96
tp2990
a(I0
g94
tp2991
a(I1
g94
tp2992
a(I2
g96
tp2993
a(I3
g96
tp2994
a(I0
g117
tp2995
a(I1
g131
tp2996
a(I2
g96
tp2997
a(I3
g101
tp2998
a(I0
g96
tp2999
a(I1
g101
tp3000
a(I2
g96
tp3001
a(I3
g96
tp3002
a(I0
g96
tp3003
a(I1
g96
tp3004
a(I2
g96
tp3005
a(I3
g96
tp3006
a(I0
g117
tp3007
a(I1
g94
tp3008
a(I2
g101
tp3009
a(I3
g94
tp3010
a(I0
g117
tp3011
a(I1
g131
tp3012
a(I2
g96
tp3013
a(I3
g131
tp3014
a(I0
g131
tp3015
a(I1
g131
tp3016
a(I2
g94
tp3017
a(I3
g101
tp3018
a(I0
g96
tp3019
a(I1
g131
tp3020
a(I2
g131
tp3021
a(I3
g131
tp3022
a(I0
g96
tp3023
a(I1
g131
tp3024
a(I2
g101
tp3025
a(I3
g94
tp3026
a(I0
g117
tp3027
a(I1
g101
tp3028
a(I2
g96
tp3029
a(I3
g131
tp3030
a(I0
g101
tp3031
a(I1
g131
tp3032
a(I2
g96
tp3033
a(I3
g131
tp3034
a(I0
g96
tp3035
a(I1
g131
tp3036
a(I2
g94
tp3037
a(I3
g131
tp3038
a(I0
g117
tp3039
a(I1
g94
tp3040
a(I2
g131
tp3041
a(I3
g131
tp3042
a(I0
g117
tp3043
a(I1
g131
tp3044
a(I2
g131
tp3045
a(I3
g131
tp3046
a(I0
g117
tp3047
a(I1
g101
tp3048
a(I2
g101
tp3049
a(I3
g131
tp3050
a(I0
g117
tp3051
a(I1
g96
tp3052
a(I2
g96
tp3053
a(I3
g96
tp3054
a(I0
g94
tp3055
a(I1
g96
tp3056
a(I2
g96
tp3057
a(I3
g101
tp3058
a(I0
g117
tp3059
a(I1
g96
tp3060
a(I2
g94
tp3061
a(I3
g101
tp3062
a(I0
g96
tp3063
a(I1
g96
tp3064
a(I2
g131
tp3065
a(I3
g131
tp3066
a(I0
g96
tp3067
a(I1
g96
tp3068
a(I2
g101
tp3069
a(I3
g131
tp3070
a(I0
g94
tp3071
a(I1
g94
tp3072
a(I2
g131
tp3073
a(I3
g131
tp3074
a(I0
g131
tp3075
a(I1
g96
tp3076
a(I2
g94
tp3077
a(I3
g94
tp3078
a(I0
g96
tp3079
a(I1
g96
tp3080
a(I2
g131
tp3081
a(I3
g94
tp3082
a(I0
g96
tp3083
a(I1
g101
tp3084
a(I2
g131
tp3085
a(I3
g131
tp3086
a(I0
g94
tp3087
a(I1
g101
tp3088
a(I2
g131
tp3089
a(I3
g131
tp3090
a(I0
g94
tp3091
a(I1
g96
tp3092
a(I2
g131
tp3093
a(I3
g131
tp3094
a(I0
g101
tp3095
a(I1
g101
tp3096
a(I2
g131
tp3097
a(I3
g131
tp3098
a(I0
g94
tp3099
a(I1
g131
tp3100
a(I2
g131
tp3101
a(I3
g101
tp3102
a(I0
g94
tp3103
a(I1
g94
tp3104
a(I2
g96
tp3105
a(I3
g96
tp3106
a(I0
g117
tp3107
a(I1
g94
tp3108
a(I2
g96
tp3109
a(I3
g101
tp3110
a(I0
g96
tp3111
a(I1
g94
tp3112
a(I2
g96
tp3113
a(I3
g96
tp3114
a(I0
g94
tp3115
a(I1
g131
tp3116
a(I2
g96
tp3117
a(I3
g96
tp3118
a(I0
g96
tp3119
a(I1
g101
tp3120
a(I2
g96
tp3121
a(I3
g96
tp3122
a(I0
g94
tp3123
a(I1
g96
tp3124
a(I2
g96
tp3125
a(I3
g94
tp3126
a(I0
g94
tp3127
a(I1
g94
tp3128
a(I2
g96
tp3129
a(I3
g94
tp3130
a(I0
g101
tp3131
a(I1
g131
tp3132
a(I2
g96
tp3133
a(I3
g131
tp3134
a(I0
g101
tp3135
a(I1
g101
tp3136
a(I2
g101
tp3137
a(I3
g101
tp3138
a(I0
g96
tp3139
a(I1
g96
tp3140
a(I2
g131
tp3141
a(I3
g131
tp3142
a(I0
g101
tp3143
a(I1
g94
tp3144
a(I2
g131
tp3145
a(I3
g94
tp3146
a(I0
g117
tp3147
a(I1
g131
tp3148
a(I2
g94
tp3149
a(I3
g131
tp3150
a(I0
g117
tp3151
a(I1
g101
tp3152
a(I2
g96
tp3153
a(I3
g131
tp3154
a(I0
g117
tp3155
a(I1
g96
tp3156
a(I2
g96
tp3157
a(I3
g101
tp3158
a(I0
g131
tp3159
a(I1
g94
tp3160
a(I2
g101
tp3161
a(I3
g96
tp3162
a(I0
g131
tp3163
a(I1
g131
tp3164
a(I2
g131
tp3165
a(I3
g94
tp3166
a(I0
g94
tp3167
a(I1
g101
tp3168
a(I2
g131
tp3169
a(I3
g96
tp3170
a(I0
g101
tp3171
a(I1
g96
tp3172
a(I2
g94
tp3173
a(I3
g96
tp3174
a(I0
g101
tp3175
a(I1
g94
tp3176
a(I2
g96
tp3177
a(I3
g96
tp3178
a(I0
g96
tp3179
a(I1
g131
tp3180
a(I2
g101
tp3181
a(I3
g101
tp3182
a(I0
g94
tp3183
a(I1
g131
tp3184
a(I2
g131
tp3185
a(I3
g101
tp3186
a(I0
g131
tp3187
a(I1
g131
tp3188
a(I2
g94
tp3189
a(I3
g96
tp3190
a(I0
g131
tp3191
a(I1
g101
tp3192
a(I2
g96
tp3193
a(I3
g96
tp3194
a(I0
g96
tp3195
a(I1
g96
tp3196
a(I2
g101
tp3197
a(I3
g96
tp3198
a(I0
g131
tp3199
a(I1
g94
tp3200
a(I2
g131
tp3201
a(I3
g94
tp3202
a(I0
g117
tp3203
a(I1
g96
tp3204
a(I2
g94
tp3205
a(I3
g94
tp3206
a(I0
g117
tp3207
a(I1
g101
tp3208
a(I2
g96
tp3209
a(I3
g131
tp3210
a(I0
g96
tp3211
a(I1
g96
tp3212
a(I2
g101
tp3213
a(I3
g96
tp3214
a(I0
g96
tp3215
a(I1
g94
tp3216
a(I2
g131
tp3217
a(I3
g101
tp3218
a(I0
g94
tp3219
a(I1
g131
tp3220
a(I2
g94
tp3221
a(I3
g101
tp3222
a(I0
g131
tp3223
a(I1
g131
tp3224
a(I2
g96
tp3225
a(I3
g101
tp3226
a(I0
g101
tp3227
a(I1
g101
tp3228
a(I2
g101
tp3229
a(I3
g96
tp3230
a(I0
g96
tp3231
a(I1
g96
tp3232
a(I2
g96
tp3233
a(I3
g94
tp3234
a(I0
g101
tp3235
a(I1
g96
tp3236
a(I2
g94
tp3237
a(I3
g94
tp3238
a(I0
g94
tp3239
a(I1
g94
tp3240
a(I2
g131
tp3241
a(I3
g94
tp3242
a(I0
g117
tp3243
a(I1
g131
tp3244
a(I2
g101
tp3245
a(I3
g96
tp3246
a(I0
g96
tp3247
a(I1
g101
tp3248
a(I2
g131
tp3249
a(I3
g96
tp3250
a(I0
g96
tp3251
a(I1
g131
tp3252
a(I2
g94
tp3253
a(I3
g96
tp3254
a(I0
g94
tp3255
a(I1
g94
tp3256
a(I2
g96
tp3257
a(I3
g96
tp3258
a(I0
g101
tp3259
a(I1
g96
tp3260
a(I2
g96
tp3261
a(I3
g96
tp3262
a(I0
g131
tp3263
a(I1
g101
tp3264
a(I2
g101
tp3265
a(I3
g96
tp3266
a(I0
g117
tp3267
a(I1
g96
tp3268
a(I2
g131
tp3269
a(I3
g101
tp3270
a(I0
g131
tp3271
a(I1
g94
tp3272
a(I2
g131
tp3273
a(I3
g131
tp3274
a(I0
g96
tp3275
a(I1
g131
tp3276
a(I2
g94
tp3277
a(I3
g94
tp3278
a(I0
g131
tp3279
a(I1
g131
tp3280
a(I2
g96
tp3281
a(I3
g131
tp3282
a(I0
g94
tp3283
a(I1
g101
tp3284
a(I2
g101
tp3285
a(I3
g101
tp3286
a(I0
g117
tp3287
a(I1
g96
tp3288
a(I2
g131
tp3289
a(I3
g96
tp3290
a(I0
g96
tp3291
a(I1
g96
tp3292
a(I2
g94
tp3293
a(I3
g94
tp3294
a(I0
g117
tp3295
a(I1
g94
tp3296
a(I2
g96
tp3297
a(I3
g131
tp3298
a(I0
g117
tp3299
a(I1
g131
tp3300
a(I2
g96
tp3301
a(I3
g101
tp3302
a(I0
g101
tp3303
a(I1
g101
tp3304
a(I2
g101
tp3305
a(I3
g96
tp3306
a(I0
g117
tp3307
a(I1
g96
tp3308
a(I2
g131
tp3309
a(I3
g94
tp3310
a(I0
g117
tp3311
a(I1
g94
tp3312
a(I2
g131
tp3313
a(I3
g131
tp3314
a(I0
g96
tp3315
a(I1
g131
tp3316
a(I2
g94
tp3317
a(I3
g131
tp3318
a(I0
g101
tp3319
a(I1
g101
tp3320
a(I2
g131
tp3321
a(I3
g131
tp3322
a(I0
g101
tp3323
a(I1
g96
tp3324
a(I2
g131
tp3325
a(I3
g131
tp3326
a(I0
g96
tp3327
a(I1
g94
tp3328
a(I2
g131
tp3329
a(I3
g131
tp3330
a(I0
g101
tp3331
a(I1
g131
tp3332
a(I2
g131
tp3333
a(I3
g101
tp3334
a(I0
g117
tp3335
a(I1
g101
tp3336
a(I2
g101
tp3337
a(I3
g131
tp3338
a(I0
g96
tp3339
a(I1
g96
tp3340
a(I2
g101
tp3341
a(I3
g94
tp3342
a(I0
g94
tp3343
a(I1
g94
tp3344
a(I2
g96
tp3345
a(I3
g96
tp3346
a(I0
g117
tp3347
a(I1
g131
tp3348
a(I2
g101
tp3349
a(I3
g96
tp3350
a(I0
g117
tp3351
a(I1
g131
tp3352
a(I2
g131
tp3353
a(I3
g96
tp3354
a(I0
g96
tp3355
a(I1
g101
tp3356
a(I2
g131
tp3357
a(I3
g96
tp3358
a(I0
g131
tp3359
a(I1
g96
tp3360
a(I2
g94
tp3361
a(I3
g96
tp3362
a(I0
g101
tp3363
a(I1
g94
tp3364
a(I2
g96
tp3365
a(I3
g96
tp3366
a(I0
g101
tp3367
a(I1
g96
tp3368
a(I2
g94
tp3369
a(I3
g101
tp3370
a(I0
g94
tp3371
a(I1
g101
tp3372
a(I2
g94
tp3373
a(I3
g131
tp3374
a(I0
g131
tp3375
a(I1
g131
tp3376
a(I2
g96
tp3377
a(I3
g94
tp3378
a(I0
g131
tp3379
a(I1
g94
tp3380
a(I2
g96
tp3381
a(I3
g96
tp3382
a(I0
g117
tp3383
a(I1
g96
tp3384
a(I2
g96
tp3385
a(I3
g101
tp3386
a(I0
g117
tp3387
a(I1
g101
tp3388
a(I2
g96
tp3389
a(I3
g131
tp3390
a(I0
g96
tp3391
a(I1
g131
tp3392
a(I2
g96
tp3393
a(I3
g94
tp3394
a(I0
g101
tp3395
a(I1
g94
tp3396
a(I2
g96
tp3397
a(I3
g96
tp3398
a(I0
g101
tp3399
a(I1
g131
tp3400
a(I2
g101
tp3401
a(I3
g101
tp3402
a(I0
g94
tp3403
a(I1
g101
tp3404
a(I2
g131
tp3405
a(I3
g131
tp3406
a(I0
g96
tp3407
a(I1
g96
tp3408
a(I2
g131
tp3409
a(I3
g94
tp3410
a(I0
g101
tp3411
a(I1
g96
tp3412
a(I2
g94
tp3413
a(I3
g131
tp3414
a(I0
g94
tp3415
a(I1
g94
tp3416
a(I2
g131
tp3417
a(I3
g131
tp3418
a(I0
g94
tp3419
a(I1
g131
tp3420
a(I2
g131
tp3421
a(I3
g131
tp3422
a(I0
g117
tp3423
a(I1
g101
tp3424
a(I2
g131
tp3425
a(I3
g131
tp3426
a(I0
g101
tp3427
a(I1
g96
tp3428
a(I2
g131
tp3429
a(I3
g131
tp3430
a(I0
g101
tp3431
a(I1
g94
tp3432
a(I2
g131
tp3433
a(I3
g101
tp3434
a(I0
g117
tp3435
a(I1
g131
tp3436
a(I2
g101
tp3437
a(I3
g96
tp3438
a(I0
g94
tp3439
a(I1
g131
tp3440
a(I2
g96
tp3441
a(I3
g94
tp3442
a(I0
g96
tp3443
a(I1
g101
tp3444
a(I2
g94
tp3445
a(I3
g131
tp3446
a(I0
g117
tp3447
a(I1
g96
tp3448
a(I2
g96
tp3449
a(I3
g101
tp3450
a(I0
g131
tp3451
a(I1
g94
tp3452
a(I2
g96
tp3453
a(I3
g96
tp3454
a(I0
g96
tp3455
a(I1
g96
tp3456
a(I2
g96
tp3457
a(I3
g94
tp3458
a(I0
g96
tp3459
a(I1
g101
tp3460
a(I2
g96
tp3461
a(I3
g131
tp3462
a(I0
g117
tp3463
a(I1
g131
tp3464
a(I2
g101
tp3465
a(I3
g131
tp3466
a(I0
g94
tp3467
a(I1
g94
tp3468
a(I2
g96
tp3469
a(I3
g96
tp3470
a(I0
g94
tp3471
a(I1
g96
tp3472
a(I2
g94
tp3473
a(I3
g96
tp3474
a(I0
g101
tp3475
a(I1
g101
tp3476
a(I2
g131
tp3477
a(I3
g96
tp3478
a(I0
g117
tp3479
a(I1
g131
tp3480
a(I2
g131
tp3481
a(I3
g96
tp3482
a(I0
g117
tp3483
a(I1
g94
tp3484
a(I2
g131
tp3485
a(I3
g96
tp3486
a(I0
g101
tp3487
a(I1
g96
tp3488
a(I2
g131
tp3489
a(I3
g96
tp3490
a(I0
g94
tp3491
a(I1
g101
tp3492
a(I2
g131
tp3493
a(I3
g101
tp3494
a(I0
g101
tp3495
a(I1
g131
tp3496
a(I2
g101
tp3497
a(I3
g96
tp3498
a(I0
g94
tp3499
a(I1
g94
tp3500
a(I2
g131
tp3501
a(I3
g94
tp3502
a(I0
g131
tp3503
a(I1
g96
tp3504
a(I2
g94
tp3505
a(I3
g131
tp3506
a(I0
g101
tp3507
a(I1
g101
tp3508
a(I2
g96
tp3509
a(I3
g101
tp3510
a(I0
g94
tp3511
a(I1
g101
tp3512
a(I2
g96
tp3513
a(I3
g96
tp3514
a(I0
g117
tp3515
a(I1
g96
tp3516
a(I2
g96
tp3517
a(I3
g94
tp3518
a(I0
g94
tp3519
a(I1
g101
tp3520
a(I2
g96
tp3521
a(I3
g96
tp3522
a(I0
g117
tp3523
a(I1
g96
tp3524
a(I2
g96
tp3525
a(I3
g101
tp3526
a(I0
g94
tp3527
a(I1
g94
tp3528
a(I2
g96
tp3529
a(I3
g131
tp3530
a(I0
g131
tp3531
a(I1
g131
tp3532
a(I2
g96
tp3533
a(I3
g131
tp3534
a(I0
g131
tp3535
a(I1
g101
tp3536
a(I2
g101
tp3537
a(I3
g94
tp3538
a(I0
g96
tp3539
a(I1
g96
tp3540
a(I2
g131
tp3541
a(I3
g131
tp3542
a(I0
g101
tp3543
a(I1
g94
tp3544
a(I2
g131
tp3545
a(I3
g131
tp3546
a(I0
g94
tp3547
a(I1
g96
tp3548
a(I2
g94
tp3549
a(I3
g131
tp3550
a(I0
g101
tp3551
a(I1
g94
tp3552
a(I2
g96
tp3553
a(I3
g131
tp3554
a(I0
g101
tp3555
a(I1
g94
tp3556
a(I2
g96
tp3557
a(I3
g131
tp3558
a(I0
g96
tp3559
a(I1
g131
tp3560
a(I2
g101
tp3561
a(I3
g131
tp3562
a(I0
g117
tp3563
a(I1
g96
tp3564
a(I2
g131
tp3565
a(I3
g96
tp3566
a(I0
g94
tp3567
a(I1
g96
tp3568
a(I2
g94
tp3569
a(I3
g96
tp3570
a(I0
g117
tp3571
a(I1
g101
tp3572
a(I2
g96
tp3573
a(I3
g96
tp3574
a(I0
g96
tp3575
a(I1
g131
tp3576
a(I2
g101
tp3577
a(I3
g96
tp3578
a(I0
g101
tp3579
a(I1
g94
tp3580
a(I2
g131
tp3581
a(I3
g96
tp3582
a(I0
g94
tp3583
a(I1
g96
tp3584
a(I2
g94
tp3585
a(I3
g96
tp3586
a(I0
g94
tp3587
a(I1
g96
tp3588
a(I2
g131
tp3589
a(I3
g101
tp3590
a(I0
g96
tp3591
a(I1
g96
tp3592
a(I2
g131
tp3593
a(I3
g96
tp3594
a(I0
g117
tp3595
a(I1
g96
tp3596
a(I2
g131
tp3597
a(I3
g96
tp3598
a(I0
g96
tp3599
a(I1
g96
tp3600
a(I2
g131
tp3601
a(I3
g94
tp3602
a(I0
g96
tp3603
a(I1
g96
tp3604
a(I2
g131
tp3605
a(I3
g131
tp3606
a(I0
g131
tp3607
a(I1
g96
tp3608
a(I2
g131
tp3609
a(I3
g131
tp3610
a(I0
g131
tp3611
a(I1
g101
tp3612
a(I2
g131
tp3613
a(I3
g131
tp3614
a(I0
g131
tp3615
a(I1
g131
tp3616
a(I2
g96
tp3617
a(I3
g131
tp3618
a(I0
g101
tp3619
a(I1
g94
tp3620
a(I2
g96
tp3621
a(I3
g131
tp3622
a(I0
g131
tp3623
a(I1
g96
tp3624
a(I2
g101
tp3625
a(I3
g131
tp3626
a(I0
g96
tp3627
a(I1
g101
tp3628
a(I2
g131
tp3629
a(I3
g101
tp3630
a(I0
g101
tp3631
a(I1
g131
tp3632
a(I2
g94
tp3633
a(I3
g131
tp3634
a(I0
g131
tp3635
a(I1
g94
tp3636
a(I2
g131
tp3637
a(I3
g101
tp3638
a(I0
g117
tp3639
a(I1
g131
tp3640
a(I2
g96
tp3641
a(I3
g96
tp3642
a(I0
g117
tp3643
a(I1
g131
tp3644
a(I2
g101
tp3645
a(I3
g94
tp3646
a(I0
g94
tp3647
a(I1
g131
tp3648
a(I2
g101
tp3649
a(I3
g131
tp3650
a(I0
g131
tp3651
a(I1
g131
tp3652
a(I2
g101
tp3653
a(I3
g101
tp3654
a(I0
g117
tp3655
a(I1
g131
tp3656
a(I2
g131
tp3657
a(I3
g101
tp3658
a(I0
g131
tp3659
a(I1
g131
tp3660
a(I2
g101
tp3661
a(I3
g96
tp3662
a(I0
g131
tp3663
a(I1
g131
tp3664
a(I2
g101
tp3665
a(I3
g96
tp3666
a(I0
g101
tp3667
a(I1
g96
tp3668
a(I2
g131
tp3669
a(I3
g94
tp3670
a(I0
g117
tp3671
a(I1
g96
tp3672
a(I2
g101
tp3673
a(I3
g131
tp3674
a(I0
g131
tp3675
a(I1
g96
tp3676
a(I2
g96
tp3677
a(I3
g94
tp3678
a(I0
g131
tp3679
a(I1
g96
tp3680
a(I2
g101
tp3681
a(I3
g94
tp3682
a(I0
g131
tp3683
a(I1
g96
tp3684
a(I2
g101
tp3685
a(I3
g96
tp3686
a(I0
g131
tp3687
a(I1
g96
tp3688
a(I2
g101
tp3689
a(I3
g96
tp3690
a(I0
g96
tp3691
a(I1
g101
tp3692
a(I2
g96
tp3693
a(I3
g96
tp3694
a(I0
g131
tp3695
a(I1
g96
tp3696
a(I2
g94
tp3697
a(I3
g96
tp3698
a(I0
g117
tp3699
a(I1
g94
tp3700
a(I2
g96
tp3701
a(I3
g101
tp3702
a(I0
g101
tp3703
a(I1
g131
tp3704
a(I2
g96
tp3705
a(I3
g96
tp3706
a(I0
g131
tp3707
a(I1
g131
tp3708
a(I2
g96
tp3709
a(I3
g94
tp3710
a(I0
g131
tp3711
a(I1
g131
tp3712
a(I2
g101
tp3713
a(I3
g131
tp3714
a(I0
g94
tp3715
a(I1
g131
tp3716
a(I2
g96
tp3717
a(I3
g131
tp3718
a(I0
g101
tp3719
a(I1
g131
tp3720
a(I2
g96
tp3721
a(I3
g131
tp3722
a(I0
g94
tp3723
a(I1
g131
tp3724
a(I2
g96
tp3725
a(I3
g131
tp3726
a(I0
g101
tp3727
a(I1
g131
tp3728
a(I2
g94
tp3729
a(I3
g131
tp3730
a(I0
g117
tp3731
a(I1
g96
tp3732
a(I2
g94
tp3733
a(I3
g131
tp3734
a(I0
g94
tp3735
a(I1
g96
tp3736
a(I2
g131
tp3737
a(I3
g131
tp3738
a(I0
g117
tp3739
a(I1
g101
tp3740
a(I2
g101
tp3741
a(I3
g96
tp3742
a(I0
g94
tp3743
a(I1
g131
tp3744
a(I2
g101
tp3745
a(I3
g101
tp3746
a(I0
g131
tp3747
a(I1
g94
tp3748
a(I2
g131
tp3749
a(I3
g96
tp3750
a(I0
g96
tp3751
a(I1
g131
tp3752
a(I2
g94
tp3753
a(I3
g94
tp3754
a(I0
g101
tp3755
a(I1
g96
tp3756
a(I2
g96
tp3757
a(I3
g131
tp3758
a(I0
g101
tp3759
a(I1
g96
tp3760
a(I2
g94
tp3761
a(I3
g131
tp3762
a(I0
g94
tp3763
a(I1
g101
tp3764
a(I2
g131
tp3765
a(I3
g96
tp3766
a(I0
g131
tp3767
a(I1
g131
tp3768
a(I2
g101
tp3769
a(I3
g96
tp3770
a(I0
g96
tp3771
a(I1
g101
tp3772
a(I2
g96
tp3773
a(I3
g101
tp3774
a(I0
g131
tp3775
a(I1
g131
tp3776
a(I2
g94
tp3777
a(I3
g131
tp3778
a(I0
g101
tp3779
a(I1
g131
tp3780
a(I2
g131
tp3781
a(I3
g94
tp3782
a(I0
g117
tp3783
a(I1
g101
tp3784
a(I2
g131
tp3785
a(I3
g131
tp3786
a(I0
g96
tp3787
a(I1
g131
tp3788
a(I2
g101
tp3789
a(I3
g96
tp3790
a(I0
g94
tp3791
a(I1
g94
tp3792
a(I2
g96
tp3793
a(I3
g96
tp3794
a(I0
g117
tp3795
a(I1
g96
tp3796
a(I2
g94
tp3797
a(I3
g101
tp3798
a(I0
g96
tp3799
a(I1
g101
tp3800
a(I2
g96
tp3801
a(I3
g131
tp3802
a(I0
g131
tp3803
a(I1
g101
tp3804
a(I2
g101
tp3805
a(I3
g94
tp3806
a(I0
g96
tp3807
a(I1
g96
tp3808
a(I2
g96
tp3809
a(I3
g131
tp3810
a(I0
g94
tp3811
a(I1
g94
tp3812
a(I2
g94
tp3813
a(I3
g96
tp3814
a(I0
g131
tp3815
a(I1
g131
tp3816
a(I2
g96
tp3817
a(I3
g101
tp3818
a(I0
g96
tp3819
a(I1
g94
tp3820
a(I2
g101
tp3821
a(I3
g101
tp3822
a(I0
g117
tp3823
a(I1
g96
tp3824
a(I2
g131
tp3825
a(I3
g131
tp3826
a(I0
g96
tp3827
a(I1
g101
tp3828
a(I2
g94
tp3829
a(I3
g131
tp3830
a(I0
g96
tp3831
a(I1
g131
tp3832
a(I2
g131
tp3833
a(I3
g101
tp3834
a(I0
g117
tp3835
a(I1
g94
tp3836
a(I2
g131
tp3837
a(I3
g101
tp3838
a(I0
g94
tp3839
a(I1
g96
tp3840
a(I2
g131
tp3841
a(I3
g96
tp3842
a(I0
g131
tp3843
a(I1
g101
tp3844
a(I2
g131
tp3845
a(I3
g94
tp3846
a(I0
g96
tp3847
a(I1
g131
tp3848
a(I2
g101
tp3849
a(I3
g131
tp3850
a(I0
g117
tp3851
a(I1
g94
tp3852
a(I2
g131
tp3853
a(I3
g131
tp3854
a(I0
g131
tp3855
a(I1
g131
tp3856
a(I2
g131
tp3857
a(I3
g94
tp3858
a(I0
g117
tp3859
a(I1
g94
tp3860
a(I2
g94
tp3861
a(I3
g96
tp3862
a(I0
g131
tp3863
a(I1
g94
tp3864
a(I2
g131
tp3865
a(I3
g101
tp3866
a(I0
g117
tp3867
a(I1
g131
tp3868
a(I2
g94
tp3869
a(I3
g96
tp3870
a(I0
g131
tp3871
a(I1
g131
tp3872
a(I2
g94
tp3873
a(I3
g94
tp3874
a(I0
g101
tp3875
a(I1
g131
tp3876
a(I2
g131
tp3877
a(I3
g96
tp3878
a(I0
g96
tp3879
a(I1
g101
tp3880
a(I2
g101
tp3881
a(I3
g96
tp3882
a(I0
g117
tp3883
a(I1
g96
tp3884
a(I2
g101
tp3885
a(I3
g96
tp3886
a(I0
g94
tp3887
a(I1
g96
tp3888
a(I2
g131
tp3889
a(I3
g96
tp3890
a(I0
g117
tp3891
a(I1
g94
tp3892
a(I2
g94
tp3893
a(I3
g101
tp3894
a(I0
g96
tp3895
a(I1
g96
tp3896
a(I2
g96
tp3897
a(I3
g96
tp3898
a(I0
g96
tp3899
a(I1
g101
tp3900
a(I2
g94
tp3901
a(I3
g101
tp3902
a(I0
g101
tp3903
a(I1
g101
tp3904
a(I2
g94
tp3905
a(I3
g96
tp3906
a(I0
g96
tp3907
a(I1
g96
tp3908
a(I2
g94
tp3909
a(I3
g101
tp3910
a(I0
g94
tp3911
a(I1
g96
tp3912
a(I2
g94
tp3913
a(I3
g96
tp3914
a(I0
g131
tp3915
a(I1
g96
tp3916
a(I2
g96
tp3917
a(I3
g94
tp3918
a(I0
g96
tp3919
a(I1
g101
tp3920
a(I2
g96
tp3921
a(I3
g131
tp3922
a(I0
g101
tp3923
a(I1
g131
tp3924
a(I2
g94
tp3925
a(I3
g101
tp3926
a(I0
g101
tp3927
a(I1
g131
tp3928
a(I2
g94
tp3929
a(I3
g96
tp3930
a(I0
g131
tp3931
a(I1
g94
tp3932
a(I2
g131
tp3933
a(I3
g94
tp3934
a(I0
g94
tp3935
a(I1
g131
tp3936
a(I2
g96
tp3937
a(I3
g94
tp3938
a(I0
g96
tp3939
a(I1
g101
tp3940
a(I2
g96
tp3941
a(I3
g96
tp3942
a(I0
g94
tp3943
a(I1
g131
tp3944
a(I2
g101
tp3945
a(I3
g101
tp3946
a(I0
g117
tp3947
a(I1
g94
tp3948
a(I2
g131
tp3949
a(I3
g101
tp3950
a(I0
g131
tp3951
a(I1
g94
tp3952
a(I2
g94
tp3953
a(I3
g131
tp3954
a(I0
g101
tp3955
a(I1
g96
tp3956
a(I2
g131
tp3957
a(I3
g94
tp3958
a(I0
g94
tp3959
a(I1
g94
tp3960
a(I2
g96
tp3961
a(I3
g96
tp3962
a(I0
g101
tp3963
a(I1
g131
tp3964
a(I2
g96
tp3965
a(I3
g101
tp3966
a(I0
g94
tp3967
a(I1
g101
tp3968
a(I2
g101
tp3969
a(I3
g131
tp3970
a(I0
g94
tp3971
a(I1
g96
tp3972
a(I2
g101
tp3973
a(I3
g131
tp3974
a(I0
g94
tp3975
a(I1
g94
tp3976
a(I2
g131
tp3977
a(I3
g131
tp3978
a(I0
g117
tp3979
a(I1
g131
tp3980
a(I2
g101
tp3981
a(I3
g94
tp3982
a(I0
g117
tp3983
a(I1
g131
tp3984
a(I2
g131
tp3985
a(I3
g96
tp3986
a(I0
g131
tp3987
a(I1
g131
tp3988
a(I2
g131
tp3989
a(I3
g101
tp3990
a(I0
g101
tp3991
a(I1
g101
tp3992
a(I2
g94
tp3993
a(I3
g96
tp3994
a(I0
g117
tp3995
a(I1
g96
tp3996
a(I2
g131
tp3997
a(I3
g96
tp3998
a(I0
g94
tp3999
a(I1
g101
tp4000
a(I2
g94
tp4001
a(I3
g94
tp4002
a(I0
g131
tp4003
a(I1
g96
tp4004
a(I2
g94
tp4005
a(I3
g131
tp4006
a(I0
g101
tp4007
a(I1
g96
tp4008
a(I2
g131
tp4009
a(I3
g101
tp4010
a(I0
g96
tp4011
a(I1
g96
tp4012
a(I2
g101
tp4013
a(I3
g131
tp4014
a(I0
g131
tp4015
a(I1
g96
tp4016
a(I2
g96
tp4017
a(I3
g131
tp4018
a(I0
g117
tp4019
a(I1
g96
tp4020
a(I2
g94
tp4021
a(I3
g131
tp4022
a(I0
g101
tp4023
a(I1
g96
tp4024
a(I2
g131
tp4025
a(I3
g94
tp4026
a(I0
g94
tp4027
a(I1
g94
tp4028
a(I2
g101
tp4029
a(I3
g96
tp4030
a(I0
g96
tp4031
a(I1
g131
tp4032
a(I2
g96
tp4033
a(I3
g101
tp4034
a(I0
g131
tp4035
a(I1
g94
tp4036
a(I2
g101
tp4037
a(I3
g131
tp4038
a(I0
g94
tp4039
a(I1
g131
tp4040
a(I2
g96
tp4041
a(I3
g131
tp4042
a(I0
g96
tp4043
a(I1
g96
tp4044
a(I2
g96
tp4045
a(I3
g94
tp4046
a(I0
g101
tp4047
a(I1
g101
tp4048
a(I2
g101
tp4049
a(I3
g96
tp4050
a(I0
g94
tp4051
a(I1
g101
tp4052
a(I2
g101
tp4053
a(I3
g101
tp4054
a(I0
g96
tp4055
a(I1
g131
tp4056
a(I2
g131
tp4057
a(I3
g96
tp4058
a(I0
g96
tp4059
a(I1
g131
tp4060
a(I2
g94
tp4061
a(I3
g96
tp4062
a(I0
g117
tp4063
a(I1
g131
tp4064
a(I2
g94
tp4065
a(I3
g96
tp4066
a(I0
g131
tp4067
a(I1
g94
tp4068
a(I2
g131
tp4069
a(I3
g96
tp4070
a(I0
g117
tp4071
a(I1
g94
tp4072
a(I2
g94
tp4073
a(I3
g94
tp4074
a(I0
g101
tp4075
a(I1
g131
tp4076
a(I2
g94
tp4077
a(I3
g131
tp4078
a(I0
g96
tp4079
a(I1
g131
tp4080
a(I2
g131
tp4081
a(I3
g94
tp4082
a(I0
g131
tp4083
a(I1
g101
tp4084
a(I2
g101
tp4085
a(I3
g131
tp4086
a(I0
g94
tp4087
a(I1
g96
tp4088
a(I2
g96
tp4089
a(I3
g131
tp4090
a(I0
g101
tp4091
a(I1
g96
tp4092
a(I2
g94
tp4093
a(I3
g131
tp4094
a(I0
g131
tp4095
a(I1
g94
tp4096
a(I2
g131
tp4097
a(I3
g94
tp4098
a(I0
g131
tp4099
a(I1
g131
tp4100
a(I2
g131
tp4101
a(I3
g131
tp4102
a(I0
g101
tp4103
a(I1
g101
tp4104
a(I2
g101
tp4105
a(I3
g101
tp4106
a(I0
g131
tp4107
a(I1
g96
tp4108
a(I2
g96
tp4109
a(I3
g96
tp4110
a(I0
g101
tp4111
a(I1
g94
tp4112
a(I2
g96
tp4113
a(I3
g94
tp4114
a(I0
g117
tp4115
a(I1
g131
tp4116
a(I2
g94
tp4117
a(I3
g131
tp4118
a(I0
g117
tp4119
a(I1
g101
tp4120
a(I2
g131
tp4121
a(I3
g101
tp4122
a(I0
g96
tp4123
a(I1
g131
tp4124
a(I2
g101
tp4125
a(I3
g131
tp4126
a(I0
g96
tp4127
a(I1
g94
tp4128
a(I2
g96
tp4129
a(I3
g94
tp4130
a(I0
g94
tp4131
a(I1
g96
tp4132
a(I2
g101
tp4133
a(I3
g94
tp4134
a(I0
g101
tp4135
a(I1
g101
tp4136
a(I2
g96
tp4137
a(I3
g94
tp4138
a(I0
g96
tp4139
a(I1
g96
tp4140
a(I2
g96
tp4141
a(I3
g96
tp4142
a(I0
g101
tp4143
a(I1
g94
tp4144
a(I2
g101
tp4145
a(I3
g96
tp4146
a(I0
g96
tp4147
a(I1
g131
tp4148
a(I2
g131
tp4149
a(I3
g96
tp4150
a(I0
g117
tp4151
a(I1
g101
tp4152
a(I2
g94
tp4153
a(I3
g96
tp4154
a(I0
g131
tp4155
a(I1
g96
tp4156
a(I2
g131
tp4157
a(I3
g101
tp4158
a(I0
g96
tp4159
a(I1
g94
tp4160
a(I2
g94
tp4161
a(I3
g96
tp4162
a(I0
g94
tp4163
a(I1
g131
tp4164
a(I2
g94
tp4165
a(I3
g94
tp4166
a(I0
g94
tp4167
a(I1
g101
tp4168
a(I2
g131
tp4169
a(I3
g131
tp4170
a(I0
g117
tp4171
a(I1
g96
tp4172
a(I2
g101
tp4173
a(I3
g101
tp4174
a(I0
g117
tp4175
a(I1
g94
tp4176
a(I2
g96
tp4177
a(I3
g96
tp4178
a(I0
g94
tp4179
a(I1
g131
tp4180
a(I2
g94
tp4181
a(I3
g94
tp4182
a(I0
g117
tp4183
a(I1
g131
tp4184
a(I2
g131
tp4185
a(I3
g131
tp4186
a(I0
g131
tp4187
a(I1
g101
tp4188
a(I2
g131
tp4189
a(I3
g131
tp4190
a(I0
g101
tp4191
a(I1
g96
tp4192
a(I2
g131
tp4193
a(I3
g131
tp4194
a(I0
g131
tp4195
a(I1
g96
tp4196
a(I2
g101
tp4197
a(I3
g131
tp4198
a(I0
g117
tp4199
a(I1
g94
tp4200
a(I2
g96
tp4201
a(I3
g131
tp4202
a(I0
g101
tp4203
a(I1
g131
tp4204
a(I2
g96
tp4205
a(I3
g131
tp4206
a(I0
g131
tp4207
a(I1
g101
tp4208
a(I2
g96
tp4209
a(I3
g131
tp4210
a(I0
g94
tp4211
a(I1
g96
tp4212
a(I2
g94
tp4213
a(I3
g96
tp4214
a(I0
g94
tp4215
a(I1
g94
tp4216
a(I2
g131
tp4217
a(I3
g96
tp4218
a(I0
g96
tp4219
a(I1
g131
tp4220
a(I2
g131
tp4221
a(I3
g96
tp4222
a(I0
g101
tp4223
a(I1
g131
tp4224
a(I2
g131
tp4225
a(I3
g96
tp4226
a(I0
g101
tp4227
a(I1
g131
tp4228
a(I2
g101
tp4229
a(I3
g96
tp4230
a(I0
g101
tp4231
a(I1
g101
tp4232
a(I2
g96
tp4233
a(I3
g96
tp4234
a(I0
g101
tp4235
a(I1
g101
tp4236
a(I2
g94
tp4237
a(I3
g96
tp4238
a(I0
g101
tp4239
a(I1
g101
tp4240
a(I2
g96
tp4241
a(I3
g96
tp4242
a(I0
g94
tp4243
a(I1
g101
tp4244
a(I2
g96
tp4245
a(I3
g101
tp4246
a(I0
g94
tp4247
a(I1
g101
tp4248
a(I2
g101
tp4249
a(I3
g131
tp4250
a(I0
g101
tp4251
a(I1
g101
tp4252
a(I2
g131
tp4253
a(I3
g94
tp4254
a(I0
g94
tp4255
a(I1
g131
tp4256
a(I2
g101
tp4257
a(I3
g131
tp4258
a(I0
g101
tp4259
a(I1
g131
tp4260
a(I2
g101
tp4261
a(I3
g101
tp4262
a(I0
g101
tp4263
a(I1
g94
tp4264
a(I2
g96
tp4265
a(I3
g96
tp4266
a(I0
g131
tp4267
a(I1
g96
tp4268
a(I2
g101
tp4269
a(I3
g94
tp4270
a(I0
g131
tp4271
a(I1
g101
tp4272
a(I2
g96
tp4273
a(I3
g131
tp4274
a(I0
g96
tp4275
a(I1
g96
tp4276
a(I2
g96
tp4277
a(I3
g101
tp4278
a(I0
g117
tp4279
a(I1
g101
tp4280
a(I2
g94
tp4281
a(I3
g96
tp4282
a(I0
g96
tp4283
a(I1
g96
tp4284
a(I2
g131
tp4285
a(I3
g94
tp4286
a(I0
g131
tp4287
a(I1
g101
tp4288
a(I2
g94
tp4289
a(I3
g96
tp4290
a(I0
g131
tp4291
a(I1
g96
tp4292
a(I2
g96
tp4293
a(I3
g101
tp4294
a(I0
g131
tp4295
a(I1
g96
tp4296
a(I2
g96
tp4297
a(I3
g131
tp4298
a(I0
g96
tp4299
a(I1
g96
tp4300
a(I2
g94
tp4301
a(I3
g131
tp4302
a(I0
g117
tp4303
a(I1
g96
tp4304
a(I2
g94
tp4305
a(I3
g94
tp4306
a(I0
g94
tp4307
a(I1
g96
tp4308
a(I2
g131
tp4309
a(I3
g131
tp4310
a(I0
g94
tp4311
a(I1
g96
tp4312
a(I2
g96
tp4313
a(I3
g131
tp4314
a(I0
g117
tp4315
a(I1
g96
tp4316
a(I2
g96
tp4317
a(I3
g131
tp4318
a(I0
g101
tp4319
a(I1
g96
tp4320
a(I2
g101
tp4321
a(I3
g131
tp4322
a(I0
g96
tp4323
a(I1
g96
tp4324
a(I2
g131
tp4325
a(I3
g101
tp4326
a(I0
g101
tp4327
a(I1
g94
tp4328
a(I2
g94
tp4329
a(I3
g101
tp4330
a(I0
g96
tp4331
a(I1
g96
tp4332
a(I2
g131
tp4333
a(I3
g131
tp4334
a(I0
g131
tp4335
a(I1
g96
tp4336
a(I2
g96
tp4337
a(I3
g94
tp4338
a(I0
g94
tp4339
a(I1
g101
tp4340
a(I2
g96
tp4341
a(I3
g94
tp4342
a(I0
g101
tp4343
a(I1
g131
tp4344
a(I2
g101
tp4345
a(I3
g96
tp4346
a(I0
g117
tp4347
a(I1
g101
tp4348
a(I2
g131
tp4349
a(I3
g96
tp4350
a(I0
g117
tp4351
a(I1
g96
tp4352
a(I2
g101
tp4353
a(I3
g96
tp4354
a(I0
g94
tp4355
a(I1
g96
tp4356
a(I2
g131
tp4357
a(I3
g96
tp4358
a(I0
g131
tp4359
a(I1
g94
tp4360
a(I2
g101
tp4361
a(I3
g96
tp4362
a(I0
g96
tp4363
a(I1
g131
tp4364
a(I2
g131
tp4365
a(I3
g96
tp4366
a(I0
g101
tp4367
a(I1
g94
tp4368
a(I2
g94
tp4369
a(I3
g96
tp4370
a(I0
g117
tp4371
a(I1
g131
tp4372
a(I2
g131
tp4373
a(I3
g101
tp4374
a(I0
g131
tp4375
a(I1
g131
tp4376
a(I2
g94
tp4377
a(I3
g131
tp4378
a(I0
g131
tp4379
a(I1
g131
tp4380
a(I2
g94
tp4381
a(I3
g131
tp4382
a(I0
g117
tp4383
a(I1
g131
tp4384
a(I2
g131
tp4385
a(I3
g94
tp4386
a(I0
g131
tp4387
a(I1
g101
tp4388
a(I2
g131
tp4389
a(I3
g131
tp4390
a(I0
g94
tp4391
a(I1
g131
tp4392
a(I2
g131
tp4393
a(I3
g131
tp4394
a(I0
g101
tp4395
a(I1
g131
tp4396
a(I2
g101
tp4397
a(I3
g131
tp4398
a(I0
g131
tp4399
a(I1
g94
tp4400
a(I2
g96
tp4401
a(I3
g131
tp4402
a(I0
g94
tp4403
a(I1
g94
tp4404
a(I2
g94
tp4405
a(I3
g131
tp4406
a(I0
g101
tp4407
a(I1
g94
tp4408
a(I2
g96
tp4409
a(I3
g101
tp4410
a(I0
g131
tp4411
a(I1
g131
tp4412
a(I2
g101
tp4413
a(I3
g101
tp4414
a(I0
g94
tp4415
a(I1
g131
tp4416
a(I2
g96
tp4417
a(I3
g101
tp4418
a(I0
g117
tp4419
a(I1
g94
tp4420
a(I2
g94
tp4421
a(I3
g131
tp4422
a(I0
g94
tp4423
a(I1
g94
tp4424
a(I2
g131
tp4425
a(I3
g131
tp4426
a(I0
g101
tp4427
a(I1
g94
tp4428
a(I2
g101
tp4429
a(I3
g101
tp4430
a(I0
g96
tp4431
a(I1
g96
tp4432
a(I2
g96
tp4433
a(I3
g131
tp4434
a(I0
g94
tp4435
a(I1
g101
tp4436
a(I2
g94
tp4437
a(I3
g131
tp4438
a(I0
g94
tp4439
a(I1
g131
tp4440
a(I2
g131
tp4441
a(I3
g101
tp4442
a(I0
g94
tp4443
a(I1
g94
tp4444
a(I2
g101
tp4445
a(I3
g101
tp4446
a(I0
g117
tp4447
a(I1
g131
tp4448
a(I2
g101
tp4449
a(I3
g96
tp4450
a(I0
g117
tp4451
a(I1
g94
tp4452
a(I2
g96
tp4453
a(I3
g96
tp4454
a(I0
g96
tp4455
a(I1
g94
tp4456
a(I2
g94
tp4457
a(I3
g101
tp4458
a(I0
g96
tp4459
a(I1
g131
tp4460
a(I2
g94
tp4461
a(I3
g101
tp4462
a(I0
g94
tp4463
a(I1
g131
tp4464
a(I2
g131
tp4465
a(I3
g131
tp4466
a(I0
g117
tp4467
a(I1
g101
tp4468
a(I2
g131
tp4469
a(I3
g94
tp4470
a(I0
g101
tp4471
a(I1
g96
tp4472
a(I2
g131
tp4473
a(I3
g96
tp4474
a(I0
g131
tp4475
a(I1
g94
tp4476
a(I2
g101
tp4477
a(I3
g101
tp4478
a(I0
g131
tp4479
a(I1
g96
tp4480
a(I2
g96
tp4481
a(I3
g96
tp4482
a(I0
g101
tp4483
a(I1
g101
tp4484
a(I2
g96
tp4485
a(I3
g96
tp4486
a(I0
g117
tp4487
a(I1
g101
tp4488
a(I2
g101
tp4489
a(I3
g96
tp4490
a(I0
g117
tp4491
a(I1
g96
tp4492
a(I2
g101
tp4493
a(I3
g96
tp4494
a(I0
g101
tp4495
a(I1
g101
tp4496
a(I2
g96
tp4497
a(I3
g96
tp4498
a(I0
g94
tp4499
a(I1
g101
tp4500
a(I2
g94
tp4501
a(I3
g96
tp4502
a(I0
g94
tp4503
a(I1
g131
tp4504
a(I2
g96
tp4505
a(I3
g96
tp4506
a(I0
g101
tp4507
a(I1
g94
tp4508
a(I2
g101
tp4509
a(I3
g96
tp4510
a(I0
g117
tp4511
a(I1
g94
tp4512
a(I2
g101
tp4513
a(I3
g101
tp4514
a(I0
g117
tp4515
a(I1
g131
tp4516
a(I2
g101
tp4517
a(I3
g96
tp4518
a(I0
g101
tp4519
a(I1
g94
tp4520
a(I2
g101
tp4521
a(I3
g94
tp4522
a(I0
g94
tp4523
a(I1
g94
tp4524
a(I2
g96
tp4525
a(I3
g131
tp4526
a(I0
g96
tp4527
a(I1
g96
tp4528
a(I2
g94
tp4529
a(I3
g131
tp4530
a(I0
g131
tp4531
a(I1
g101
tp4532
a(I2
g96
tp4533
a(I3
g94
tp4534
a(I0
g101
tp4535
a(I1
g101
tp4536
a(I2
g96
tp4537
a(I3
g131
tp4538
a(I0
g117
tp4539
a(I1
g96
tp4540
a(I2
g96
tp4541
a(I3
g131
tp4542
a(I0
g117
tp4543
a(I1
g96
tp4544
a(I2
g94
tp4545
a(I3
g131
tp4546
a(I0
g101
tp4547
a(I1
g96
tp4548
a(I2
g94
tp4549
a(I3
g101
tp4550
a(I0
g101
tp4551
a(I1
g96
tp4552
a(I2
g96
tp4553
a(I3
g131
tp4554
a(I0
g94
tp4555
a(I1
g94
tp4556
a(I2
g101
tp4557
a(I3
g131
tp4558
a(I0
g117
tp4559
a(I1
g94
tp4560
a(I2
g101
tp4561
a(I3
g94
tp4562
a(I0
g117
tp4563
a(I1
g131
tp4564
a(I2
g96
tp4565
a(I3
g94
tp4566
a(I0
g101
tp4567
a(I1
g131
tp4568
a(I2
g96
tp4569
a(I3
g131
tp4570
a(I0
g131
tp4571
a(I1
g96
tp4572
a(I2
g96
tp4573
a(I3
g94
tp4574
a(I0
g131
tp4575
a(I1
g101
tp4576
a(I2
g96
tp4577
a(I3
g94
tp4578
a(I0
g117
tp4579
a(I1
g96
tp4580
a(I2
g94
tp4581
a(I3
g131
tp4582
a(I0
g96
tp4583
a(I1
g94
tp4584
a(I2
g94
tp4585
a(I3
g101
tp4586
a(I0
g94
tp4587
a(I1
g131
tp4588
a(I2
g131
tp4589
a(I3
g131
tp4590
a(I0
g117
tp4591
a(I1
g131
tp4592
a(I2
g101
tp4593
a(I3
g94
tp4594
a(I0
g96
tp4595
a(I1
g96
tp4596
a(I2
g101
tp4597
a(I3
g131
tp4598
a(I0
g117
tp4599
a(I1
g96
tp4600
a(I2
g96
tp4601
a(I3
g94
tp4602
a(I0
g94
tp4603
a(I1
g96
tp4604
a(I2
g94
tp4605
a(I3
g96
tp4606
a(I0
g131
tp4607
a(I1
g96
tp4608
a(I2
g131
tp4609
a(I3
g94
tp4610
a(I0
g96
tp4611
a(I1
g96
tp4612
a(I2
g101
tp4613
a(I3
g131
tp4614
a(I0
g96
tp4615
a(I1
g96
tp4616
a(I2
g96
tp4617
a(I3
g94
tp4618
a(I0
g117
tp4619
a(I1
g96
tp4620
a(I2
g94
tp4621
a(I3
g96
tp4622
a(I0
g117
tp4623
a(I1
g101
tp4624
a(I2
g131
tp4625
a(I3
g94
tp4626
a(I0
g117
tp4627
a(I1
g131
tp4628
a(I2
g101
tp4629
a(I3
g131
tp4630
a(I0
g94
tp4631
a(I1
g94
tp4632
a(I2
g96
tp4633
a(I3
g101
tp4634
a(I0
g117
tp4635
a(I1
g131
tp4636
a(I2
g94
tp4637
a(I3
g96
tp4638
a(I0
g96
tp4639
a(I1
g131
tp4640
a(I2
g131
tp4641
a(I3
g94
tp4642
a(I0
g101
tp4643
a(I1
g131
tp4644
a(I2
g101
tp4645
a(I3
g131
tp4646
a(I0
g117
tp4647
a(I1
g131
tp4648
a(I2
g131
tp4649
a(I3
g131
tp4650
a(I0
g131
tp4651
a(I1
g131
tp4652
a(I2
g94
tp4653
a(I3
g101
tp4654
a(I0
g94
tp4655
a(I1
g131
tp4656
a(I2
g96
tp4657
a(I3
g96
tp4658
a(I0
g94
tp4659
a(I1
g96
tp4660
a(I2
g101
tp4661
a(I3
g96
tp4662
a(I0
g117
tp4663
a(I1
g96
tp4664
a(I2
g131
tp4665
a(I3
g94
tp4666
a(I0
g117
tp4667
a(I1
g101
tp4668
a(I2
g131
tp4669
a(I3
g131
tp4670
a(I0
g117
tp4671
a(I1
g131
tp4672
a(I2
g94
tp4673
a(I3
g101
tp4674
a(I0
g131
tp4675
a(I1
g94
tp4676
a(I2
g96
tp4677
a(I3
g96
tp4678
a(I0
g101
tp4679
a(I1
g131
tp4680
a(I2
g101
tp4681
a(I3
g94
tp4682
a(I0
g96
tp4683
a(I1
g96
tp4684
a(I2
g96
tp4685
a(I3
g131
tp4686
a(I0
g94
tp4687
a(I1
g96
tp4688
a(I2
g94
tp4689
a(I3
g131
tp4690
a(I0
g131
tp4691
a(I1
g101
tp4692
a(I2
g96
tp4693
a(I3
g101
tp4694
a(I0
g117
tp4695
a(I1
g131
tp4696
a(I2
g101
tp4697
a(I3
g96
tp4698
a(I0
g131
tp4699
a(I1
g101
tp4700
a(I2
g131
tp4701
a(I3
g96
tp4702
a(I0
g96
tp4703
a(I1
g131
tp4704
a(I2
g131
tp4705
a(I3
g94
tp4706
a(I0
g117
tp4707
a(I1
g131
tp4708
a(I2
g131
tp4709
a(I3
g131
tp4710
a(I0
g96
tp4711
a(I1
g131
tp4712
a(I2
g131
tp4713
a(I3
g131
tp4714
a(I0
g117
tp4715
a(I1
g101
tp4716
a(I2
g94
tp4717
a(I3
g101
tp4718
a(I0
g96
tp4719
a(I1
g96
tp4720
a(I2
g131
tp4721
a(I3
g96
tp4722
a(I0
g117
tp4723
a(I1
g94
tp4724
a(I2
g94
tp4725
a(I3
g96
tp4726
a(I0
g101
tp4727
a(I1
g131
tp4728
a(I2
g131
tp4729
a(I3
g94
tp4730
a(I0
g101
tp4731
a(I1
g94
tp4732
a(I2
g131
tp4733
a(I3
g131
tp4734
a(I0
g94
tp4735
a(I1
g94
tp4736
a(I2
g94
tp4737
a(I3
g101
tp4738
a(I0
g117
tp4739
a(I1
g131
tp4740
a(I2
g94
tp4741
a(I3
g96
tp4742
a(I0
g117
tp4743
a(I1
g101
tp4744
a(I2
g94
tp4745
a(I3
g94
tp4746
a(I0
g101
tp4747
a(I1
g96
tp4748
a(I2
g131
tp4749
a(I3
g131
tp4750
a(I0
g117
tp4751
a(I1
g94
tp4752
a(I2
g96
tp4753
a(I3
g131
tp4754
a(I0
g117
tp4755
a(I1
g131
tp4756
a(I2
g96
tp4757
a(I3
g131
tp4758
a(I0
g94
tp4759
a(I1
g101
tp4760
a(I2
g96
tp4761
a(I3
g101
tp4762
a(I0
g101
tp4763
a(I1
g96
tp4764
a(I2
g96
tp4765
a(I3
g96
tp4766
a(I0
g101
tp4767
a(I1
g94
tp4768
a(I2
g96
tp4769
a(I3
g96
tp4770
a(I0
g131
tp4771
a(I1
g131
tp4772
a(I2
g96
tp4773
a(I3
g101
tp4774
a(I0
g117
tp4775
a(I1
g101
tp4776
a(I2
g101
tp4777
a(I3
g96
tp4778
a(I0
g117
tp4779
a(I1
g96
tp4780
a(I2
g96
tp4781
a(I3
g96
tp4782
a(I0
g94
tp4783
a(I1
g101
tp4784
a(I2
g94
tp4785
a(I3
g96
tp4786
a(I0
g117
tp4787
a(I1
g96
tp4788
a(I2
g131
tp4789
a(I3
g96
tp4790
a(I0
g117
tp4791
a(I1
g96
tp4792
a(I2
g101
tp4793
a(I3
g94
tp4794
a(I0
g94
tp4795
a(I1
g96
tp4796
a(I2
g96
tp4797
a(I3
g96
tp4798
a(I0
g96
tp4799
a(I1
g94
tp4800
a(I2
g94
tp4801
a(I3
g94
tp4802
a(I0
g131
tp4803
a(I1
g96
tp4804
a(I2
g96
tp4805
a(I3
g96
tp4806
a(I0
g117
tp4807
a(I1
g94
tp4808
a(I2
g101
tp4809
a(I3
g96
tp4810
a(I0
g101
tp4811
a(I1
g131
tp4812
a(I2
g131
tp4813
a(I3
g96
tp4814
a(I0
g117
tp4815
a(I1
g101
tp4816
a(I2
g131
tp4817
a(I3
g96
tp4818
a(I0
g94
tp4819
a(I1
g96
tp4820
a(I2
g94
tp4821
a(I3
g96
tp4822
a(I0
g117
tp4823
a(I1
g94
tp4824
a(I2
g131
tp4825
a(I3
g101
tp4826
a(I0
g117
tp4827
a(I1
g131
tp4828
a(I2
g131
tp4829
a(I3
g96
tp4830
a(I0
g101
tp4831
a(I1
g131
tp4832
a(I2
g131
tp4833
a(I3
g94
tp4834
a(I0
g131
tp4835
a(I1
g96
tp4836
a(I2
g131
tp4837
a(I3
g131
tp4838
a(I0
g94
tp4839
a(I1
g101
tp4840
a(I2
g131
tp4841
a(I3
g101
tp4842
a(I0
g117
tp4843
a(I1
g96
tp4844
a(I2
g101
tp4845
a(I3
g131
tp4846
a(I0
g96
tp4847
a(I1
g94
tp4848
a(I2
g101
tp4849
a(I3
g94
tp4850
a(I0
g94
tp4851
a(I1
g131
tp4852
a(I2
g96
tp4853
a(I3
g96
tp4854
a(I0
g131
tp4855
a(I1
g131
tp4856
a(I2
g101
tp4857
a(I3
g96
tp4858
a(I0
g117
tp4859
a(I1
g96
tp4860
a(I2
g131
tp4861
a(I3
g101
tp4862
a(I0
g96
tp4863
a(I1
g96
tp4864
a(I2
g131
tp4865
a(I3
g131
tp4866
a(I0
g96
tp4867
a(I1
g101
tp4868
a(I2
g101
tp4869
a(I3
g94
tp4870
a(I0
g131
tp4871
a(I1
g131
tp4872
a(I2
g101
tp4873
a(I3
g96
tp4874
a(I0
g101
tp4875
a(I1
g94
tp4876
a(I2
g101
tp4877
a(I3
g101
tp4878
a(I0
g101
tp4879
a(I1
g131
tp4880
a(I2
g131
tp4881
a(I3
g131
tp4882
a(I0
g94
tp4883
a(I1
g96
tp4884
a(I2
g94
tp4885
a(I3
g94
tp4886
a(I0
g96
tp4887
a(I1
g96
tp4888
a(I2
g96
tp4889
a(I3
g131
tp4890
a(I0
g117
tp4891
a(I1
g101
tp4892
a(I2
g101
tp4893
a(I3
g101
tp4894
a(I0
g101
tp4895
a(I1
g131
tp4896
a(I2
g131
tp4897
a(I3
g96
tp4898
a(I0
g131
tp4899
a(I1
g94
tp4900
a(I2
g94
tp4901
a(I3
g94
tp4902
a(I0
g94
tp4903
a(I1
g131
tp4904
a(I2
g96
tp4905
a(I3
g96
tp4906
a(I0
g117
tp4907
a(I1
g96
tp4908
a(I2
g101
tp4909
a(I3
g101
tp4910
a(I0
g96
tp4911
a(I1
g101
tp4912
a(I2
g131
tp4913
a(I3
g131
tp4914
a(I0
g117
tp4915
a(I1
g101
tp4916
a(I2
g94
tp4917
a(I3
g94
tp4918
a(I0
g101
tp4919
a(I1
g131
tp4920
a(I2
g96
tp4921
a(I3
g131
tp4922
a(I0
g101
tp4923
a(I1
g101
tp4924
a(I2
g94
tp4925
a(I3
g101
tp4926
a(I0
g101
tp4927
a(I1
g131
tp4928
a(I2
g94
tp4929
a(I3
g96
tp4930
a(I0
g131
tp4931
a(I1
g94
tp4932
a(I2
g131
tp4933
a(I3
g94
tp4934
a(I0
g96
tp4935
a(I1
g96
tp4936
a(I2
g94
tp4937
a(I3
g96
tp4938
a(I0
g131
tp4939
a(I1
g101
tp4940
a(I2
g96
tp4941
a(I3
g101
tp4942
a(I0
g96
tp4943
a(I1
g131
tp4944
a(I2
g96
tp4945
a(I3
g131
tp4946
a(I0
g96
tp4947
a(I1
g94
tp4948
a(I2
g94
tp4949
a(I3
g94
tp4950
a(I0
g94
tp4951
a(I1
g131
tp4952
a(I2
g94
tp4953
a(I3
g96
tp4954
a(I0
g94
tp4955
a(I1
g94
tp4956
a(I2
g131
tp4957
a(I3
g101
tp4958
a(I0
g131
tp4959
a(I1
g94
tp4960
a(I2
g96
tp4961
a(I3
g131
tp4962
a(I0
g131
tp4963
a(I1
g131
tp4964
a(I2
g96
tp4965
a(I3
g94
tp4966
a(I0
g94
tp4967
a(I1
g101
tp4968
a(I2
g101
tp4969
a(I3
g96
tp4970
a(I0
g117
tp4971
a(I1
g96
tp4972
a(I2
g131
tp4973
a(I3
g101
tp4974
a(I0
g117
tp4975
a(I1
g94
tp4976
a(I2
g94
tp4977
a(I3
g131
tp4978
a(I0
g117
tp4979
a(I1
g131
tp4980
a(I2
g131
tp4981
a(I3
g131
tp4982
a(I0
g94
tp4983
a(I1
g131
tp4984
a(I2
g96
tp4985
a(I3
g94
tp4986
a(I0
g96
tp4987
a(I1
g101
tp4988
a(I2
g96
tp4989
a(I3
g96
tp4990
a(I0
g96
tp4991
a(I1
g96
tp4992
a(I2
g96
tp4993
a(I3
g101
tp4994
a(I0
g131
tp4995
a(I1
g94
tp4996
a(I2
g96
tp4997
a(I3
g96
tp4998
a(I0
g117
tp4999
a(I1
g96
tp5000
a(I2
g96
tp5001
a(I3
g94
tp5002
a(I0
g101
tp5003
a(I1
g101
tp5004
a(I2
g96
tp5005
a(I3
g131
tp5006
a(I0
g117
tp5007
a(I1
g131
tp5008
a(I2
g96
tp5009
a(I3
g101
tp5010
a(I0
g117
tp5011
a(I1
g101
tp5012
a(I2
g96
tp5013
a(I3
g131
tp5014
a(I0
g131
tp5015
a(I1
g96
tp5016
a(I2
g101
tp5017
a(I3
g94
tp5018
a(I0
g96
tp5019
a(I1
g96
tp5020
a(I2
g131
tp5021
a(I3
g96
tp5022
a(I0
g94
tp5023
a(I1
g96
tp5024
a(I2
g131
tp5025
a(I3
g101
tp5026
a(I0
g96
tp5027
a(I1
g101
tp5028
a(I2
g94
tp5029
a(I3
g96
tp5030
a(I0
g101
tp5031
a(I1
g131
tp5032
a(I2
g96
tp5033
a(I3
g94
tp5034
a(I0
g117
tp5035
a(I1
g94
tp5036
a(I2
g101
tp5037
a(I3
g131
tp5038
a(I0
g96
tp5039
a(I1
g96
tp5040
a(I2
g131
tp5041
a(I3
g101
tp5042
a(I0
g117
tp5043
a(I1
g101
tp5044
a(I2
g94
tp5045
a(I3
g96
tp5046
a(I0
g101
tp5047
a(I1
g101
tp5048
a(I2
g131
tp5049
a(I3
g94
tp5050
a(I0
g94
tp5051
a(I1
g131
tp5052
a(I2
g131
tp5053
a(I3
g131
tp5054
a(I0
g96
tp5055
a(I1
g94
tp5056
a(I2
g131
tp5057
a(I3
g101
tp5058
a(I0
g96
tp5059
a(I1
g94
tp5060
a(I2
g131
tp5061
a(I3
g96
tp5062
a(I0
g117
tp5063
a(I1
g96
tp5064
a(I2
g131
tp5065
a(I3
g94
tp5066
a(I0
g101
tp5067
a(I1
g96
tp5068
a(I2
g101
tp5069
a(I3
g131
tp5070
a(I0
g96
tp5071
a(I1
g96
tp5072
a(I2
g101
tp5073
a(I3
g101
tp5074
a(I0
g131
tp5075
a(I1
g96
tp5076
a(I2
g96
tp5077
a(I3
g131
tp5078
a(I0
g131
tp5079
a(I1
g96
tp5080
a(I2
g94
tp5081
a(I3
g94
tp5082
a(I0
g94
tp5083
a(I1
g101
tp5084
a(I2
g131
tp5085
a(I3
g96
tp5086
a(I0
g96
tp5087
a(I1
g131
tp5088
a(I2
g101
tp5089
a(I3
g101
tp5090
a(I0
g101
tp5091
a(I1
g94
tp5092
a(I2
g131
tp5093
a(I3
g96
tp5094
a(I0
g131
tp5095
a(I1
g131
tp5096
a(I2
g101
tp5097
a(I3
g94
tp5098
a(I0
g117
tp5099
a(I1
g94
tp5100
a(I2
g96
tp5101
a(I3
g131
tp5102
a(I0
g131
tp5103
a(I1
g94
tp5104
a(I2
g96
tp5105
a(I3
g101
tp5106
a(I0
g101
tp5107
a(I1
g131
tp5108
a(I2
g96
tp5109
a(I3
g96
tp5110
a(I0
g131
tp5111
a(I1
g131
tp5112
a(I2
g101
tp5113
a(I3
g94
tp5114
a(I0
g96
tp5115
a(I1
g96
tp5116
a(I2
g101
tp5117
a(I3
g131
tp5118
a(I0
g131
tp5119
a(I1
g96
tp5120
a(I2
g131
tp5121
a(I3
g101
tp5122
a(I0
g101
tp5123
a(I1
g101
tp5124
a(I2
g131
tp5125
a(I3
g96
tp5126
a(I0
g96
tp5127
a(I1
g131
tp5128
a(I2
g101
tp5129
a(I3
g94
tp5130
a(I0
g94
tp5131
a(I1
g94
tp5132
a(I2
g101
tp5133
a(I3
g131
tp5134
a(I0
g96
tp5135
a(I1
g131
tp5136
a(I2
g101
tp5137
a(I3
g101
tp5138
a(I0
g94
tp5139
a(I1
g96
tp5140
a(I2
g101
tp5141
a(I3
g96
tp5142
a(I0
g131
tp5143
a(I1
g101
tp5144
a(I2
g131
tp5145
a(I3
g94
tp5146
a(I0
g131
tp5147
a(I1
g96
tp5148
a(I2
g94
tp5149
a(I3
g131
tp5150
a(I0
g131
tp5151
a(I1
g101
tp5152
a(I2
g96
tp5153
a(I3
g101
tp5154
a(I0
g131
tp5155
a(I1
g96
tp5156
a(I2
g96
tp5157
a(I3
g131
tp5158
a(I0
g96
tp5159
a(I1
g101
tp5160
a(I2
g96
tp5161
a(I3
g94
tp5162
a(I0
g131
tp5163
a(I1
g131
tp5164
a(I2
g94
tp5165
a(I3
g96
tp5166
a(I0
g94
tp5167
a(I1
g94
tp5168
a(I2
g96
tp5169
a(I3
g101
tp5170
a(I0
g94
tp5171
a(I1
g96
tp5172
a(I2
g101
tp5173
a(I3
g96
tp5174
a(I0
g96
tp5175
a(I1
g96
tp5176
a(I2
g96
tp5177
a(I3
g94
tp5178
a(I0
g101
tp5179
a(I1
g101
tp5180
a(I2
g96
tp5181
a(I3
g131
tp5182
a(I0
g94
tp5183
a(I1
g96
tp5184
a(I2
g96
tp5185
a(I3
g101
tp5186
a(I0
g101
tp5187
a(I1
g101
tp5188
a(I2
g94
tp5189
a(I3
g131
tp5190
a(I0
g131
tp5191
a(I1
g101
tp5192
a(I2
g131
tp5193
a(I3
g94
tp5194
a(I0
g101
tp5195
a(I1
g96
tp5196
a(I2
g131
tp5197
a(I3
g96
tp5198
a(I0
g94
tp5199
a(I1
g96
tp5200
a(I2
g131
tp5201
a(I3
g101
tp5202
a(I0
g131
tp5203
a(I1
g96
tp5204
a(I2
g131
tp5205
a(I3
g96
tp5206
a(I0
g101
tp5207
a(I1
g94
tp5208
a(I2
g101
tp5209
a(I3
g94
tp5210
a(I0
g94
tp5211
a(I1
g131
tp5212
a(I2
g131
tp5213
a(I3
g131
tp5214
a(I0
g96
tp5215
a(I1
g101
tp5216
a(I2
g131
tp5217
a(I3
g101
tp5218
a(I0
g94
tp5219
a(I1
g131
tp5220
a(I2
g131
tp5221
a(I3
g131
tp5222
a(I0
g117
tp5223
a(I1
g94
tp5224
a(I2
g94
tp5225
a(I3
g94
tp5226
a(I0
g96
tp5227
a(I1
g96
tp5228
a(I2
g131
tp5229
a(I3
g96
tp5230
a(I0
g101
tp5231
a(I1
g101
tp5232
a(I2
g94
tp5233
a(I3
g101
tp5234
a(I0
g94
tp5235
a(I1
g96
tp5236
a(I2
g94
tp5237
a(I3
g131
tp5238
a(I0
g117
tp5239
a(I1
g94
tp5240
a(I2
g94
tp5241
a(I3
g94
tp5242
a(I0
g96
tp5243
a(I1
g131
tp5244
a(I2
g94
tp5245
a(I3
g96
tp5246
a(I0
g131
tp5247
a(I1
g101
tp5248
a(I2
g96
tp5249
a(I3
g101
tp5250
a(I0
g117
tp5251
a(I1
g96
tp5252
a(I2
g96
tp5253
a(I3
g96
tp5254
a(I0
g101
tp5255
a(I1
g94
tp5256
a(I2
g96
tp5257
a(I3
g94
tp5258
a(I0
g96
tp5259
a(I1
g131
tp5260
a(I2
g94
tp5261
a(I3
g131
tp5262
a(I0
g96
tp5263
a(I1
g101
tp5264
a(I2
g96
tp5265
a(I3
g101
tp5266
a(I0
g94
tp5267
a(I1
g96
tp5268
a(I2
g96
tp5269
a(I3
g131
tp5270
a(I0
g101
tp5271
a(I1
g94
tp5272
a(I2
g101
tp5273
a(I3
g94
tp5274
a(I0
g131
tp5275
a(I1
g131
tp5276
a(I2
g96
tp5277
a(I3
g96
tp5278
a(I0
g131
tp5279
a(I1
g101
tp5280
a(I2
g96
tp5281
a(I3
g101
tp5282
a(I0
g131
tp5283
a(I1
g96
tp5284
a(I2
g101
tp5285
a(I3
g96
tp5286
a(I0
g96
tp5287
a(I1
g94
tp5288
a(I2
g96
tp5289
a(I3
g94
tp5290
a(I0
g131
tp5291
a(I1
g131
tp5292
a(I2
g94
tp5293
a(I3
g131
tp5294
a(I0
g117
tp5295
a(I1
g101
tp5296
a(I2
g131
tp5297
a(I3
g101
tp5298
a(I0
g117
tp5299
a(I1
g96
tp5300
a(I2
g131
tp5301
a(I3
g131
tp5302
a(I0
g101
tp5303
a(I1
g94
tp5304
a(I2
g131
tp5305
a(I3
g94
tp5306
a(I0
g131
tp5307
a(I1
g131
tp5308
a(I2
g94
tp5309
a(I3
g96
tp5310
a(I0
g94
tp5311
a(I1
g101
tp5312
a(I2
g131
tp5313
a(I3
g96
tp5314
a(I0
g117
tp5315
a(I1
g96
tp5316
a(I2
g131
tp5317
a(I3
g101
tp5318
a(I0
g94
tp5319
a(I1
g94
tp5320
a(I2
g94
tp5321
a(I3
g131
tp5322
a(I0
g96
tp5323
a(I1
g131
tp5324
a(I2
g94
tp5325
a(I3
g94
tp5326
a(I0
g101
tp5327
a(I1
g101
tp5328
a(I2
g131
tp5329
a(I3
g96
tp5330
a(I0
g131
tp5331
a(I1
g96
tp5332
a(I2
g131
tp5333
a(I3
g101
tp5334
a(I0
g96
tp5335
a(I1
g94
tp5336
a(I2
g96
tp5337
a(I3
g131
tp5338
a(I0
g96
tp5339
a(I1
g94
tp5340
a(I2
g96
tp5341
a(I3
g131
tp5342
a(I0
g117
tp5343
a(I1
g131
tp5344
a(I2
g96
tp5345
a(I3
g94
tp5346
a(I0
g96
tp5347
a(I1
g101
tp5348
a(I2
g96
tp5349
a(I3
g96
tp5350
a(I0
g96
tp5351
a(I1
g101
tp5352
a(I2
g96
tp5353
a(I3
g101
tp5354
a(I0
g101
tp5355
a(I1
g131
tp5356
a(I2
g96
tp5357
a(I3
g131
tp5358
a(I0
g96
tp5359
a(I1
g131
tp5360
a(I2
g96
tp5361
a(I3
g94
tp5362
a(I0
g96
tp5363
a(I1
g131
tp5364
a(I2
g96
tp5365
a(I3
g96
tp5366
a(I0
g94
tp5367
a(I1
g94
tp5368
a(I2
g101
tp5369
a(I3
g101
tp5370
a(I0
g101
tp5371
a(I1
g96
tp5372
a(I2
g131
tp5373
a(I3
g96
tp5374
a(I0
g94
tp5375
a(I1
g96
tp5376
a(I2
g131
tp5377
a(I3
g94
tp5378
a(I0
g96
tp5379
a(I1
g101
tp5380
a(I2
g94
tp5381
a(I3
g131
tp5382
a(I0
g131
tp5383
a(I1
g131
tp5384
a(I2
g131
tp5385
a(I3
g101
tp5386
a(I0
g117
tp5387
a(I1
g94
tp5388
a(I2
g131
tp5389
a(I3
g131
tp5390
a(I0
g131
tp5391
a(I1
g96
tp5392
a(I2
g131
tp5393
a(I3
g94
tp5394
a(I0
g96
tp5395
a(I1
g94
tp5396
a(I2
g131
tp5397
a(I3
g96
tp5398
a(I0
g101
tp5399
a(I1
g96
tp5400
a(I2
g101
tp5401
a(I3
g101
tp5402
a(I0
g96
tp5403
a(I1
g101
tp5404
a(I2
g131
tp5405
a(I3
g96
tp5406
a(I0
g94
tp5407
a(I1
g101
tp5408
a(I2
g94
tp5409
a(I3
g94
tp5410
a(I0
g101
tp5411
a(I1
g131
tp5412
a(I2
g96
tp5413
a(I3
g131
tp5414
a(I0
g117
tp5415
a(I1
g131
tp5416
a(I2
g96
tp5417
a(I3
g101
tp5418
a(I0
g94
tp5419
a(I1
g131
tp5420
a(I2
g96
tp5421
a(I3
g96
tp5422
a(I0
g101
tp5423
a(I1
g131
tp5424
a(I2
g96
tp5425
a(I3
g94
tp5426
a(I0
g94
tp5427
a(I1
g94
tp5428
a(I2
g96
tp5429
a(I3
g131
tp5430
a(I0
g131
tp5431
a(I1
g96
tp5432
a(I2
g101
tp5433
a(I3
g101
tp5434
a(I0
g117
tp5435
a(I1
g96
tp5436
a(I2
g96
tp5437
a(I3
g131
tp5438
a(I0
g96
tp5439
a(I1
g96
tp5440
a(I2
g94
tp5441
a(I3
g94
tp5442
a(I0
g117
tp5443
a(I1
g101
tp5444
a(I2
g96
tp5445
a(I3
g96
tp5446
a(I0
g117
tp5447
a(I1
g96
tp5448
a(I2
g101
tp5449
a(I3
g101
tp5450
a(I0
g94
tp5451
a(I1
g96
tp5452
a(I2
g131
tp5453
a(I3
g131
tp5454
a(I0
g94
tp5455
a(I1
g94
tp5456
a(I2
g131
tp5457
a(I3
g94
tp5458
a(I0
g117
tp5459
a(I1
g131
tp5460
a(I2
g94
tp5461
a(I3
g131
tp5462
a(I0
g96
tp5463
a(I1
g101
tp5464
a(I2
g96
tp5465
a(I3
g131
tp5466
a(I0
g96
tp5467
a(I1
g131
tp5468
a(I2
g101
tp5469
a(I3
g131
tp5470
a(I0
g101
tp5471
a(I1
g94
tp5472
a(I2
g131
tp5473
a(I3
g131
tp5474
a(I0
g94
tp5475
a(I1
g96
tp5476
a(I2
g94
tp5477
a(I3
g131
tp5478
a(I0
g94
tp5479
a(I1
g101
tp5480
a(I2
g96
tp5481
a(I3
g101
tp5482
a(I0
g131
tp5483
a(I1
g96
tp5484
a(I2
g96
tp5485
a(I3
g96
tp5486
a(I0
g101
tp5487
a(I1
g94
tp5488
a(I2
g101
tp5489
a(I3
g101
tp5490
a(I0
g131
tp5491
a(I1
g131
tp5492
a(I2
g131
tp5493
a(I3
g96
tp5494
a(I0
g117
tp5495
a(I1
g101
tp5496
a(I2
g94
tp5497
a(I3
g96
tp5498
a(I0
g131
tp5499
a(I1
g96
tp5500
a(I2
g131
tp5501
a(I3
g101
tp5502
a(I0
g94
tp5503
a(I1
g94
tp5504
a(I2
g101
tp5505
a(I3
g96
tp5506
a(I0
g101
tp5507
a(I1
g131
tp5508
a(I2
g96
tp5509
a(I3
g96
tp5510
a(I0
g101
tp5511
a(I1
g101
tp5512
a(I2
g94
tp5513
a(I3
g101
tp5514
a(I0
g101
tp5515
a(I1
g96
tp5516
a(I2
g131
tp5517
a(I3
g131
tp5518
a(I0
g117
tp5519
a(I1
g94
tp5520
a(I2
g131
tp5521
a(I3
g101
tp5522
a(I0
g131
tp5523
a(I1
g94
tp5524
a(I2
g131
tp5525
a(I3
g96
tp5526
a(I0
g101
tp5527
a(I1
g131
tp5528
a(I2
g131
tp5529
a(I3
g94
tp5530
a(I0
g96
tp5531
a(I1
g101
tp5532
a(I2
g131
tp5533
a(I3
g94
tp5534
a(I0
g96
tp5535
a(I1
g101
tp5536
a(I2
g101
tp5537
a(I3
g131
tp5538
a(I0
g94
tp5539
a(I1
g96
tp5540
a(I2
g131
tp5541
a(I3
g131
tp5542
a(I0
g96
tp5543
a(I1
g94
tp5544
a(I2
g94
tp5545
a(I3
g94
tp5546
a(I0
g131
tp5547
a(I1
g131
tp5548
a(I2
g131
tp5549
a(I3
g131
tp5550
a(I0
g131
tp5551
a(I1
g101
tp5552
a(I2
g96
tp5553
a(I3
g101
tp5554
a(I0
g101
tp5555
a(I1
g131
tp5556
a(I2
g101
tp5557
a(I3
g96
tp5558
a(I0
g94
tp5559
a(I1
g94
tp5560
a(I2
g101
tp5561
a(I3
g94
tp5562
a(I0
g101
tp5563
a(I1
g94
tp5564
a(I2
g96
tp5565
a(I3
g131
tp5566
a(I0
g94
tp5567
a(I1
g96
tp5568
a(I2
g101
tp5569
a(I3
g131
tp5570
a(I0
g94
tp5571
a(I1
g101
tp5572
a(I2
g131
tp5573
a(I3
g94
tp5574
a(I0
g101
tp5575
a(I1
g101
tp5576
a(I2
g131
tp5577
a(I3
g94
tp5578
a(I0
g101
tp5579
a(I1
g96
tp5580
a(I2
g101
tp5581
a(I3
g96
tp5582
a(I0
g96
tp5583
a(I1
g94
tp5584
a(I2
g101
tp5585
a(I3
g96
tp5586
a(I0
g96
tp5587
a(I1
g131
tp5588
a(I2
g101
tp5589
a(I3
g96
tp5590
a(I0
g94
tp5591
a(I1
g101
tp5592
a(I2
g131
tp5593
a(I3
g96
tp5594
a(I0
g101
tp5595
a(I1
g96
tp5596
a(I2
g94
tp5597
a(I3
g96
tp5598
a(I0
g96
tp5599
a(I1
g94
tp5600
a(I2
g94
tp5601
a(I3
g96
tp5602
a(I0
g94
tp5603
a(I1
g131
tp5604
a(I2
g96
tp5605
a(I3
g101
tp5606
a(I0
g94
tp5607
a(I1
g94
tp5608
a(I2
g94
tp5609
a(I3
g131
tp5610
a(I0
g94
tp5611
a(I1
g131
tp5612
a(I2
g131
tp5613
a(I3
g131
tp5614
a(I0
g94
tp5615
a(I1
g131
tp5616
a(I2
g94
tp5617
a(I3
g94
tp5618
a(I0
g94
tp5619
a(I1
g131
tp5620
a(I2
g131
tp5621
a(I3
g96
tp5622
a(I0
g117
tp5623
a(I1
g94
tp5624
a(I2
g131
tp5625
as.