(dp1
S'layout'
p2
(ilayout
Layout
p3
(dp4
S'numGhosts'
p5
I3
sS'food'
p6
(igame
Grid
p7
(dp8
S'CELLS_PER_INT'
p9
I30
sS'width'
p10
I25
sS'data'
p11
(lp12
(lp13
I00
aI00
aI00
aI00
aI00
aI00
aI00
aI00
aI00
aI00
aI00
aI00
aa(lp14
I00
aI00
aI00
aI00
aI00
aI01
aI00
aI00
aI00
aI01
aI01
aI00
aa(lp15
I00
aI00
aI00
aI00
aI00
aI00
aI00
aI00
aI00
aI00
aI00
aI00
aa(lp16
I00
aI00
aI00
aI01
aI00
aI01
aI00
aI01
aI00
aI00
aI01
aI00
aa(lp17
I00
aI00
aI00
aI01
aI00
aI00
aI00
aI00
aI00
aI00
aI00
aI00
aa(lp18
I00
aI00
aI01
aI00
aI00
aI01
aI00
aI01
aI01
aI00
aI00
aI00
aa(lp19
I00
aI01
aI00
aI01
aI00
aI01
aI00
aI01
aI01
aI00
aI01
aI00
aa(lp20
I00
aI00
aI01
aI00
aI00
aI01
aI00
aI01
aI00
aI01
aI01
aI00
aa(lp21
I00
aI01
aI01
aI01
aI01
aI01
aI00
aI01
aI01
aI00
aI01
aI00
aa(lp22
I00
aI01
aI01
aI00
aI01
aI01
aI00
aI01
aI00
aI00
aI00
aI00
aa(lp23
I00
aI00
aI00
aI01
aI00
aI01
aI00
aI00
aI01
aI00
aI00
aI00
aa(lp24
I00
aI00
aI00
aI00
aI00
aI01
aI00
aI01
aI00
aI00
aI00
aI00
aa(lp25
I00
aI01
aI00
aI01
aI01
aI01
aI00
aI01
aI00
aI00
aI00
aI00
aa(lp26
I00
aI01
aI00
aI01
aI00
aI00
aI00
aI01
aI00
aI00
aI00
aI00
aa(lp27
I00
aI01
aI00
aI01
aI00
aI00
aI01
aI01
aI00
aI00
aI00
aI00
aa(lp28
I00
aI01
aI00
aI01
aI00
aI01
aI00
aI01
aI00
aI01
aI00
aI00
aa(lp29
I00
aI00
aI00
aI01
aI00
aI00
aI01
aI01
aI00
aI00
aI00
aI00
aa(lp30
I00
aI00
aI01
aI00
aI00
aI01
aI01
aI00
aI00
aI01
aI01
aI00
aa(lp31
I00
aI00
aI00
aI00
aI00
aI00
aI00
aI00
aI00
aI01
aI00
aI00
aa(lp32
I00
aI00
aI01
aI01
aI01
aI01
aI00
aI01
aI00
aI00
aI00
aI00
aa(lp33
I00
aI00
aI01
aI01
aI00
aI01
aI00
aI00
aI00
aI00
aI00
aI00
aa(lp34
I00
aI00
aI00
aI00
aI00
aI00
aI00
aI01
aI00
aI00
aI00
aI00
aa(lp35
I00
aI00
aI00
aI01
aI00
aI00
aI00
aI01
aI00
aI00
aI00
aI00
aa(lp36
I00
aI00
aI00
aI00
aI00
aI01
aI00
aI01
aI00
aI00
aI00
aI00
aa(lp37
I00
aI00
aI00
aI00
aI00
aI00
aI00
aI00
aI00
aI00
aI00
aI00
aasS'height'
p38
I12
sbsS'agentPositions'
p39
(lp40
(I01
(I20
I1
tp41
tp42
a(I00
(I21
I10
tp43
tp44
a(I00
(I22
I10
tp45
tp46
a(I00
(I23
I10
tp47
tp48
asg38
I12
sg10
I25
sS'walls'
p49
(igame
Grid
p50
(dp51
g9
I30
sg10
I25
sg11
(lp52
(lp53
I01
aI01
aI01
aI01
aI01
aI01
aI01
aI01
aI01
aI01
aI01
aI01
aa(lp54
I01
aI00
aI00
aI00
aI01
aI00
aI00
aI00
aI01
aI00
aI00
aI01
aa(lp55
I01
aI00
aI00
aI00
aI01
aI00
aI00
aI00
aI01
aI00
aI00
aI01
aa(lp56
I01
aI00
aI00
aI00
aI01
aI00
aI00
aI00
aI01
aI00
aI00
aI01
aa(lp57
I01
aI00
aI00
aI00
aI01
aI00
aI00
aI00
aI01
aI01
aI00
aI01
aa(lp58
I01
aI00
aI00
aI00
aI01
aI00
aI00
aI00
aI00
aI01
aI00
aI01
aa(lp59
I01
aI00
aI00
aI00
aI01
aI00
aI00
aI00
aI00
aI01
aI00
aI01
aa(lp60
I01
aI01
aI00
aI01
aI01
aI00
aI01
aI00
aI00
aI00
aI00
aI01
aa(lp61
I01
aI00
aI00
aI00
aI00
aI00
aI01
aI00
aI00
aI00
aI00
aI01
aa(lp62
I01
aI00
aI00
aI00
aI00
aI00
aI00
aI00
aI00
aI01
aI00
aI01
aa(lp63
I01
aI00
aI00
aI00
aI00
aI00
aI00
aI00
aI00
aI01
aI01
aI01
aa(lp64
I01
aI00
aI00
aI00
aI00
aI00
aI00
aI00
aI00
aI00
aI00
aI01
aa(lp65
I01
aI00
aI00
aI00
aI00
aI00
aI00
aI00
aI00
aI00
aI00
aI01
aa(lp66
I01
aI00
aI00
aI00
aI00
aI01
aI00
aI00
aI00
aI00
aI00
aI01
aa(lp67
I01
aI00
aI01
aI00
aI00
aI00
aI00
aI00
aI00
aI00
aI00
aI01
aa(lp68
I01
aI00
aI01
aI00
aI00
aI00
aI00
aI00
aI00
aI00
aI00
aI01
aa(lp69
I01
aI00
aI00
aI00
aI00
aI00
aI00
aI00
aI01
aI00
aI01
aI01
aa(lp70
I01
aI00
aI00
aI00
aI00
aI00
aI00
aI00
aI01
aI00
aI00
aI01
aa(lp71
I01
aI00
aI00
aI00
aI00
aI00
aI01
aI01
aI01
aI00
aI00
aI01
aa(lp72
I01
aI00
aI00
aI00
aI00
aI00
aI00
aI00
aI00
aI00
aI00
aI01
aa(lp73
I01
aI00
aI00
aI00
aI00
aI00
aI01
aI00
aI00
aI00
aI00
aI01
aa(lp74
I01
aI00
aI00
aI00
aI00
aI00
aI01
aI00
aI00
aI00
aI00
aI01
aa(lp75
I01
aI00
aI00
aI00
aI01
aI00
aI01
aI00
aI00
aI00
aI00
aI01
aa(lp76
I01
aI00
aI00
aI01
aI01
aI00
aI01
aI00
aI00
aI00
aI00
aI01
aa(lp77
I01
aI01
aI01
aI01
aI01
aI01
aI01
aI01
aI01
aI01
aI01
aI01
aasg38
I12
sbsS'layoutText'
p78
(lp79
S'%%%%%%%%%%%%%%%%%%%%%%%%%'
p80
aS'%. .  ... %     %.   GGG%'
p81
aS'%.  %%%. %%    . ..     %'
p82
aS'%%%%%.. . .     %%%     %'
p83
aS'%  . ..... ...... %. ...%'
p84
aS'%      %%     . ..% %%%%%'
p85
aS'%. . ........% . . ..  .%'
p86
aS'%%%%%%%%..  .      .  %%%'
p87
aS'%  .. .%. . .....  .. .%%'
p88
aS'%    . ...    %% . ..   %'
p89
aS'%     .%..  ....    P   %'
p90
aS'%%%%%%%%%%%%%%%%%%%%%%%%%'
p91
asbsS'actions'
p92
(lp93
(I0
S'North'
p94
tp95
a(I1
S'West'
p96
tp97
a(I2
S'South'
p98
tp99
a(I3
g96
tp100
a(I0
g96
tp101
a(I1
g96
tp102
a(I2
g96
tp103
a(I3
g96
tp104
a(I0
g94
tp105
a(I1
g98
tp106
a(I2
g96
tp107
a(I3
g96
tp108
a(I0
S'East'
p109
tp110
a(I1
g96
tp111
a(I2
g96
tp112
a(I3
g98
tp113
a(I0
g94
tp114
a(I1
g96
tp115
a(I2
g96
tp116
a(I3
g96
tp117
a(I0
g96
tp118
a(I1
g96
tp119
a(I2
g96
tp120
a(I3
g98
tp121
a(I0
g94
tp122
a(I1
g96
tp123
a(I2
g96
tp124
a(I3
g109
tp125
a(I0
g109
tp126
a(I1
g98
tp127
a(I2
g96
tp128
a(I3
g98
tp129
a(I0
g96
tp130
a(I1
g96
tp131
a(I2
g98
tp132
a(I3
g96
tp133
a(I0
S'Stop'
p134
tp135
a(I1
g96
tp136
a(I2
g98
tp137
a(I3
g98
tp138
a(I0
g109
tp139
a(I1
g96
tp140
a(I2
g98
tp141
a(I3
g98
tp142
a(I0
g109
tp143
a(I1
g98
tp144
a(I2
g96
tp145
a(I3
g98
tp146
a(I0
g98
tp147
a(I1
g98
tp148
a(I2
g96
tp149
a(I3
g96
tp150
a(I0
g134
tp151
a(I1
g98
tp152
a(I2
g96
tp153
a(I3
g96
tp154
a(I0
g96
tp155
a(I1
g98
tp156
a(I2
g96
tp157
a(I3
g96
tp158
a(I0
g94
tp159
a(I1
g98
tp160
a(I2
g98
tp161
a(I3
g96
tp162
a(I0
g98
tp163
a(I1
g98
tp164
a(I2
g98
tp165
a(I3
g96
tp166
a(I0
g134
tp167
a(I1
g96
tp168
a(I2
g96
tp169
a(I3
g96
tp170
a(I0
g109
tp171
a(I1
g96
tp172
a(I2
g94
tp173
a(I3
g96
tp174
a(I0
g98
tp175
a(I1
g96
tp176
a(I2
g94
tp177
a(I3
g96
tp178
a(I0
g94
tp179
a(I1
g96
tp180
a(I2
g94
tp181
a(I3
g96
tp182
a(I0
g134
tp183
a(I1
g96
tp184
a(I2
g109
tp185
a(I3
g96
tp186
a(I0
g94
tp187
a(I1
g96
tp188
a(I2
g98
tp189
a(I3
g96
tp190
a(I0
g134
tp191
a(I1
g98
tp192
a(I2
g98
tp193
a(I3
g98
tp194
a(I0
g96
tp195
a(I1
g96
tp196
a(I2
g96
tp197
a(I3
g98
tp198
a(I0
g109
tp199
a(I1
g96
tp200
a(I2
g94
tp201
a(I3
g96
tp202
a(I0
g98
tp203
a(I1
g96
tp204
a(I2
g94
tp205
a(I3
g96
tp206
a(I0
g98
tp207
a(I1
g94
tp208
a(I2
g96
tp209
a(I3
g96
tp210
a(I0
g96
tp211
a(I1
g96
tp212
a(I2
g94
tp213
a(I3
g96
tp214
a(I0
g134
tp215
a(I1
g98
tp216
a(I2
g109
tp217
a(I3
g96
tp218
a(I0
g109
tp219
a(I1
g109
tp220
a(I2
g98
tp221
a(I3
g96
tp222
a(I0
g98
tp223
a(I1
g94
tp224
a(I2
g98
tp225
a(I3
g96
tp226
a(I0
g94
tp227
a(I1
g94
tp228
a(I2
g96
tp229
a(I3
g94
tp230
a(I0
g109
tp231
a(I1
g109
tp232
a(I2
g94
tp233
a(I3
g109
tp234
a(I0
g96
tp235
a(I1
g109
tp236
a(I2
g94
tp237
a(I3
g98
tp238
a(I0
g96
tp239
a(I1
g109
tp240
a(I2
g109
tp241
a(I3
g109
tp242
a(I0
g109
tp243
a(I1
g98
tp244
a(I2
g98
tp245
a(I3
g94
tp246
a(I0
g109
tp247
a(I1
g98
tp248
a(I2
g98
tp249
a(I3
g96
tp250
a(I0
g134
tp251
a(I1
g96
tp252
a(I2
g96
tp253
a(I3
g98
tp254
a(I0
g96
tp255
a(I1
g96
tp256
a(I2
g94
tp257
a(I3
g109
tp258
a(I0
g96
tp259
a(I1
g94
tp260
a(I2
g109
tp261
a(I3
g109
tp262
a(I0
g134
tp263
a(I1
g96
tp264
a(I2
g94
tp265
a(I3
g98
tp266
a(I0
g94
tp267
a(I1
g96
tp268
a(I2
g109
tp269
a(I3
g96
tp270
a(I0
g98
tp271
a(I1
g94
tp272
a(I2
g94
tp273
a(I3
g94
tp274
a(I0
g96
tp275
a(I1
g109
tp276
a(I2
g94
tp277
a(I3
g94
tp278
a(I0
g109
tp279
a(I1
g109
tp280
a(I2
g109
tp281
a(I3
g109
tp282
a(I0
g109
tp283
a(I1
g109
tp284
a(I2
g98
tp285
a(I3
g109
tp286
a(I0
g98
tp287
a(I1
g98
tp288
a(I2
g96
tp289
a(I3
g98
tp290
a(I0
g96
tp291
a(I1
g96
tp292
a(I2
g94
tp293
a(I3
g109
tp294
a(I0
g134
tp295
a(I1
g94
tp296
a(I2
g109
tp297
a(I3
g109
tp298
a(I0
g98
tp299
a(I1
g96
tp300
a(I2
g109
tp301
a(I3
g109
tp302
a(I0
g109
tp303
a(I1
g98
tp304
a(I2
g98
tp305
a(I3
g98
tp306
a(I0
g94
tp307
a(I1
g98
tp308
a(I2
g96
tp309
a(I3
g109
tp310
a(I0
g96
tp311
a(I1
g96
tp312
a(I2
g96
tp313
a(I3
g109
tp314
a(I0
g109
tp315
a(I1
g94
tp316
a(I2
g94
tp317
a(I3
g94
tp318
a(I0
g94
tp319
a(I1
g94
tp320
a(I2
g109
tp321
a(I3
g94
tp322
a(I0
g134
tp323
a(I1
g109
tp324
a(I2
g109
tp325
a(I3
g96
tp326
a(I0
g134
tp327
a(I1
g109
tp328
a(I2
g109
tp329
a(I3
g94
tp330
a(I0
g94
tp331
a(I1
g98
tp332
a(I2
g109
tp333
a(I3
g94
tp334
a(I0
g98
tp335
a(I1
g96
tp336
a(I2
g98
tp337
a(I3
g109
tp338
a(I0
g98
tp339
a(I1
g94
tp340
a(I2
g96
tp341
a(I3
g98
tp342
a(I0
g96
tp343
a(I1
g96
tp344
a(I2
g94
tp345
a(I3
g96
tp346
a(I0
g98
tp347
a(I1
g96
tp348
a(I2
g96
tp349
a(I3
g96
tp350
a(I0
g96
tp351
a(I1
g98
tp352
a(I2
g96
tp353
a(I3
g94
tp354
a(I0
g109
tp355
a(I1
g109
tp356
a(I2
g96
tp357
a(I3
g96
tp358
a(I0
g94
tp359
a(I1
g109
tp360
a(I2
g98
tp361
a(I3
g96
tp362
a(I0
g94
tp363
a(I1
g109
tp364
a(I2
g98
tp365
a(I3
g96
tp366
a(I0
g94
tp367
a(I1
g109
tp368
a(I2
g96
tp369
a(I3
g96
tp370
a(I0
g98
tp371
a(I1
g94
tp372
a(I2
g98
tp373
a(I3
g94
tp374
a(I0
g94
tp375
a(I1
g96
tp376
a(I2
g98
tp377
a(I3
g96
tp378
a(I0
g109
tp379
a(I1
g96
tp380
a(I2
g109
tp381
a(I3
g94
tp382
a(I0
g134
tp383
a(I1
g98
tp384
a(I2
g94
tp385
a(I3
g109
tp386
a(I0
g94
tp387
a(I1
g96
tp388
a(I2
g94
tp389
a(I3
g98
tp390
a(I0
g96
tp391
a(I1
g94
tp392
a(I2
g94
tp393
a(I3
g96
tp394
a(I0
g98
tp395
a(I1
g109
tp396
a(I2
g94
tp397
a(I3
g94
tp398
a(I0
g96
tp399
a(I1
g98
tp400
a(I2
g109
tp401
a(I3
g96
tp402
a(I0
g94
tp403
a(I1
g98
tp404
a(I2
g98
tp405
a(I3
g98
tp406
a(I0
g98
tp407
a(I1
g96
tp408
a(I2
g96
tp409
a(I3
g109
tp410
a(I0
g94
tp411
a(I1
g94
tp412
a(I2
g94
tp413
a(I3
g94
tp414
a(I0
g109
tp415
a(I1
g94
tp416
a(I2
g109
tp417
a(I3
g109
tp418
a(I0
g134
tp419
a(I1
g109
tp420
a(I2
g98
tp421
a(I3
g109
tp422
a(I0
g134
tp423
a(I1
g98
tp424
a(I2
g96
tp425
a(I3
g94
tp426
a(I0
g96
tp427
a(I1
g109
tp428
a(I2
g98
tp429
a(I3
g109
tp430
a(I0
g109
tp431
a(I1
g94
tp432
a(I2
g96
tp433
a(I3
g98
tp434
a(I0
g96
tp435
a(I1
g96
tp436
a(I2
g98
tp437
a(I3
g96
tp438
a(I0
g98
tp439
a(I1
g96
tp440
a(I2
g109
tp441
a(I3
g96
tp442
a(I0
g134
tp443
a(I1
g96
tp444
a(I2
g98
tp445
a(I3
g96
tp446
a(I0
g98
tp447
a(I1
g98
tp448
a(I2
g96
tp449
a(I3
g96
tp450
a(I0
g109
tp451
a(I1
g109
tp452
a(I2
g94
tp453
a(I3
g96
tp454
a(I0
g98
tp455
a(I1
g109
tp456
a(I2
g94
tp457
a(I3
g98
tp458
a(I0
g96
tp459
a(I1
g94
tp460
a(I2
g109
tp461
a(I3
g109
tp462
a(I0
g94
tp463
a(I1
g109
tp464
a(I2
g94
tp465
a(I3
g109
tp466
a(I0
g134
tp467
a(I1
g109
tp468
a(I2
g94
tp469
a(I3
g94
tp470
a(I0
g94
tp471
a(I1
g98
tp472
a(I2
g109
tp473
a(I3
g96
tp474
a(I0
g109
tp475
a(I1
g109
tp476
a(I2
g109
tp477
a(I3
g98
tp478
a(I0
g109
tp479
a(I1
g109
tp480
a(I2
g98
tp481
a(I3
g109
tp482
a(I0
g98
tp483
a(I1
g109
tp484
a(I2
g109
tp485
a(I3
g94
tp486
a(I0
g98
tp487
a(I1
g109
tp488
a(I2
g94
tp489
a(I3
g96
tp490
a(I0
g109
tp491
a(I1
g109
tp492
a(I2
g96
tp493
a(I3
g96
tp494
a(I0
g98
tp495
a(I1
g94
tp496
a(I2
g96
tp497
a(I3
g98
tp498
a(I0
g134
tp499
a(I1
g94
tp500
a(I2
g96
tp501
a(I3
g109
tp502
a(I0
g94
tp503
a(I1
g96
tp504
a(I2
g98
tp505
a(I3
g109
tp506
a(I0
g98
tp507
a(I1
g94
tp508
a(I2
g109
tp509
a(I3
g94
tp510
a(I0
g134
tp511
a(I1
g96
tp512
a(I2
g94
tp513
a(I3
g109
tp514
a(I0
g134
tp515
a(I1
g96
tp516
a(I2
g109
tp517
a(I3
g98
tp518
a(I0
g96
tp519
a(I1
g96
tp520
a(I2
g98
tp521
a(I3
g98
tp522
a(I0
g96
tp523
a(I1
g96
tp524
a(I2
g98
tp525
a(I3
g96
tp526
a(I0
g109
tp527
a(I1
g94
tp528
a(I2
g96
tp529
a(I3
g94
tp530
a(I0
g109
tp531
a(I1
g96
tp532
a(I2
g96
tp533
a(I3
g96
tp534
a(I0
g94
tp535
a(I1
g94
tp536
a(I2
g98
tp537
a(I3
g94
tp538
a(I0
g109
tp539
a(I1
g96
tp540
a(I2
g98
tp541
a(I3
g96
tp542
a(I0
g96
tp543
a(I1
g98
tp544
a(I2
g96
tp545
a(I3
g98
tp546
a(I0
g109
tp547
a(I1
g96
tp548
a(I2
g96
tp549
a(I3
g109
tp550
a(I0
g134
tp551
a(I1
g96
tp552
a(I2
g98
tp553
a(I3
g98
tp554
a(I0
g98
tp555
a(I1
g94
tp556
a(I2
g109
tp557
a(I3
g96
tp558
a(I0
g94
tp559
a(I1
g109
tp560
a(I2
g98
tp561
a(I3
g94
tp562
a(I0
g134
tp563
a(I1
g109
tp564
a(I2
g96
tp565
a(I3
g109
tp566
a(I0
g96
tp567
a(I1
g109
tp568
a(I2
g94
tp569
a(I3
g98
tp570
a(I0
g98
tp571
a(I1
g109
tp572
a(I2
g96
tp573
a(I3
g109
tp574
a(I0
g134
tp575
a(I1
g94
tp576
a(I2
g96
tp577
a(I3
g94
tp578
a(I0
g96
tp579
a(I1
g109
tp580
a(I2
g96
tp581
a(I3
g96
tp582
a(I0
g134
tp583
a(I1
g109
tp584
a(I2
g94
tp585
a(I3
g98
tp586
a(I0
g109
tp587
a(I1
g98
tp588
a(I2
g96
tp589
a(I3
g96
tp590
a(I0
g109
tp591
a(I1
g109
tp592
a(I2
g96
tp593
a(I3
g94
tp594
a(I0
g134
tp595
a(I1
g94
tp596
a(I2
g96
tp597
a(I3
g94
tp598
a(I0
g96
tp599
a(I1
g96
tp600
a(I2
g98
tp601
a(I3
g109
tp602
a(I0
g109
tp603
a(I1
g94
tp604
a(I2
g96
tp605
a(I3
g98
tp606
a(I0
g134
tp607
a(I1
g94
tp608
a(I2
g94
tp609
a(I3
g98
tp610
a(I0
g134
tp611
a(I1
g96
tp612
a(I2
g94
tp613
a(I3
g96
tp614
a(I0
g94
tp615
a(I1
g96
tp616
a(I2
g109
tp617
a(I3
g94
tp618
a(I0
g134
tp619
a(I1
g96
tp620
a(I2
g98
tp621
a(I3
g109
tp622
a(I0
g98
tp623
a(I1
g96
tp624
a(I2
g96
tp625
a(I3
g98
tp626
a(I0
g94
tp627
a(I1
g96
tp628
a(I2
g98
tp629
a(I3
g96
tp630
a(I0
g134
tp631
a(I1
g98
tp632
a(I2
g96
tp633
a(I3
g94
tp634
a(I0
g134
tp635
a(I1
g96
tp636
a(I2
g94
tp637
a(I3
g109
tp638
a(I0
g134
tp639
a(I1
g94
tp640
a(I2
g109
tp641
a(I3
g98
tp642
a(I0
g98
tp643
a(I1
g109
tp644
a(I2
g98
tp645
a(I3
g96
tp646
a(I0
g94
tp647
a(I1
g109
tp648
a(I2
g96
tp649
a(I3
g94
tp650
a(I0
g134
tp651
a(I1
g109
tp652
a(I2
g94
tp653
a(I3
g109
tp654
a(I0
g96
tp655
a(I1
g109
tp656
a(I2
g109
tp657
a(I3
g98
tp658
a(I0
g94
tp659
a(I1
g109
tp660
a(I2
g98
tp661
a(I3
g109
tp662
a(I0
g96
tp663
a(I1
g109
tp664
a(I2
g96
tp665
a(I3
g94
tp666
a(I0
g94
tp667
a(I1
g98
tp668
a(I2
g94
tp669
a(I3
g94
tp670
a(I0
g96
tp671
a(I1
g109
tp672
a(I2
g109
tp673
a(I3
g96
tp674
a(I0
g98
tp675
a(I1
g98
tp676
a(I2
g98
tp677
a(I3
g98
tp678
a(I0
g94
tp679
a(I1
g98
tp680
a(I2
g109
tp681
a(I3
g109
tp682
a(I0
g134
tp683
a(I1
g109
tp684
a(I2
g94
tp685
a(I3
g94
tp686
a(I0
g134
tp687
a(I1
g109
tp688
a(I2
g96
tp689
a(I3
g109
tp690
a(I0
g109
tp691
a(I1
g98
tp692
a(I2
g98
tp693
a(I3
g98
tp694
a(I0
g96
tp695
a(I1
g98
tp696
a(I2
g96
tp697
a(I3
g96
tp698
a(I0
g94
tp699
a(I1
g98
tp700
a(I2
g94
tp701
a(I3
g94
tp702
a(I0
g109
tp703
a(I1
g96
tp704
a(I2
g109
tp705
a(I3
g109
tp706
a(I0
g134
tp707
a(I1
g96
tp708
a(I2
g98
tp709
a(I3
g98
tp710
a(I0
g98
tp711
a(I1
g98
tp712
a(I2
g109
tp713
a(I3
g96
tp714
a(I0
g134
tp715
a(I1
g98
tp716
a(I2
g109
tp717
a(I3
g94
tp718
a(I0
g134
tp719
a(I1
g96
tp720
a(I2
g94
tp721
a(I3
g109
tp722
a(I0
g134
tp723
a(I1
g96
tp724
a(I2
g96
tp725
a(I3
g109
tp726
a(I0
g98
tp727
a(I1
g96
tp728
a(I2
g98
tp729
a(I3
g109
tp730
a(I0
g98
tp731
a(I1
g96
tp732
a(I2
g96
tp733
a(I3
g94
tp734
a(I0
g134
tp735
a(I1
g94
tp736
a(I2
g94
tp737
a(I3
g96
tp738
a(I0
g109
tp739
a(I1
g96
tp740
a(I2
g96
tp741
a(I3
g98
tp742
a(I0
g134
tp743
a(I1
g96
tp744
a(I2
g98
tp745
a(I3
g96
tp746
a(I0
g96
tp747
a(I1
g98
tp748
a(I2
g109
tp749
a(I3
g96
tp750
a(I0
g134
tp751
a(I1
g109
tp752
a(I2
g109
tp753
a(I3
g96
tp754
a(I0
g94
tp755
a(I1
g94
tp756
a(I2
g94
tp757
a(I3
g98
tp758
a(I0
g134
tp759
a(I1
g109
tp760
a(I2
g96
tp761
a(I3
g109
tp762
a(I0
g96
tp763
a(I1
g109
tp764
a(I2
g98
tp765
a(I3
g94
tp766
a(I0
g109
tp767
a(I1
g98
tp768
a(I2
g109
tp769
a(I3
g109
tp770
a(I0
g134
tp771
a(I1
g96
tp772
a(I2
g94
tp773
a(I3
g109
tp774
a(I0
g109
tp775
a(I1
g94
tp776
a(I2
g96
tp777
a(I3
g98
tp778
a(I0
g98
tp779
a(I1
g96
tp780
a(I2
g98
tp781
a(I3
g96
tp782
a(I0
g134
tp783
a(I1
g96
tp784
a(I2
g96
tp785
a(I3
g94
tp786
a(I0
g98
tp787
a(I1
g96
tp788
a(I2
g94
tp789
a(I3
g96
tp790
a(I0
g94
tp791
a(I1
g98
tp792
a(I2
g109
tp793
a(I3
g96
tp794
a(I0
g98
tp795
a(I1
g109
tp796
a(I2
g98
tp797
a(I3
g96
tp798
a(I0
g109
tp799
a(I1
g109
tp800
a(I2
g96
tp801
a(I3
g98
tp802
a(I0
g134
tp803
a(I1
g94
tp804
a(I2
g94
tp805
a(I3
g109
tp806
a(I0
g134
tp807
a(I1
g109
tp808
a(I2
g109
tp809
a(I3
g94
tp810
a(I0
g134
tp811
a(I1
g98
tp812
a(I2
g98
tp813
a(I3
g109
tp814
a(I0
g134
tp815
a(I1
g96
tp816
a(I2
g109
tp817
a(I3
g109
tp818
a(I0
g96
tp819
a(I1
g94
tp820
a(I2
g109
tp821
a(I3
g98
tp822
a(I0
g94
tp823
a(I1
g96
tp824
a(I2
g94
tp825
a(I3
g96
tp826
a(I0
g134
tp827
a(I1
g98
tp828
a(I2
g96
tp829
a(I3
g98
tp830
a(I0
g134
tp831
a(I1
g109
tp832
a(I2
g96
tp833
a(I3
g96
tp834
a(I0
g96
tp835
a(I1
g94
tp836
a(I2
g98
tp837
a(I3
g94
tp838
a(I0
g98
tp839
a(I1
g96
tp840
a(I2
g109
tp841
a(I3
g94
tp842
a(I0
g134
tp843
a(I1
g96
tp844
a(I2
g109
tp845
a(I3
g109
tp846
a(I0
g96
tp847
a(I1
g98
tp848
a(I2
g94
tp849
a(I3
g98
tp850
a(I0
g96
tp851
a(I1
g109
tp852
a(I2
g96
tp853
a(I3
g96
tp854
a(I0
g96
tp855
a(I1
g98
tp856
a(I2
g98
tp857
a(I3
g94
tp858
a(I0
g96
tp859
a(I1
g109
tp860
a(I2
g96
tp861
a(I3
g109
tp862
a(I0
g94
tp863
a(I1
g109
tp864
a(I2
g96
tp865
a(I3
g109
tp866
a(I0
g134
tp867
a(I1
g94
tp868
a(I2
g94
tp869
a(I3
g98
tp870
a(I0
g134
tp871
a(I1
g109
tp872
a(I2
g94
tp873
a(I3
g96
tp874
a(I0
g134
tp875
a(I1
g109
tp876
a(I2
g109
tp877
a(I3
g94
tp878
a(I0
g98
tp879
a(I1
g94
tp880
a(I2
g98
tp881
a(I3
g96
tp882
a(I0
g109
tp883
a(I1
g96
tp884
a(I2
g98
tp885
a(I3
g96
tp886
a(I0
g96
tp887
a(I1
g98
tp888
a(I2
g109
tp889
a(I3
g98
tp890
a(I0
g134
tp891
a(I1
g109
tp892
a(I2
g109
tp893
a(I3
g109
tp894
a(I0
g134
tp895
a(I1
g109
tp896
a(I2
g109
tp897
a(I3
g109
tp898
a(I0
g134
tp899
a(I1
g109
tp900
a(I2
g94
tp901
a(I3
g94
tp902
a(I0
g134
tp903
a(I1
g109
tp904
a(I2
g96
tp905
a(I3
g96
tp906
a(I0
g134
tp907
a(I1
g94
tp908
a(I2
g98
tp909
a(I3
g96
tp910
a(I0
g96
tp911
a(I1
g109
tp912
a(I2
g96
tp913
a(I3
g98
tp914
a(I0
g134
tp915
a(I1
g94
tp916
a(I2
g96
tp917
a(I3
g109
tp918
a(I0
g96
tp919
a(I1
g109
tp920
a(I2
g96
tp921
a(I3
g94
tp922
a(I0
g134
tp923
a(I1
g94
tp924
a(I2
g94
tp925
a(I3
g109
tp926
a(I0
g134
tp927
a(I1
g96
tp928
a(I2
g94
tp929
a(I3
g98
tp930
a(I0
g134
tp931
a(I1
g98
tp932
a(I2
g109
tp933
a(I3
g96
tp934
a(I0
g96
tp935
a(I1
g96
tp936
a(I2
g98
tp937
a(I3
g94
tp938
a(I0
g96
tp939
a(I1
g96
tp940
a(I2
g98
tp941
a(I3
g109
tp942
a(I0
g109
tp943
a(I1
g98
tp944
a(I2
g109
tp945
a(I3
g98
tp946
a(I0
g96
tp947
a(I1
g98
tp948
a(I2
g109
tp949
a(I3
g109
tp950
a(I0
g134
tp951
a(I1
g98
tp952
a(I2
g94
tp953
a(I3
g109
tp954
a(I0
g96
tp955
a(I1
g109
tp956
a(I2
g94
tp957
a(I3
g109
tp958
a(I0
g109
tp959
a(I1
g94
tp960
a(I2
g96
tp961
a(I3
g94
tp962
a(I0
g94
tp963
a(I1
g96
tp964
a(I2
g98
tp965
a(I3
g96
tp966
a(I0
g96
tp967
a(I1
g96
tp968
a(I2
g98
tp969
a(I3
g94
tp970
a(I0
g134
tp971
a(I1
g96
tp972
a(I2
g109
tp973
a(I3
g109
tp974
a(I0
g134
tp975
a(I1
g96
tp976
a(I2
g109
tp977
a(I3
g98
tp978
a(I0
g134
tp979
a(I1
g96
tp980
a(I2
g109
tp981
a(I3
g98
tp982
a(I0
g94
tp983
a(I1
g96
tp984
a(I2
g109
tp985
a(I3
g96
tp986
a(I0
g94
tp987
a(I1
g96
tp988
a(I2
g109
tp989
a(I3
g94
tp990
a(I0
g134
tp991
a(I1
g94
tp992
a(I2
g98
tp993
a(I3
g94
tp994
a(I0
g98
tp995
a(I1
g109
tp996
a(I2
g98
tp997
a(I3
g109
tp998
a(I0
g94
tp999
a(I1
g109
tp1000
a(I2
g98
tp1001
a(I3
g98
tp1002
a(I0
g98
tp1003
a(I1
g109
tp1004
a(I2
g96
tp1005
a(I3
g98
tp1006
a(I0
g96
tp1007
a(I1
g109
tp1008
a(I2
g96
tp1009
a(I3
g98
tp1010
a(I0
g98
tp1011
a(I1
g98
tp1012
a(I2
g96
tp1013
a(I3
g109
tp1014
a(I0
g98
tp1015
a(I1
g109
tp1016
a(I2
g96
tp1017
a(I3
g109
tp1018
a(I0
g96
tp1019
a(I1
g109
tp1020
a(I2
g94
tp1021
a(I3
g109
tp1022
a(I0
g109
tp1023
a(I1
g94
tp1024
a(I2
g109
tp1025
a(I3
g109
tp1026
a(I0
g109
tp1027
a(I1
g109
tp1028
a(I2
g109
tp1029
a(I3
g98
tp1030
a(I0
g94
tp1031
a(I1
g94
tp1032
a(I2
g98
tp1033
a(I3
g98
tp1034
a(I0
g94
tp1035
a(I1
g109
tp1036
a(I2
g96
tp1037
a(I3
g98
tp1038
a(I0
g109
tp1039
a(I1
g94
tp1040
a(I2
g96
tp1041
a(I3
g96
tp1042
a(I0
g109
tp1043
a(I1
g94
tp1044
a(I2
g94
tp1045
a(I3
g94
tp1046
a(I0
g134
tp1047
a(I1
g94
tp1048
a(I2
g96
tp1049
a(I3
g109
tp1050
a(I0
g134
tp1051
a(I1
g96
tp1052
a(I2
g98
tp1053
a(I3
g94
tp1054
a(I0
g109
tp1055
a(I1
g94
tp1056
a(I2
g96
tp1057
a(I3
g109
tp1058
a(I0
g134
tp1059
a(I1
g109
tp1060
a(I2
g94
tp1061
a(I3
g109
tp1062
a(I0
g96
tp1063
a(I1
g98
tp1064
a(I2
g109
tp1065
a(I3
g98
tp1066
a(I0
g109
tp1067
a(I1
g109
tp1068
a(I2
g109
tp1069
a(I3
g109
tp1070
a(I0
g96
tp1071
a(I1
g94
tp1072
a(I2
g109
tp1073
a(I3
g109
tp1074
as.