(dp1
S'layout'
p2
(ilayout
Layout
p3
(dp4
S'numGhosts'
p5
I3
sS'food'
p6
(igame
Grid
p7
(dp8
S'CELLS_PER_INT'
p9
I30
sS'width'
p10
I25
sS'data'
p11
(lp12
(lp13
I00
aI00
aI00
aI00
aI00
aI00
aI00
aI00
aI00
aI00
aI00
aI00
aa(lp14
I00
aI00
aI00
aI00
aI00
aI01
aI00
aI00
aI00
aI01
aI01
aI00
aa(lp15
I00
aI00
aI00
aI00
aI00
aI00
aI00
aI00
aI00
aI00
aI00
aI00
aa(lp16
I00
aI00
aI00
aI01
aI00
aI01
aI00
aI01
aI00
aI00
aI01
aI00
aa(lp17
I00
aI00
aI00
aI01
aI00
aI00
aI00
aI00
aI00
aI00
aI00
aI00
aa(lp18
I00
aI00
aI01
aI00
aI00
aI01
aI00
aI01
aI01
aI00
aI00
aI00
aa(lp19
I00
aI01
aI00
aI01
aI00
aI01
aI00
aI01
aI01
aI00
aI01
aI00
aa(lp20
I00
aI00
aI01
aI00
aI00
aI01
aI00
aI01
aI00
aI01
aI01
aI00
aa(lp21
I00
aI01
aI01
aI01
aI01
aI01
aI00
aI01
aI01
aI00
aI01
aI00
aa(lp22
I00
aI01
aI01
aI00
aI01
aI01
aI00
aI01
aI00
aI00
aI00
aI00
aa(lp23
I00
aI00
aI00
aI01
aI00
aI01
aI00
aI00
aI01
aI00
aI00
aI00
aa(lp24
I00
aI00
aI00
aI00
aI00
aI01
aI00
aI01
aI00
aI00
aI00
aI00
aa(lp25
I00
aI01
aI00
aI01
aI01
aI01
aI00
aI01
aI00
aI00
aI00
aI00
aa(lp26
I00
aI01
aI00
aI01
aI00
aI00
aI00
aI01
aI00
aI00
aI00
aI00
aa(lp27
I00
aI01
aI00
aI01
aI00
aI00
aI01
aI01
aI00
aI00
aI00
aI00
aa(lp28
I00
aI01
aI00
aI01
aI00
aI01
aI00
aI01
aI00
aI01
aI00
aI00
aa(lp29
I00
aI00
aI00
aI01
aI00
aI00
aI01
aI01
aI00
aI00
aI00
aI00
aa(lp30
I00
aI00
aI01
aI00
aI00
aI01
aI01
aI00
aI00
aI01
aI01
aI00
aa(lp31
I00
aI00
aI00
aI00
aI00
aI00
aI00
aI00
aI00
aI01
aI00
aI00
aa(lp32
I00
aI00
aI01
aI01
aI01
aI01
aI00
aI01
aI00
aI00
aI00
aI00
aa(lp33
I00
aI00
aI01
aI01
aI00
aI01
aI00
aI00
aI00
aI00
aI00
aI00
aa(lp34
I00
aI00
aI00
aI00
aI00
aI00
aI00
aI01
aI00
aI00
aI00
aI00
aa(lp35
I00
aI00
aI00
aI01
aI00
aI00
aI00
aI01
aI00
aI00
aI00
aI00
aa(lp36
I00
aI00
aI00
aI00
aI00
aI01
aI00
aI01
aI00
aI00
aI00
aI00
aa(lp37
I00
aI00
aI00
aI00
aI00
aI00
aI00
aI00
aI00
aI00
aI00
aI00
aasS'height'
p38
I12
sbsS'agentPositions'
p39
(lp40
(I01
(I20
I1
tp41
tp42
a(I00
(I21
I10
tp43
tp44
a(I00
(I22
I10
tp45
tp46
a(I00
(I23
I10
tp47
tp48
asg38
I12
sg10
I25
sS'walls'
p49
(igame
Grid
p50
(dp51
g9
I30
sg10
I25
sg11
(lp52
(lp53
I01
aI01
aI01
aI01
aI01
aI01
aI01
aI01
aI01
aI01
aI01
aI01
aa(lp54
I01
aI00
aI00
aI00
aI01
aI00
aI00
aI00
aI01
aI00
aI00
aI01
aa(lp55
I01
aI00
aI00
aI00
aI01
aI00
aI00
aI00
aI01
aI00
aI00
aI01
aa(lp56
I01
aI00
aI00
aI00
aI01
aI00
aI00
aI00
aI01
aI00
aI00
aI01
aa(lp57
I01
aI00
aI00
aI00
aI01
aI00
aI00
aI00
aI01
aI01
aI00
aI01
aa(lp58
I01
aI00
aI00
aI00
aI01
aI00
aI00
aI00
aI00
aI01
aI00
aI01
aa(lp59
I01
aI00
aI00
aI00
aI01
aI00
aI00
aI00
aI00
aI01
aI00
aI01
aa(lp60
I01
aI01
aI00
aI01
aI01
aI00
aI01
aI00
aI00
aI00
aI00
aI01
aa(lp61
I01
aI00
aI00
aI00
aI00
aI00
aI01
aI00
aI00
aI00
aI00
aI01
aa(lp62
I01
aI00
aI00
aI00
aI00
aI00
aI00
aI00
aI00
aI01
aI00
aI01
aa(lp63
I01
aI00
aI00
aI00
aI00
aI00
aI00
aI00
aI00
aI01
aI01
aI01
aa(lp64
I01
aI00
aI00
aI00
aI00
aI00
aI00
aI00
aI00
aI00
aI00
aI01
aa(lp65
I01
aI00
aI00
aI00
aI00
aI00
aI00
aI00
aI00
aI00
aI00
aI01
aa(lp66
I01
aI00
aI00
aI00
aI00
aI01
aI00
aI00
aI00
aI00
aI00
aI01
aa(lp67
I01
aI00
aI01
aI00
aI00
aI00
aI00
aI00
aI00
aI00
aI00
aI01
aa(lp68
I01
aI00
aI01
aI00
aI00
aI00
aI00
aI00
aI00
aI00
aI00
aI01
aa(lp69
I01
aI00
aI00
aI00
aI00
aI00
aI00
aI00
aI01
aI00
aI01
aI01
aa(lp70
I01
aI00
aI00
aI00
aI00
aI00
aI00
aI00
aI01
aI00
aI00
aI01
aa(lp71
I01
aI00
aI00
aI00
aI00
aI00
aI01
aI01
aI01
aI00
aI00
aI01
aa(lp72
I01
aI00
aI00
aI00
aI00
aI00
aI00
aI00
aI00
aI00
aI00
aI01
aa(lp73
I01
aI00
aI00
aI00
aI00
aI00
aI01
aI00
aI00
aI00
aI00
aI01
aa(lp74
I01
aI00
aI00
aI00
aI00
aI00
aI01
aI00
aI00
aI00
aI00
aI01
aa(lp75
I01
aI00
aI00
aI00
aI01
aI00
aI01
aI00
aI00
aI00
aI00
aI01
aa(lp76
I01
aI00
aI00
aI01
aI01
aI00
aI01
aI00
aI00
aI00
aI00
aI01
aa(lp77
I01
aI01
aI01
aI01
aI01
aI01
aI01
aI01
aI01
aI01
aI01
aI01
aasg38
I12
sbsS'layoutText'
p78
(lp79
S'%%%%%%%%%%%%%%%%%%%%%%%%%'
p80
aS'%. .  ... %     %.   GGG%'
p81
aS'%.  %%%. %%    . ..     %'
p82
aS'%%%%%.. . .     %%%     %'
p83
aS'%  . ..... ...... %. ...%'
p84
aS'%      %%     . ..% %%%%%'
p85
aS'%. . ........% . . ..  .%'
p86
aS'%%%%%%%%..  .      .  %%%'
p87
aS'%  .. .%. . .....  .. .%%'
p88
aS'%    . ...    %% . ..   %'
p89
aS'%     .%..  ....    P   %'
p90
aS'%%%%%%%%%%%%%%%%%%%%%%%%%'
p91
asbsS'actions'
p92
(lp93
(I0
S'North'
p94
tp95
a(I1
S'West'
p96
tp97
a(I2
g96
tp98
a(I3
g96
tp99
a(I0
g94
tp100
a(I1
g96
tp101
a(I2
g96
tp102
a(I3
g96
tp103
a(I0
g96
tp104
a(I1
g96
tp105
a(I2
g96
tp106
a(I3
g96
tp107
a(I0
g96
tp108
a(I1
g96
tp109
a(I2
g96
tp110
a(I3
g96
tp111
a(I0
S'East'
p112
tp113
a(I1
S'South'
p114
tp115
a(I2
g96
tp116
a(I3
g96
tp117
a(I0
g94
tp118
a(I1
g112
tp119
a(I2
g114
tp120
a(I3
g96
tp121
a(I0
g94
tp122
a(I1
g94
tp123
a(I2
g96
tp124
a(I3
g114
tp125
a(I0
g112
tp126
a(I1
g96
tp127
a(I2
g96
tp128
a(I3
g96
tp129
a(I0
g114
tp130
a(I1
g114
tp131
a(I2
g96
tp132
a(I3
g96
tp133
a(I0
g94
tp134
a(I1
g96
tp135
a(I2
g96
tp136
a(I3
g96
tp137
a(I0
g112
tp138
a(I1
g96
tp139
a(I2
g94
tp140
a(I3
g94
tp141
a(I0
g112
tp142
a(I1
g96
tp143
a(I2
g112
tp144
a(I3
g96
tp145
a(I0
g112
tp146
a(I1
g114
tp147
a(I2
g112
tp148
a(I3
g96
tp149
a(I0
g96
tp150
a(I1
g114
tp151
a(I2
g114
tp152
a(I3
g96
tp153
a(I0
S'Stop'
p154
tp155
a(I1
g96
tp156
a(I2
g96
tp157
a(I3
g114
tp158
a(I0
g112
tp159
a(I1
g114
tp160
a(I2
g96
tp161
a(I3
g114
tp162
a(I0
g154
tp163
a(I1
g96
tp164
a(I2
g94
tp165
a(I3
g96
tp166
a(I0
g154
tp167
a(I1
g94
tp168
a(I2
g96
tp169
a(I3
g96
tp170
a(I0
g96
tp171
a(I1
g96
tp172
a(I2
g96
tp173
a(I3
g114
tp174
a(I0
g154
tp175
a(I1
g94
tp176
a(I2
g114
tp177
a(I3
g96
tp178
a(I0
g112
tp179
a(I1
g94
tp180
a(I2
g114
tp181
a(I3
g96
tp182
a(I0
g96
tp183
a(I1
g94
tp184
a(I2
g96
tp185
a(I3
g96
tp186
a(I0
g112
tp187
a(I1
g112
tp188
a(I2
g96
tp189
a(I3
g94
tp190
a(I0
g154
tp191
a(I1
g114
tp192
a(I2
g96
tp193
a(I3
g112
tp194
a(I0
g154
tp195
a(I1
g96
tp196
a(I2
g96
tp197
a(I3
g94
tp198
a(I0
g96
tp199
a(I1
g94
tp200
a(I2
g94
tp201
a(I3
g94
tp202
a(I0
g96
tp203
a(I1
g112
tp204
a(I2
g94
tp205
a(I3
g96
tp206
a(I0
g114
tp207
a(I1
g114
tp208
a(I2
g96
tp209
a(I3
g96
tp210
a(I0
g114
tp211
a(I1
g96
tp212
a(I2
g96
tp213
a(I3
g96
tp214
a(I0
g96
tp215
a(I1
g94
tp216
a(I2
g96
tp217
a(I3
g96
tp218
a(I0
g94
tp219
a(I1
g112
tp220
a(I2
g96
tp221
a(I3
g96
tp222
a(I0
g112
tp223
a(I1
g112
tp224
a(I2
g114
tp225
a(I3
g114
tp226
a(I0
g96
tp227
a(I1
g112
tp228
a(I2
g96
tp229
a(I3
g112
tp230
a(I0
g94
tp231
a(I1
g112
tp232
a(I2
g94
tp233
a(I3
g94
tp234
a(I0
g114
tp235
a(I1
g114
tp236
a(I2
g112
tp237
a(I3
g112
tp238
a(I0
g96
tp239
a(I1
g96
tp240
a(I2
g114
tp241
a(I3
g112
tp242
a(I0
g94
tp243
a(I1
g96
tp244
a(I2
g96
tp245
a(I3
g112
tp246
a(I0
g96
tp247
a(I1
g94
tp248
a(I2
g94
tp249
a(I3
g112
tp250
a(I0
g154
tp251
a(I1
g96
tp252
a(I2
g112
tp253
a(I3
g112
tp254
a(I0
g96
tp255
a(I1
g96
tp256
a(I2
g114
tp257
a(I3
g112
tp258
a(I0
g114
tp259
a(I1
g114
tp260
a(I2
g96
tp261
a(I3
g96
tp262
a(I0
g114
tp263
a(I1
g112
tp264
a(I2
g94
tp265
a(I3
g96
tp266
a(I0
g96
tp267
a(I1
g94
tp268
a(I2
g96
tp269
a(I3
g96
tp270
a(I0
g96
tp271
a(I1
g96
tp272
a(I2
g114
tp273
a(I3
g96
tp274
a(I0
g96
tp275
a(I1
g114
tp276
a(I2
g112
tp277
a(I3
g96
tp278
a(I0
g154
tp279
a(I1
g114
tp280
a(I2
g94
tp281
a(I3
g96
tp282
a(I0
g96
tp283
a(I1
g96
tp284
a(I2
g112
tp285
a(I3
g114
tp286
a(I0
g112
tp287
a(I1
g96
tp288
a(I2
g112
tp289
a(I3
g96
tp290
a(I0
g154
tp291
a(I1
g96
tp292
a(I2
g112
tp293
a(I3
g94
tp294
a(I0
g94
tp295
a(I1
g94
tp296
a(I2
g112
tp297
a(I3
g112
tp298
a(I0
g154
tp299
a(I1
g96
tp300
a(I2
g112
tp301
a(I3
g112
tp302
a(I0
g94
tp303
a(I1
g94
tp304
a(I2
g114
tp305
a(I3
g112
tp306
a(I0
g112
tp307
a(I1
g96
tp308
a(I2
g114
tp309
a(I3
g112
tp310
a(I0
g114
tp311
a(I1
g96
tp312
a(I2
g112
tp313
a(I3
g112
tp314
a(I0
g114
tp315
a(I1
g96
tp316
a(I2
g112
tp317
a(I3
g112
tp318
a(I0
g154
tp319
a(I1
g96
tp320
a(I2
g114
tp321
a(I3
g112
tp322
a(I0
g96
tp323
a(I1
g114
tp324
a(I2
g96
tp325
a(I3
g96
tp326
a(I0
g154
tp327
a(I1
g96
tp328
a(I2
g96
tp329
a(I3
g96
tp330
a(I0
g112
tp331
a(I1
g96
tp332
a(I2
g94
tp333
a(I3
g96
tp334
a(I0
g154
tp335
a(I1
g94
tp336
a(I2
g112
tp337
a(I3
g96
tp338
a(I0
g96
tp339
a(I1
g112
tp340
a(I2
g114
tp341
a(I3
g96
tp342
a(I0
g94
tp343
a(I1
g112
tp344
a(I2
g112
tp345
a(I3
g96
tp346
a(I0
g114
tp347
a(I1
g112
tp348
a(I2
g114
tp349
a(I3
g114
tp350
a(I0
g154
tp351
a(I1
g112
tp352
a(I2
g112
tp353
a(I3
g96
tp354
a(I0
g94
tp355
a(I1
g112
tp356
a(I2
g114
tp357
a(I3
g94
tp358
a(I0
g94
tp359
a(I1
g112
tp360
a(I2
g114
tp361
a(I3
g112
tp362
a(I0
g112
tp363
a(I1
g114
tp364
a(I2
g96
tp365
a(I3
g114
tp366
a(I0
g154
tp367
a(I1
g114
tp368
a(I2
g94
tp369
a(I3
g96
tp370
a(I0
g96
tp371
a(I1
g96
tp372
a(I2
g96
tp373
a(I3
g94
tp374
a(I0
g94
tp375
a(I1
g96
tp376
a(I2
g96
tp377
a(I3
g112
tp378
a(I0
g112
tp379
a(I1
g114
tp380
a(I2
g96
tp381
a(I3
g112
tp382
a(I0
g112
tp383
a(I1
g96
tp384
a(I2
g96
tp385
a(I3
g112
tp386
a(I0
g114
tp387
a(I1
g96
tp388
a(I2
g94
tp389
a(I3
g112
tp390
a(I0
g114
tp391
a(I1
g114
tp392
a(I2
g94
tp393
a(I3
g112
tp394
a(I0
g94
tp395
a(I1
g112
tp396
a(I2
g96
tp397
a(I3
g112
tp398
a(I0
g114
tp399
a(I1
g94
tp400
a(I2
g96
tp401
a(I3
g112
tp402
a(I0
g94
tp403
a(I1
g96
tp404
a(I2
g96
tp405
a(I3
g96
tp406
a(I0
g94
tp407
a(I1
g96
tp408
a(I2
g114
tp409
a(I3
g96
tp410
a(I0
g96
tp411
a(I1
g114
tp412
a(I2
g114
tp413
a(I3
g96
tp414
a(I0
g96
tp415
a(I1
g112
tp416
a(I2
g112
tp417
a(I3
g96
tp418
a(I0
g96
tp419
a(I1
g94
tp420
a(I2
g112
tp421
a(I3
g96
tp422
a(I0
g96
tp423
a(I1
g96
tp424
a(I2
g112
tp425
a(I3
g96
tp426
a(I0
g94
tp427
a(I1
g96
tp428
a(I2
g94
tp429
a(I3
g114
tp430
a(I0
g112
tp431
a(I1
g114
tp432
a(I2
g112
tp433
a(I3
g96
tp434
a(I0
g94
tp435
a(I1
g112
tp436
a(I2
g94
tp437
a(I3
g94
tp438
a(I0
g94
tp439
a(I1
g114
tp440
a(I2
g94
tp441
a(I3
g112
tp442
a(I0
g154
tp443
a(I1
g112
tp444
a(I2
g112
tp445
a(I3
g112
tp446
a(I0
g96
tp447
a(I1
g94
tp448
a(I2
g94
tp449
a(I3
g112
tp450
a(I0
g114
tp451
a(I1
g94
tp452
a(I2
g94
tp453
a(I3
g112
tp454
a(I0
g154
tp455
a(I1
g96
tp456
a(I2
g112
tp457
a(I3
g112
tp458
a(I0
g94
tp459
a(I1
g96
tp460
a(I2
g112
tp461
a(I3
g114
tp462
a(I0
g154
tp463
a(I1
g114
tp464
a(I2
g96
tp465
a(I3
g114
tp466
a(I0
g114
tp467
a(I1
g112
tp468
a(I2
g114
tp469
a(I3
g96
tp470
a(I0
g94
tp471
a(I1
g94
tp472
a(I2
g96
tp473
a(I3
g96
tp474
a(I0
g94
tp475
a(I1
g112
tp476
a(I2
g94
tp477
a(I3
g114
tp478
a(I0
g112
tp479
a(I1
g114
tp480
a(I2
g112
tp481
a(I3
g112
tp482
a(I0
g112
tp483
a(I1
g96
tp484
a(I2
g114
tp485
a(I3
g94
tp486
a(I0
g114
tp487
a(I1
g94
tp488
a(I2
g96
tp489
a(I3
g96
tp490
a(I0
g154
tp491
a(I1
g112
tp492
a(I2
g94
tp493
a(I3
g114
tp494
a(I0
g94
tp495
a(I1
g112
tp496
a(I2
g112
tp497
a(I3
g96
tp498
a(I0
g96
tp499
a(I1
g112
tp500
a(I2
g112
tp501
a(I3
g96
tp502
a(I0
g154
tp503
a(I1
g94
tp504
a(I2
g96
tp505
a(I3
g114
tp506
a(I0
g114
tp507
a(I1
g112
tp508
a(I2
g96
tp509
a(I3
g112
tp510
a(I0
g154
tp511
a(I1
g114
tp512
a(I2
g114
tp513
a(I3
g94
tp514
a(I0
g112
tp515
a(I1
g114
tp516
a(I2
g112
tp517
a(I3
g112
tp518
a(I0
g96
tp519
a(I1
g96
tp520
a(I2
g94
tp521
a(I3
g94
tp522
a(I0
g154
tp523
a(I1
g94
tp524
a(I2
g112
tp525
a(I3
g112
tp526
a(I0
g96
tp527
a(I1
g94
tp528
a(I2
g96
tp529
a(I3
g112
tp530
a(I0
g94
tp531
a(I1
g112
tp532
a(I2
g96
tp533
a(I3
g94
tp534
a(I0
g96
tp535
a(I1
g114
tp536
a(I2
g114
tp537
a(I3
g94
tp538
a(I0
g112
tp539
a(I1
g96
tp540
a(I2
g114
tp541
a(I3
g96
tp542
a(I0
g114
tp543
a(I1
g114
tp544
a(I2
g112
tp545
a(I3
g96
tp546
a(I0
g94
tp547
a(I1
g114
tp548
a(I2
g94
tp549
a(I3
g96
tp550
a(I0
g96
tp551
a(I1
g112
tp552
a(I2
g94
tp553
a(I3
g96
tp554
a(I0
g114
tp555
a(I1
g112
tp556
a(I2
g112
tp557
a(I3
g96
tp558
a(I0
g94
tp559
a(I1
g112
tp560
a(I2
g96
tp561
a(I3
g114
tp562
a(I0
g114
tp563
a(I1
g114
tp564
a(I2
g96
tp565
a(I3
g112
tp566
a(I0
g112
tp567
a(I1
g112
tp568
a(I2
g96
tp569
a(I3
g94
tp570
a(I0
g154
tp571
a(I1
g112
tp572
a(I2
g96
tp573
a(I3
g96
tp574
a(I0
g154
tp575
a(I1
g114
tp576
a(I2
g96
tp577
a(I3
g114
tp578
a(I0
g96
tp579
a(I1
g96
tp580
a(I2
g96
tp581
a(I3
g96
tp582
a(I0
g94
tp583
a(I1
g94
tp584
a(I2
g114
tp585
a(I3
g94
tp586
a(I0
g112
tp587
a(I1
g96
tp588
a(I2
g96
tp589
a(I3
g112
tp590
a(I0
g112
tp591
a(I1
g94
tp592
a(I2
g94
tp593
a(I3
g112
tp594
a(I0
g112
tp595
a(I1
g96
tp596
a(I2
g112
tp597
a(I3
g112
tp598
a(I0
g96
tp599
a(I1
g96
tp600
a(I2
g112
tp601
a(I3
g112
tp602
a(I0
g96
tp603
a(I1
g96
tp604
a(I2
g112
tp605
a(I3
g112
tp606
a(I0
g96
tp607
a(I1
g96
tp608
a(I2
g112
tp609
a(I3
g112
tp610
a(I0
g154
tp611
a(I1
g96
tp612
a(I2
g112
tp613
a(I3
g114
tp614
a(I0
g154
tp615
a(I1
g94
tp616
a(I2
g112
tp617
a(I3
g112
tp618
a(I0
g112
tp619
a(I1
g96
tp620
a(I2
g112
tp621
a(I3
g94
tp622
a(I0
g114
tp623
a(I1
g96
tp624
a(I2
g96
tp625
a(I3
g96
tp626
a(I0
g154
tp627
a(I1
g94
tp628
a(I2
g96
tp629
a(I3
g96
tp630
a(I0
g94
tp631
a(I1
g112
tp632
a(I2
g114
tp633
a(I3
g96
tp634
a(I0
g112
tp635
a(I1
g112
tp636
a(I2
g114
tp637
a(I3
g96
tp638
a(I0
g114
tp639
a(I1
g112
tp640
a(I2
g112
tp641
a(I3
g96
tp642
a(I0
g114
tp643
a(I1
g112
tp644
a(I2
g94
tp645
a(I3
g96
tp646
a(I0
g96
tp647
a(I1
g94
tp648
a(I2
g94
tp649
a(I3
g96
tp650
a(I0
g94
tp651
a(I1
g112
tp652
a(I2
g112
tp653
a(I3
g114
tp654
a(I0
g112
tp655
a(I1
g112
tp656
a(I2
g96
tp657
a(I3
g112
tp658
a(I0
g112
tp659
a(I1
g94
tp660
a(I2
g114
tp661
a(I3
g112
tp662
a(I0
g112
tp663
a(I1
g94
tp664
a(I2
g114
tp665
a(I3
g94
tp666
a(I0
g112
tp667
a(I1
g96
tp668
a(I2
g112
tp669
a(I3
g96
tp670
a(I0
g154
tp671
a(I1
g96
tp672
a(I2
g112
tp673
a(I3
g114
tp674
a(I0
g96
tp675
a(I1
g96
tp676
a(I2
g112
tp677
a(I3
g112
tp678
a(I0
g154
tp679
a(I1
g96
tp680
a(I2
g94
tp681
a(I3
g94
tp682
a(I0
g112
tp683
a(I1
g96
tp684
a(I2
g94
tp685
a(I3
g96
tp686
a(I0
g112
tp687
a(I1
g114
tp688
a(I2
g112
tp689
a(I3
g96
tp690
a(I0
g154
tp691
a(I1
g112
tp692
a(I2
g114
tp693
a(I3
g114
tp694
a(I0
g154
tp695
a(I1
g94
tp696
a(I2
g96
tp697
a(I3
g112
tp698
a(I0
g112
tp699
a(I1
g96
tp700
a(I2
g94
tp701
a(I3
g112
tp702
a(I0
g112
tp703
a(I1
g114
tp704
a(I2
g112
tp705
a(I3
g94
tp706
a(I0
g96
tp707
a(I1
g112
tp708
a(I2
g114
tp709
a(I3
g112
tp710
a(I0
g112
tp711
a(I1
g94
tp712
a(I2
g96
tp713
a(I3
g112
tp714
a(I0
g94
tp715
a(I1
g96
tp716
a(I2
g94
tp717
a(I3
g112
tp718
a(I0
g112
tp719
a(I1
g96
tp720
a(I2
g112
tp721
a(I3
g112
tp722
a(I0
g154
tp723
a(I1
g114
tp724
a(I2
g114
tp725
a(I3
g112
tp726
a(I0
g96
tp727
a(I1
g112
tp728
a(I2
g96
tp729
a(I3
g114
tp730
a(I0
g114
tp731
a(I1
g94
tp732
a(I2
g94
tp733
a(I3
g96
tp734
a(I0
g114
tp735
a(I1
g112
tp736
a(I2
g112
tp737
a(I3
g94
tp738
a(I0
g154
tp739
a(I1
g114
tp740
a(I2
g114
tp741
a(I3
g96
tp742
a(I0
g154
tp743
a(I1
g96
tp744
a(I2
g112
tp745
a(I3
g96
tp746
a(I0
g114
tp747
a(I1
g94
tp748
a(I2
g94
tp749
a(I3
g96
tp750
a(I0
g114
tp751
a(I1
g112
tp752
a(I2
g96
tp753
a(I3
g96
tp754
a(I0
g154
tp755
a(I1
g114
tp756
a(I2
g96
tp757
a(I3
g96
tp758
a(I0
g114
tp759
a(I1
g96
tp760
a(I2
g114
tp761
a(I3
g96
tp762
a(I0
g94
tp763
a(I1
g94
tp764
a(I2
g112
tp765
a(I3
g114
tp766
a(I0
g114
tp767
a(I1
g112
tp768
a(I2
g94
tp769
a(I3
g112
tp770
a(I0
g96
tp771
a(I1
g114
tp772
a(I2
g96
tp773
a(I3
g94
tp774
a(I0
g154
tp775
a(I1
g96
tp776
a(I2
g114
tp777
a(I3
g112
tp778
a(I0
g112
tp779
a(I1
g94
tp780
a(I2
g114
tp781
a(I3
g112
tp782
a(I0
g112
tp783
a(I1
g96
tp784
a(I2
g96
tp785
a(I3
g112
tp786
a(I0
g154
tp787
a(I1
g114
tp788
a(I2
g114
tp789
a(I3
g112
tp790
a(I0
g114
tp791
a(I1
g112
tp792
a(I2
g96
tp793
a(I3
g112
tp794
a(I0
g96
tp795
a(I1
g94
tp796
a(I2
g94
tp797
a(I3
g114
tp798
a(I0
g96
tp799
a(I1
g112
tp800
a(I2
g112
tp801
a(I3
g112
tp802
a(I0
g96
tp803
a(I1
g114
tp804
a(I2
g114
tp805
a(I3
g94
tp806
a(I0
g114
tp807
a(I1
g96
tp808
a(I2
g96
tp809
a(I3
g96
tp810
a(I0
g94
tp811
a(I1
g94
tp812
a(I2
g94
tp813
a(I3
g96
tp814
a(I0
g112
tp815
a(I1
g112
tp816
a(I2
g112
tp817
a(I3
g96
tp818
a(I0
g96
tp819
a(I1
g114
tp820
a(I2
g114
tp821
a(I3
g96
tp822
a(I0
g154
tp823
a(I1
g96
tp824
a(I2
g114
tp825
a(I3
g96
tp826
a(I0
g94
tp827
a(I1
g96
tp828
a(I2
g112
tp829
a(I3
g114
tp830
a(I0
g112
tp831
a(I1
g94
tp832
a(I2
g94
tp833
a(I3
g96
tp834
a(I0
g154
tp835
a(I1
g112
tp836
a(I2
g96
tp837
a(I3
g96
tp838
a(I0
g154
tp839
a(I1
g114
tp840
a(I2
g94
tp841
a(I3
g94
tp842
a(I0
g112
tp843
a(I1
g112
tp844
a(I2
g96
tp845
a(I3
g112
tp846
a(I0
g154
tp847
a(I1
g94
tp848
a(I2
g114
tp849
a(I3
g112
tp850
a(I0
g94
tp851
a(I1
g112
tp852
a(I2
g112
tp853
a(I3
g112
tp854
a(I0
g154
tp855
a(I1
g112
tp856
a(I2
g94
tp857
a(I3
g112
tp858
a(I0
g154
tp859
a(I1
g112
tp860
a(I2
g96
tp861
a(I3
g112
tp862
a(I0
g94
tp863
a(I1
g112
tp864
a(I2
g114
tp865
a(I3
g112
tp866
a(I0
g94
tp867
a(I1
g114
tp868
a(I2
g112
tp869
a(I3
g114
tp870
a(I0
g154
tp871
a(I1
g114
tp872
a(I2
g94
tp873
a(I3
g114
tp874
a(I0
g112
tp875
a(I1
g114
tp876
a(I2
g112
tp877
a(I3
g96
tp878
a(I0
g112
tp879
a(I1
g112
tp880
a(I2
g94
tp881
a(I3
g96
tp882
a(I0
g114
tp883
a(I1
g112
tp884
a(I2
g94
tp885
a(I3
g114
tp886
a(I0
g112
tp887
a(I1
g114
tp888
a(I2
g112
tp889
a(I3
g96
tp890
a(I0
g154
tp891
a(I1
g114
tp892
a(I2
g112
tp893
a(I3
g96
tp894
a(I0
g94
tp895
a(I1
g96
tp896
a(I2
g112
tp897
a(I3
g96
tp898
a(I0
g114
tp899
a(I1
g114
tp900
a(I2
g114
tp901
a(I3
g96
tp902
a(I0
g154
tp903
a(I1
g114
tp904
a(I2
g114
tp905
a(I3
g114
tp906
a(I0
g96
tp907
a(I1
g114
tp908
a(I2
g96
tp909
a(I3
g114
tp910
a(I0
g94
tp911
a(I1
g96
tp912
a(I2
g96
tp913
a(I3
g112
tp914
a(I0
g96
tp915
a(I1
g96
tp916
a(I2
g94
tp917
a(I3
g94
tp918
a(I0
g154
tp919
a(I1
g96
tp920
a(I2
g96
tp921
a(I3
g94
tp922
a(I0
g96
tp923
a(I1
g96
tp924
a(I2
g94
tp925
a(I3
g112
tp926
a(I0
g154
tp927
a(I1
g96
tp928
a(I2
g112
tp929
a(I3
g112
tp930
a(I0
g94
tp931
a(I1
g96
tp932
a(I2
g114
tp933
a(I3
g114
tp934
a(I0
g154
tp935
a(I1
g94
tp936
a(I2
g96
tp937
a(I3
g96
tp938
a(I0
g94
tp939
a(I1
g96
tp940
a(I2
g114
tp941
a(I3
g94
tp942
a(I0
g154
tp943
a(I1
g114
tp944
a(I2
g96
tp945
a(I3
g112
tp946
a(I0
g114
tp947
a(I1
g112
tp948
a(I2
g114
tp949
a(I3
g114
tp950
a(I0
g96
tp951
a(I1
g112
tp952
a(I2
g96
tp953
a(I3
g112
tp954
a(I0
g94
tp955
a(I1
g94
tp956
a(I2
g96
tp957
a(I3
g114
tp958
a(I0
g112
tp959
a(I1
g112
tp960
a(I2
g94
tp961
a(I3
g96
tp962
a(I0
g154
tp963
a(I1
g112
tp964
a(I2
g94
tp965
a(I3
g94
tp966
a(I0
g154
tp967
a(I1
g112
tp968
a(I2
g94
tp969
a(I3
g96
tp970
a(I0
g154
tp971
a(I1
g114
tp972
a(I2
g112
tp973
a(I3
g94
tp974
a(I0
g154
tp975
a(I1
g112
tp976
a(I2
g96
tp977
a(I3
g96
tp978
a(I0
g112
tp979
a(I1
g112
tp980
a(I2
g114
tp981
a(I3
g114
tp982
a(I0
g114
tp983
a(I1
g112
tp984
a(I2
g96
tp985
a(I3
g112
tp986
a(I0
g96
tp987
a(I1
g112
tp988
a(I2
g94
tp989
a(I3
g94
tp990
a(I0
g94
tp991
a(I1
g94
tp992
a(I2
g112
tp993
a(I3
g112
tp994
a(I0
g114
tp995
a(I1
g94
tp996
a(I2
g114
tp997
a(I3
g112
tp998
a(I0
g154
tp999
a(I1
g94
tp1000
a(I2
g114
tp1001
a(I3
g114
tp1002
a(I0
g154
tp1003
a(I1
g94
tp1004
a(I2
g112
tp1005
a(I3
g96
tp1006
a(I0
g96
tp1007
a(I1
g94
tp1008
a(I2
g112
tp1009
a(I3
g94
tp1010
a(I0
g96
tp1011
a(I1
g94
tp1012
a(I2
g114
tp1013
a(I3
g112
tp1014
a(I0
g154
tp1015
a(I1
g96
tp1016
a(I2
g112
tp1017
a(I3
g114
tp1018
a(I0
g94
tp1019
a(I1
g96
tp1020
a(I2
g94
tp1021
a(I3
g112
tp1022
a(I0
g112
tp1023
a(I1
g94
tp1024
a(I2
g96
tp1025
a(I3
g94
tp1026
a(I0
g112
tp1027
a(I1
g94
tp1028
a(I2
g114
tp1029
a(I3
g96
tp1030
a(I0
g112
tp1031
a(I1
g112
tp1032
a(I2
g114
tp1033
a(I3
g114
tp1034
a(I0
g96
tp1035
a(I1
g96
tp1036
a(I2
g96
tp1037
a(I3
g96
tp1038
a(I0
g114
tp1039
a(I1
g96
tp1040
a(I2
g94
tp1041
a(I3
g96
tp1042
a(I0
g112
tp1043
a(I1
g114
tp1044
a(I2
g94
tp1045
a(I3
g94
tp1046
a(I0
g112
tp1047
a(I1
g112
tp1048
a(I2
g112
tp1049
a(I3
g112
tp1050
a(I0
g154
tp1051
a(I1
g94
tp1052
a(I2
g112
tp1053
a(I3
g112
tp1054
a(I0
g94
tp1055
a(I1
g112
tp1056
a(I2
g94
tp1057
a(I3
g94
tp1058
a(I0
g96
tp1059
a(I1
g96
tp1060
a(I2
g94
tp1061
a(I3
g112
tp1062
a(I0
g114
tp1063
a(I1
g96
tp1064
a(I2
g112
tp1065
a(I3
g112
tp1066
a(I0
g112
tp1067
a(I1
g96
tp1068
a(I2
g114
tp1069
a(I3
g94
tp1070
a(I0
g112
tp1071
a(I1
g96
tp1072
a(I2
g96
tp1073
a(I3
g94
tp1074
a(I0
g154
tp1075
a(I1
g96
tp1076
a(I2
g94
tp1077
a(I3
g96
tp1078
a(I0
g94
tp1079
a(I1
g96
tp1080
a(I2
g112
tp1081
a(I3
g96
tp1082
a(I0
g114
tp1083
a(I1
g96
tp1084
a(I2
g112
tp1085
a(I3
g96
tp1086
a(I0
g112
tp1087
a(I1
g96
tp1088
a(I2
g112
tp1089
a(I3
g96
tp1090
a(I0
g94
tp1091
a(I1
g114
tp1092
a(I2
g114
tp1093
a(I3
g96
tp1094
a(I0
g114
tp1095
a(I1
g112
tp1096
a(I2
g96
tp1097
a(I3
g114
tp1098
a(I0
g154
tp1099
a(I1
g112
tp1100
a(I2
g94
tp1101
a(I3
g112
tp1102
a(I0
g114
tp1103
a(I1
g94
tp1104
a(I2
g96
tp1105
a(I3
g94
tp1106
a(I0
g114
tp1107
a(I1
g112
tp1108
a(I2
g96
tp1109
a(I3
g112
tp1110
a(I0
g94
tp1111
a(I1
g112
tp1112
a(I2
g114
tp1113
a(I3
g112
tp1114
a(I0
g154
tp1115
a(I1
g112
tp1116
a(I2
g112
tp1117
a(I3
g112
tp1118
a(I0
g96
tp1119
a(I1
g112
tp1120
a(I2
g94
tp1121
a(I3
g112
tp1122
a(I0
g154
tp1123
a(I1
g112
tp1124
a(I2
g96
tp1125
a(I3
g114
tp1126
a(I0
g96
tp1127
a(I1
g112
tp1128
a(I2
g114
tp1129
a(I3
g114
tp1130
a(I0
g114
tp1131
a(I1
g96
tp1132
a(I2
g114
tp1133
a(I3
g112
tp1134
a(I0
g96
tp1135
a(I1
g96
tp1136
a(I2
g96
tp1137
a(I3
g112
tp1138
a(I0
g112
tp1139
a(I1
g96
tp1140
a(I2
g114
tp1141
a(I3
g112
tp1142
a(I0
g96
tp1143
a(I1
g96
tp1144
a(I2
g96
tp1145
a(I3
g114
tp1146
a(I0
g112
tp1147
a(I1
g96
tp1148
a(I2
g94
tp1149
a(I3
g114
tp1150
a(I0
g96
tp1151
a(I1
g96
tp1152
a(I2
g112
tp1153
a(I3
g114
tp1154
a(I0
g94
tp1155
a(I1
g96
tp1156
a(I2
g112
tp1157
a(I3
g114
tp1158
a(I0
g154
tp1159
a(I1
g114
tp1160
a(I2
g94
tp1161
a(I3
g96
tp1162
a(I0
g154
tp1163
a(I1
g112
tp1164
a(I2
g94
tp1165
a(I3
g114
tp1166
a(I0
g94
tp1167
a(I1
g94
tp1168
a(I2
g112
tp1169
a(I3
g96
tp1170
a(I0
g112
tp1171
a(I1
g112
tp1172
a(I2
g112
tp1173
a(I3
g94
tp1174
a(I0
g114
tp1175
a(I1
g112
tp1176
a(I2
g112
tp1177
a(I3
g94
tp1178
a(I0
g96
tp1179
a(I1
g112
tp1180
a(I2
g112
tp1181
a(I3
g96
tp1182
a(I0
g94
tp1183
a(I1
g112
tp1184
a(I2
g114
tp1185
a(I3
g96
tp1186
a(I0
g94
tp1187
a(I1
g112
tp1188
a(I2
g114
tp1189
a(I3
g96
tp1190
a(I0
g114
tp1191
a(I1
g112
tp1192
a(I2
g96
tp1193
a(I3
g94
tp1194
a(I0
g154
tp1195
a(I1
g96
tp1196
a(I2
g114
tp1197
a(I3
g96
tp1198
a(I0
g154
tp1199
a(I1
g114
tp1200
a(I2
g114
tp1201
a(I3
g94
tp1202
a(I0
g114
tp1203
a(I1
g114
tp1204
a(I2
g96
tp1205
a(I3
g96
tp1206
a(I0
g114
tp1207
a(I1
g112
tp1208
a(I2
g94
tp1209
a(I3
g96
tp1210
a(I0
g112
tp1211
a(I1
g112
tp1212
a(I2
g96
tp1213
a(I3
g114
tp1214
a(I0
g96
tp1215
a(I1
g114
tp1216
a(I2
g96
tp1217
a(I3
g112
tp1218
a(I0
g112
tp1219
a(I1
g112
tp1220
a(I2
g94
tp1221
a(I3
g94
tp1222
a(I0
g112
tp1223
a(I1
g94
tp1224
a(I2
g94
tp1225
a(I3
g112
tp1226
a(I0
g96
tp1227
a(I1
g112
tp1228
a(I2
g94
tp1229
a(I3
g114
tp1230
a(I0
g96
tp1231
a(I1
g94
tp1232
a(I2
g112
tp1233
a(I3
g114
tp1234
a(I0
g154
tp1235
a(I1
g96
tp1236
a(I2
g112
tp1237
a(I3
g96
tp1238
a(I0
g154
tp1239
a(I1
g94
tp1240
a(I2
g114
tp1241
a(I3
g94
tp1242
a(I0
g112
tp1243
a(I1
g112
tp1244
a(I2
g96
tp1245
a(I3
g94
tp1246
a(I0
g112
tp1247
a(I1
g114
tp1248
a(I2
g94
tp1249
a(I3
g96
tp1250
a(I0
g96
tp1251
a(I1
g96
tp1252
a(I2
g96
tp1253
a(I3
g114
tp1254
a(I0
g96
tp1255
a(I1
g94
tp1256
a(I2
g114
tp1257
a(I3
g112
tp1258
a(I0
g96
tp1259
a(I1
g112
tp1260
a(I2
g114
tp1261
a(I3
g94
tp1262
a(I0
g154
tp1263
a(I1
g112
tp1264
a(I2
g96
tp1265
a(I3
g96
tp1266
a(I0
g94
tp1267
a(I1
g112
tp1268
a(I2
g96
tp1269
a(I3
g114
tp1270
a(I0
g154
tp1271
a(I1
g114
tp1272
a(I2
g114
tp1273
a(I3
g112
tp1274
a(I0
g114
tp1275
a(I1
g96
tp1276
a(I2
g112
tp1277
a(I3
g94
tp1278
a(I0
g114
tp1279
a(I1
g94
tp1280
a(I2
g94
tp1281
a(I3
g112
tp1282
a(I0
g94
tp1283
a(I1
g96
tp1284
a(I2
g112
tp1285
a(I3
g114
tp1286
a(I0
g114
tp1287
a(I1
g96
tp1288
a(I2
g94
tp1289
a(I3
g114
tp1290
a(I0
g154
tp1291
a(I1
g114
tp1292
a(I2
g94
tp1293
a(I3
g96
tp1294
a(I0
g94
tp1295
a(I1
g114
tp1296
a(I2
g112
tp1297
a(I3
g94
tp1298
a(I0
g112
tp1299
a(I1
g96
tp1300
a(I2
g112
tp1301
a(I3
g94
tp1302
a(I0
g112
tp1303
a(I1
g96
tp1304
a(I2
g114
tp1305
a(I3
g112
tp1306
a(I0
g154
tp1307
a(I1
g96
tp1308
a(I2
g96
tp1309
a(I3
g112
tp1310
a(I0
g112
tp1311
a(I1
g114
tp1312
a(I2
g94
tp1313
a(I3
g94
tp1314
a(I0
g154
tp1315
a(I1
g112
tp1316
a(I2
g96
tp1317
a(I3
g112
tp1318
a(I0
g112
tp1319
a(I1
g112
tp1320
a(I2
g114
tp1321
a(I3
g112
tp1322
a(I0
g96
tp1323
a(I1
g94
tp1324
a(I2
g112
tp1325
a(I3
g94
tp1326
a(I0
g112
tp1327
a(I1
g96
tp1328
a(I2
g94
tp1329
a(I3
g94
tp1330
a(I0
g94
tp1331
a(I1
g96
tp1332
a(I2
g96
tp1333
a(I3
g96
tp1334
a(I0
g114
tp1335
a(I1
g94
tp1336
a(I2
g114
tp1337
a(I3
g96
tp1338
a(I0
g96
tp1339
a(I1
g94
tp1340
a(I2
g112
tp1341
a(I3
g96
tp1342
a(I0
g96
tp1343
a(I1
g112
tp1344
a(I2
g94
tp1345
a(I3
g96
tp1346
a(I0
g94
tp1347
a(I1
g96
tp1348
a(I2
g96
tp1349
a(I3
g96
tp1350
a(I0
g154
tp1351
a(I1
g96
tp1352
a(I2
g114
tp1353
a(I3
g114
tp1354
a(I0
g94
tp1355
a(I1
g96
tp1356
a(I2
g114
tp1357
a(I3
g96
tp1358
a(I0
g154
tp1359
a(I1
g96
tp1360
a(I2
g96
tp1361
a(I3
g94
tp1362
a(I0
g154
tp1363
a(I1
g96
tp1364
a(I2
g114
tp1365
a(I3
g112
tp1366
a(I0
g114
tp1367
a(I1
g96
tp1368
a(I2
g96
tp1369
a(I3
g112
tp1370
a(I0
g96
tp1371
a(I1
g114
tp1372
a(I2
g94
tp1373
a(I3
g112
tp1374
a(I0
g114
tp1375
a(I1
g96
tp1376
a(I2
g112
tp1377
a(I3
g112
tp1378
a(I0
g94
tp1379
a(I1
g94
tp1380
a(I2
g112
tp1381
a(I3
g112
tp1382
a(I0
g114
tp1383
a(I1
g112
tp1384
a(I2
g94
tp1385
a(I3
g112
tp1386
a(I0
g96
tp1387
a(I1
g112
tp1388
a(I2
g94
tp1389
a(I3
g112
tp1390
a(I0
g94
tp1391
a(I1
g112
tp1392
a(I2
g112
tp1393
a(I3
g114
tp1394
a(I0
g154
tp1395
a(I1
g112
tp1396
a(I2
g114
tp1397
a(I3
g96
tp1398
a(I0
g112
tp1399
a(I1
g112
tp1400
a(I2
g96
tp1401
a(I3
g94
tp1402
a(I0
g112
tp1403
a(I1
g112
tp1404
a(I2
g94
tp1405
a(I3
g96
tp1406
a(I0
g112
tp1407
a(I1
g112
tp1408
a(I2
g112
tp1409
a(I3
g96
tp1410
a(I0
g94
tp1411
a(I1
g96
tp1412
a(I2
g114
tp1413
a(I3
g96
tp1414
a(I0
g154
tp1415
a(I1
g96
tp1416
a(I2
g96
tp1417
a(I3
g96
tp1418
a(I0
g94
tp1419
a(I1
g96
tp1420
a(I2
g94
tp1421
a(I3
g96
tp1422
a(I0
g154
tp1423
a(I1
g96
tp1424
a(I2
g112
tp1425
a(I3
g114
tp1426
a(I0
g96
tp1427
a(I1
g96
tp1428
a(I2
g112
tp1429
a(I3
g112
tp1430
a(I0
g154
tp1431
a(I1
g96
tp1432
a(I2
g112
tp1433
a(I3
g94
tp1434
a(I0
g154
tp1435
a(I1
g114
tp1436
a(I2
g114
tp1437
a(I3
g112
tp1438
a(I0
g96
tp1439
a(I1
g96
tp1440
a(I2
g96
tp1441
a(I3
g112
tp1442
a(I0
g96
tp1443
a(I1
g96
tp1444
a(I2
g94
tp1445
a(I3
g112
tp1446
a(I0
g112
tp1447
a(I1
g94
tp1448
a(I2
g96
tp1449
a(I3
g112
tp1450
a(I0
g114
tp1451
a(I1
g112
tp1452
a(I2
g96
tp1453
a(I3
g112
tp1454
a(I0
g112
tp1455
a(I1
g112
tp1456
a(I2
g114
tp1457
a(I3
g114
tp1458
a(I0
g96
tp1459
a(I1
g112
tp1460
a(I2
g112
tp1461
a(I3
g96
tp1462
a(I0
g96
tp1463
a(I1
g112
tp1464
a(I2
g94
tp1465
a(I3
g94
tp1466
a(I0
g96
tp1467
a(I1
g112
tp1468
a(I2
g96
tp1469
a(I3
g96
tp1470
a(I0
g96
tp1471
a(I1
g112
tp1472
a(I2
g114
tp1473
a(I3
g96
tp1474
a(I0
g112
tp1475
a(I1
g112
tp1476
a(I2
g114
tp1477
a(I3
g96
tp1478
a(I0
g96
tp1479
a(I1
g112
tp1480
a(I2
g96
tp1481
a(I3
g96
tp1482
a(I0
g96
tp1483
a(I1
g96
tp1484
a(I2
g96
tp1485
a(I3
g114
tp1486
a(I0
g96
tp1487
a(I1
g114
tp1488
a(I2
g96
tp1489
a(I3
g96
tp1490
a(I0
g96
tp1491
a(I1
g114
tp1492
a(I2
g94
tp1493
a(I3
g94
tp1494
a(I0
g96
tp1495
a(I1
g112
tp1496
a(I2
g94
tp1497
a(I3
g112
tp1498
a(I0
g114
tp1499
a(I1
g112
tp1500
a(I2
g112
tp1501
a(I3
g114
tp1502
a(I0
g114
tp1503
a(I1
g112
tp1504
a(I2
g96
tp1505
a(I3
g96
tp1506
a(I0
g94
tp1507
a(I1
g94
tp1508
a(I2
g96
tp1509
a(I3
g94
tp1510
a(I0
g96
tp1511
a(I1
g112
tp1512
a(I2
g114
tp1513
a(I3
g112
tp1514
a(I0
g112
tp1515
a(I1
g114
tp1516
a(I2
g112
tp1517
a(I3
g114
tp1518
a(I0
g154
tp1519
a(I1
g112
tp1520
as.