(dp1
S'layout'
p2
(ilayout
Layout
p3
(dp4
S'numGhosts'
p5
I3
sS'food'
p6
(igame
Grid
p7
(dp8
S'CELLS_PER_INT'
p9
I30
sS'width'
p10
I25
sS'data'
p11
(lp12
(lp13
I00
aI00
aI00
aI00
aI00
aI00
aI00
aI00
aI00
aI00
aI00
aI00
aa(lp14
I00
aI00
aI00
aI00
aI00
aI01
aI00
aI00
aI00
aI01
aI01
aI00
aa(lp15
I00
aI00
aI00
aI00
aI00
aI00
aI00
aI00
aI00
aI00
aI00
aI00
aa(lp16
I00
aI00
aI00
aI01
aI00
aI01
aI00
aI01
aI00
aI00
aI01
aI00
aa(lp17
I00
aI00
aI00
aI01
aI00
aI00
aI00
aI00
aI00
aI00
aI00
aI00
aa(lp18
I00
aI00
aI01
aI00
aI00
aI01
aI00
aI01
aI01
aI00
aI00
aI00
aa(lp19
I00
aI01
aI00
aI01
aI00
aI01
aI00
aI01
aI01
aI00
aI01
aI00
aa(lp20
I00
aI00
aI01
aI00
aI00
aI01
aI00
aI01
aI00
aI01
aI01
aI00
aa(lp21
I00
aI01
aI01
aI01
aI01
aI01
aI00
aI01
aI01
aI00
aI01
aI00
aa(lp22
I00
aI01
aI01
aI00
aI01
aI01
aI00
aI01
aI00
aI00
aI00
aI00
aa(lp23
I00
aI00
aI00
aI01
aI00
aI01
aI00
aI00
aI01
aI00
aI00
aI00
aa(lp24
I00
aI00
aI00
aI00
aI00
aI01
aI00
aI01
aI00
aI00
aI00
aI00
aa(lp25
I00
aI01
aI00
aI01
aI01
aI01
aI00
aI01
aI00
aI00
aI00
aI00
aa(lp26
I00
aI01
aI00
aI01
aI00
aI00
aI00
aI01
aI00
aI00
aI00
aI00
aa(lp27
I00
aI01
aI00
aI01
aI00
aI00
aI01
aI01
aI00
aI00
aI00
aI00
aa(lp28
I00
aI01
aI00
aI01
aI00
aI01
aI00
aI01
aI00
aI01
aI00
aI00
aa(lp29
I00
aI00
aI00
aI01
aI00
aI00
aI01
aI01
aI00
aI00
aI00
aI00
aa(lp30
I00
aI00
aI01
aI00
aI00
aI01
aI01
aI00
aI00
aI01
aI01
aI00
aa(lp31
I00
aI00
aI00
aI00
aI00
aI00
aI00
aI00
aI00
aI01
aI00
aI00
aa(lp32
I00
aI00
aI01
aI01
aI01
aI01
aI00
aI01
aI00
aI00
aI00
aI00
aa(lp33
I00
aI00
aI01
aI01
aI00
aI01
aI00
aI00
aI00
aI00
aI00
aI00
aa(lp34
I00
aI00
aI00
aI00
aI00
aI00
aI00
aI01
aI00
aI00
aI00
aI00
aa(lp35
I00
aI00
aI00
aI01
aI00
aI00
aI00
aI01
aI00
aI00
aI00
aI00
aa(lp36
I00
aI00
aI00
aI00
aI00
aI01
aI00
aI01
aI00
aI00
aI00
aI00
aa(lp37
I00
aI00
aI00
aI00
aI00
aI00
aI00
aI00
aI00
aI00
aI00
aI00
aasS'height'
p38
I12
sbsS'agentPositions'
p39
(lp40
(I01
(I20
I1
tp41
tp42
a(I00
(I21
I10
tp43
tp44
a(I00
(I22
I10
tp45
tp46
a(I00
(I23
I10
tp47
tp48
asg38
I12
sg10
I25
sS'walls'
p49
(igame
Grid
p50
(dp51
g9
I30
sg10
I25
sg11
(lp52
(lp53
I01
aI01
aI01
aI01
aI01
aI01
aI01
aI01
aI01
aI01
aI01
aI01
aa(lp54
I01
aI00
aI00
aI00
aI01
aI00
aI00
aI00
aI01
aI00
aI00
aI01
aa(lp55
I01
aI00
aI00
aI00
aI01
aI00
aI00
aI00
aI01
aI00
aI00
aI01
aa(lp56
I01
aI00
aI00
aI00
aI01
aI00
aI00
aI00
aI01
aI00
aI00
aI01
aa(lp57
I01
aI00
aI00
aI00
aI01
aI00
aI00
aI00
aI01
aI01
aI00
aI01
aa(lp58
I01
aI00
aI00
aI00
aI01
aI00
aI00
aI00
aI00
aI01
aI00
aI01
aa(lp59
I01
aI00
aI00
aI00
aI01
aI00
aI00
aI00
aI00
aI01
aI00
aI01
aa(lp60
I01
aI01
aI00
aI01
aI01
aI00
aI01
aI00
aI00
aI00
aI00
aI01
aa(lp61
I01
aI00
aI00
aI00
aI00
aI00
aI01
aI00
aI00
aI00
aI00
aI01
aa(lp62
I01
aI00
aI00
aI00
aI00
aI00
aI00
aI00
aI00
aI01
aI00
aI01
aa(lp63
I01
aI00
aI00
aI00
aI00
aI00
aI00
aI00
aI00
aI01
aI01
aI01
aa(lp64
I01
aI00
aI00
aI00
aI00
aI00
aI00
aI00
aI00
aI00
aI00
aI01
aa(lp65
I01
aI00
aI00
aI00
aI00
aI00
aI00
aI00
aI00
aI00
aI00
aI01
aa(lp66
I01
aI00
aI00
aI00
aI00
aI01
aI00
aI00
aI00
aI00
aI00
aI01
aa(lp67
I01
aI00
aI01
aI00
aI00
aI00
aI00
aI00
aI00
aI00
aI00
aI01
aa(lp68
I01
aI00
aI01
aI00
aI00
aI00
aI00
aI00
aI00
aI00
aI00
aI01
aa(lp69
I01
aI00
aI00
aI00
aI00
aI00
aI00
aI00
aI01
aI00
aI01
aI01
aa(lp70
I01
aI00
aI00
aI00
aI00
aI00
aI00
aI00
aI01
aI00
aI00
aI01
aa(lp71
I01
aI00
aI00
aI00
aI00
aI00
aI01
aI01
aI01
aI00
aI00
aI01
aa(lp72
I01
aI00
aI00
aI00
aI00
aI00
aI00
aI00
aI00
aI00
aI00
aI01
aa(lp73
I01
aI00
aI00
aI00
aI00
aI00
aI01
aI00
aI00
aI00
aI00
aI01
aa(lp74
I01
aI00
aI00
aI00
aI00
aI00
aI01
aI00
aI00
aI00
aI00
aI01
aa(lp75
I01
aI00
aI00
aI00
aI01
aI00
aI01
aI00
aI00
aI00
aI00
aI01
aa(lp76
I01
aI00
aI00
aI01
aI01
aI00
aI01
aI00
aI00
aI00
aI00
aI01
aa(lp77
I01
aI01
aI01
aI01
aI01
aI01
aI01
aI01
aI01
aI01
aI01
aI01
aasg38
I12
sbsS'layoutText'
p78
(lp79
S'%%%%%%%%%%%%%%%%%%%%%%%%%'
p80
aS'%. .  ... %     %.   GGG%'
p81
aS'%.  %%%. %%    . ..     %'
p82
aS'%%%%%.. . .     %%%     %'
p83
aS'%  . ..... ...... %. ...%'
p84
aS'%      %%     . ..% %%%%%'
p85
aS'%. . ........% . . ..  .%'
p86
aS'%%%%%%%%..  .      .  %%%'
p87
aS'%  .. .%. . .....  .. .%%'
p88
aS'%    . ...    %% . ..   %'
p89
aS'%     .%..  ....    P   %'
p90
aS'%%%%%%%%%%%%%%%%%%%%%%%%%'
p91
asbsS'actions'
p92
(lp93
(I0
S'North'
p94
tp95
a(I1
S'East'
p96
tp97
a(I2
S'West'
p98
tp99
a(I3
S'South'
p100
tp101
a(I0
g94
tp102
a(I1
g100
tp103
a(I2
g98
tp104
a(I3
g98
tp105
a(I0
g98
tp106
a(I1
g98
tp107
a(I2
g98
tp108
a(I3
g98
tp109
a(I0
g94
tp110
a(I1
g100
tp111
a(I2
g98
tp112
a(I3
g100
tp113
a(I0
g94
tp114
a(I1
g98
tp115
a(I2
g100
tp116
a(I3
g100
tp117
a(I0
g100
tp118
a(I1
g98
tp119
a(I2
g96
tp120
a(I3
g98
tp121
a(I0
g94
tp122
a(I1
g94
tp123
a(I2
g94
tp124
a(I3
g98
tp125
a(I0
g96
tp126
a(I1
g98
tp127
a(I2
g98
tp128
a(I3
g100
tp129
a(I0
g96
tp130
a(I1
g98
tp131
a(I2
g100
tp132
a(I3
g100
tp133
a(I0
g96
tp134
a(I1
g94
tp135
a(I2
g98
tp136
a(I3
g98
tp137
a(I0
g98
tp138
a(I1
g96
tp139
a(I2
g98
tp140
a(I3
g98
tp141
a(I0
g98
tp142
a(I1
g100
tp143
a(I2
g98
tp144
a(I3
g98
tp145
a(I0
g98
tp146
a(I1
g98
tp147
a(I2
g100
tp148
a(I3
g98
tp149
a(I0
S'Stop'
p150
tp151
a(I1
g98
tp152
a(I2
g98
tp153
a(I3
g100
tp154
a(I0
g94
tp155
a(I1
g98
tp156
a(I2
g98
tp157
a(I3
g98
tp158
a(I0
g150
tp159
a(I1
g94
tp160
a(I2
g98
tp161
a(I3
g98
tp162
a(I0
g94
tp163
a(I1
g98
tp164
a(I2
g98
tp165
a(I3
g100
tp166
a(I0
g94
tp167
a(I1
g98
tp168
a(I2
g98
tp169
a(I3
g100
tp170
a(I0
g100
tp171
a(I1
g98
tp172
a(I2
g100
tp173
a(I3
g98
tp174
a(I0
g94
tp175
a(I1
g98
tp176
a(I2
g98
tp177
a(I3
g98
tp178
a(I0
g96
tp179
a(I1
g100
tp180
a(I2
g100
tp181
a(I3
g98
tp182
a(I0
g98
tp183
a(I1
g96
tp184
a(I2
g100
tp185
a(I3
g98
tp186
a(I0
g96
tp187
a(I1
g94
tp188
a(I2
g98
tp189
a(I3
g98
tp190
a(I0
g94
tp191
a(I1
g98
tp192
a(I2
g100
tp193
a(I3
g98
tp194
a(I0
g100
tp195
a(I1
g100
tp196
a(I2
g96
tp197
a(I3
g98
tp198
a(I0
g94
tp199
a(I1
g100
tp200
a(I2
g100
tp201
a(I3
g98
tp202
a(I0
g98
tp203
a(I1
g98
tp204
a(I2
g98
tp205
a(I3
g98
tp206
a(I0
g96
tp207
a(I1
g98
tp208
a(I2
g94
tp209
a(I3
g98
tp210
a(I0
g96
tp211
a(I1
g98
tp212
a(I2
g94
tp213
a(I3
g98
tp214
a(I0
g96
tp215
a(I1
g94
tp216
a(I2
g98
tp217
a(I3
g98
tp218
a(I0
g94
tp219
a(I1
g94
tp220
a(I2
g98
tp221
a(I3
g100
tp222
a(I0
g100
tp223
a(I1
g98
tp224
a(I2
g98
tp225
a(I3
g96
tp226
a(I0
g98
tp227
a(I1
g98
tp228
a(I2
g98
tp229
a(I3
g94
tp230
a(I0
g150
tp231
a(I1
g98
tp232
a(I2
g94
tp233
a(I3
g96
tp234
a(I0
g100
tp235
a(I1
g98
tp236
a(I2
g98
tp237
a(I3
g94
tp238
a(I0
g94
tp239
a(I1
g98
tp240
a(I2
g100
tp241
a(I3
g96
tp242
a(I0
g100
tp243
a(I1
g98
tp244
a(I2
g98
tp245
a(I3
g96
tp246
a(I0
g150
tp247
a(I1
g98
tp248
a(I2
g98
tp249
a(I3
g100
tp250
a(I0
g94
tp251
a(I1
g100
tp252
a(I2
g94
tp253
a(I3
g98
tp254
a(I0
g96
tp255
a(I1
g96
tp256
a(I2
g96
tp257
a(I3
g100
tp258
a(I0
g100
tp259
a(I1
g94
tp260
a(I2
g100
tp261
a(I3
g98
tp262
a(I0
g100
tp263
a(I1
g96
tp264
a(I2
g96
tp265
a(I3
g94
tp266
a(I0
g150
tp267
a(I1
g96
tp268
a(I2
g94
tp269
a(I3
g94
tp270
a(I0
g94
tp271
a(I1
g96
tp272
a(I2
g96
tp273
a(I3
g96
tp274
a(I0
g94
tp275
a(I1
g96
tp276
a(I2
g100
tp277
a(I3
g96
tp278
a(I0
g98
tp279
a(I1
g96
tp280
a(I2
g98
tp281
a(I3
g100
tp282
a(I0
g100
tp283
a(I1
g96
tp284
a(I2
g98
tp285
a(I3
g98
tp286
a(I0
g98
tp287
a(I1
g100
tp288
a(I2
g98
tp289
a(I3
g94
tp290
a(I0
g100
tp291
a(I1
g98
tp292
a(I2
g94
tp293
a(I3
g96
tp294
a(I0
g150
tp295
a(I1
g94
tp296
a(I2
g96
tp297
a(I3
g100
tp298
a(I0
g96
tp299
a(I1
g98
tp300
a(I2
g100
tp301
a(I3
g98
tp302
a(I0
g94
tp303
a(I1
g98
tp304
a(I2
g96
tp305
a(I3
g94
tp306
a(I0
g100
tp307
a(I1
g98
tp308
a(I2
g94
tp309
a(I3
g98
tp310
a(I0
g150
tp311
a(I1
g98
tp312
a(I2
g98
tp313
a(I3
g98
tp314
a(I0
g94
tp315
a(I1
g98
tp316
a(I2
g100
tp317
a(I3
g98
tp318
a(I0
g100
tp319
a(I1
g98
tp320
a(I2
g96
tp321
a(I3
g100
tp322
a(I0
g98
tp323
a(I1
g100
tp324
a(I2
g94
tp325
a(I3
g96
tp326
a(I0
g98
tp327
a(I1
g96
tp328
a(I2
g98
tp329
a(I3
g94
tp330
a(I0
g96
tp331
a(I1
g94
tp332
a(I2
g94
tp333
a(I3
g96
tp334
a(I0
g96
tp335
a(I1
g96
tp336
a(I2
g98
tp337
a(I3
g100
tp338
a(I0
g98
tp339
a(I1
g100
tp340
a(I2
g100
tp341
a(I3
g96
tp342
a(I0
g96
tp343
a(I1
g98
tp344
a(I2
g96
tp345
a(I3
g94
tp346
a(I0
g98
tp347
a(I1
g94
tp348
a(I2
g100
tp349
a(I3
g98
tp350
a(I0
g94
tp351
a(I1
g96
tp352
a(I2
g98
tp353
a(I3
g98
tp354
a(I0
g96
tp355
a(I1
g96
tp356
a(I2
g94
tp357
a(I3
g100
tp358
a(I0
g94
tp359
a(I1
g96
tp360
a(I2
g96
tp361
a(I3
g96
tp362
a(I0
g150
tp363
a(I1
g96
tp364
a(I2
g100
tp365
a(I3
g94
tp366
a(I0
g96
tp367
a(I1
g96
tp368
a(I2
g98
tp369
a(I3
g98
tp370
a(I0
g96
tp371
a(I1
g96
tp372
a(I2
g94
tp373
a(I3
g100
tp374
a(I0
g150
tp375
a(I1
g100
tp376
a(I2
g96
tp377
a(I3
g100
tp378
a(I0
g98
tp379
a(I1
g98
tp380
a(I2
g100
tp381
a(I3
g96
tp382
a(I0
g98
tp383
a(I1
g94
tp384
a(I2
g98
tp385
a(I3
g94
tp386
a(I0
g94
tp387
a(I1
g98
tp388
a(I2
g94
tp389
a(I3
g94
tp390
a(I0
g98
tp391
a(I1
g98
tp392
a(I2
g96
tp393
a(I3
g96
tp394
a(I0
g100
tp395
a(I1
g98
tp396
a(I2
g100
tp397
a(I3
g100
tp398
a(I0
g98
tp399
a(I1
g98
tp400
a(I2
g98
tp401
a(I3
g98
tp402
a(I0
g94
tp403
a(I1
g100
tp404
a(I2
g94
tp405
a(I3
g100
tp406
a(I0
g98
tp407
a(I1
g98
tp408
a(I2
g96
tp409
a(I3
g96
tp410
a(I0
g150
tp411
a(I1
g94
tp412
a(I2
g100
tp413
a(I3
g94
tp414
a(I0
g96
tp415
a(I1
g96
tp416
a(I2
g96
tp417
a(I3
g98
tp418
a(I0
g98
tp419
a(I1
g96
tp420
a(I2
g96
tp421
a(I3
g94
tp422
a(I0
g96
tp423
a(I1
g96
tp424
a(I2
g94
tp425
a(I3
g98
tp426
a(I0
g150
tp427
a(I1
g96
tp428
a(I2
g98
tp429
a(I3
g100
tp430
a(I0
g96
tp431
a(I1
g96
tp432
a(I2
g98
tp433
a(I3
g96
tp434
a(I0
g96
tp435
a(I1
g96
tp436
a(I2
g98
tp437
a(I3
g94
tp438
a(I0
g150
tp439
a(I1
g96
tp440
a(I2
g100
tp441
a(I3
g96
tp442
a(I0
g96
tp443
a(I1
g98
tp444
a(I2
g96
tp445
a(I3
g96
tp446
a(I0
g96
tp447
a(I1
g98
tp448
a(I2
g94
tp449
a(I3
g96
tp450
a(I0
g150
tp451
a(I1
g98
tp452
a(I2
g94
tp453
a(I3
g100
tp454
a(I0
g98
tp455
a(I1
g98
tp456
a(I2
g98
tp457
a(I3
g96
tp458
a(I0
g100
tp459
a(I1
g98
tp460
a(I2
g100
tp461
a(I3
g96
tp462
a(I0
g100
tp463
a(I1
g98
tp464
a(I2
g96
tp465
a(I3
g94
tp466
a(I0
g98
tp467
a(I1
g100
tp468
a(I2
g100
tp469
a(I3
g96
tp470
a(I0
g100
tp471
a(I1
g98
tp472
a(I2
g98
tp473
a(I3
g94
tp474
a(I0
g98
tp475
a(I1
g94
tp476
a(I2
g94
tp477
a(I3
g98
tp478
a(I0
g94
tp479
a(I1
g96
tp480
a(I2
g94
tp481
a(I3
g94
tp482
a(I0
g150
tp483
a(I1
g96
tp484
a(I2
g96
tp485
a(I3
g96
tp486
a(I0
g96
tp487
a(I1
g96
tp488
a(I2
g100
tp489
a(I3
g96
tp490
a(I0
g150
tp491
a(I1
g96
tp492
a(I2
g100
tp493
a(I3
g100
tp494
a(I0
g100
tp495
a(I1
g96
tp496
a(I2
g96
tp497
a(I3
g98
tp498
a(I0
g94
tp499
a(I1
g100
tp500
a(I2
g94
tp501
a(I3
g94
tp502
a(I0
g100
tp503
a(I1
g96
tp504
a(I2
g94
tp505
a(I3
g96
tp506
a(I0
g98
tp507
a(I1
g94
tp508
a(I2
g98
tp509
a(I3
g100
tp510
a(I0
g96
tp511
a(I1
g98
tp512
a(I2
g100
tp513
a(I3
g98
tp514
a(I0
g98
tp515
a(I1
g98
tp516
a(I2
g96
tp517
a(I3
g98
tp518
a(I0
g96
tp519
a(I1
g98
tp520
a(I2
g100
tp521
a(I3
g100
tp522
a(I0
g98
tp523
a(I1
g98
tp524
a(I2
g98
tp525
a(I3
g100
tp526
a(I0
g94
tp527
a(I1
g98
tp528
a(I2
g94
tp529
a(I3
g98
tp530
a(I0
g100
tp531
a(I1
g100
tp532
a(I2
g94
tp533
a(I3
g98
tp534
a(I0
g94
tp535
a(I1
g98
tp536
a(I2
g98
tp537
a(I3
g100
tp538
a(I0
g94
tp539
a(I1
g94
tp540
a(I2
g100
tp541
a(I3
g98
tp542
a(I0
g100
tp543
a(I1
g98
tp544
a(I2
g96
tp545
a(I3
g94
tp546
a(I0
g96
tp547
a(I1
g100
tp548
a(I2
g100
tp549
a(I3
g98
tp550
a(I0
g150
tp551
a(I1
g96
tp552
a(I2
g98
tp553
a(I3
g98
tp554
a(I0
g100
tp555
a(I1
g94
tp556
a(I2
g94
tp557
a(I3
g98
tp558
a(I0
g94
tp559
a(I1
g96
tp560
a(I2
g96
tp561
a(I3
g94
tp562
a(I0
g96
tp563
a(I1
g96
tp564
a(I2
g100
tp565
a(I3
g96
tp566
a(I0
g94
tp567
a(I1
g96
tp568
a(I2
g96
tp569
a(I3
g100
tp570
a(I0
g98
tp571
a(I1
g96
tp572
a(I2
g96
tp573
a(I3
g96
tp574
a(I0
g94
tp575
a(I1
g96
tp576
a(I2
g94
tp577
a(I3
g94
tp578
a(I0
g150
tp579
a(I1
g100
tp580
a(I2
g94
tp581
a(I3
g98
tp582
a(I0
g100
tp583
a(I1
g100
tp584
a(I2
g98
tp585
a(I3
g98
tp586
a(I0
g150
tp587
a(I1
g98
tp588
a(I2
g100
tp589
a(I3
g100
tp590
a(I0
g100
tp591
a(I1
g98
tp592
a(I2
g98
tp593
a(I3
g96
tp594
a(I0
g150
tp595
a(I1
g100
tp596
a(I2
g100
tp597
a(I3
g94
tp598
a(I0
g96
tp599
a(I1
g98
tp600
a(I2
g98
tp601
a(I3
g98
tp602
a(I0
g96
tp603
a(I1
g98
tp604
a(I2
g94
tp605
a(I3
g100
tp606
a(I0
g98
tp607
a(I1
g100
tp608
a(I2
g96
tp609
a(I3
g100
tp610
a(I0
g94
tp611
a(I1
g100
tp612
a(I2
g100
tp613
a(I3
g96
tp614
a(I0
g100
tp615
a(I1
g98
tp616
a(I2
g98
tp617
a(I3
g94
tp618
a(I0
g150
tp619
a(I1
g94
tp620
a(I2
g94
tp621
a(I3
g98
tp622
a(I0
g94
tp623
a(I1
g96
tp624
a(I2
g94
tp625
a(I3
g94
tp626
a(I0
g94
tp627
a(I1
g94
tp628
a(I2
g96
tp629
a(I3
g96
tp630
a(I0
g100
tp631
a(I1
g98
tp632
a(I2
g100
tp633
a(I3
g100
tp634
a(I0
g94
tp635
a(I1
g100
tp636
a(I2
g96
tp637
a(I3
g96
tp638
a(I0
g96
tp639
a(I1
g96
tp640
a(I2
g94
tp641
a(I3
g94
tp642
a(I0
g100
tp643
a(I1
g94
tp644
a(I2
g96
tp645
a(I3
g98
tp646
a(I0
g150
tp647
a(I1
g98
tp648
a(I2
g96
tp649
a(I3
g98
tp650
a(I0
g98
tp651
a(I1
g98
tp652
a(I2
g94
tp653
a(I3
g98
tp654
a(I0
g98
tp655
a(I1
g100
tp656
a(I2
g96
tp657
a(I3
g100
tp658
a(I0
g96
tp659
a(I1
g96
tp660
a(I2
g96
tp661
a(I3
g96
tp662
a(I0
g100
tp663
a(I1
g96
tp664
a(I2
g94
tp665
a(I3
g96
tp666
a(I0
g96
tp667
a(I1
g100
tp668
a(I2
g96
tp669
a(I3
g94
tp670
a(I0
g98
tp671
a(I1
g96
tp672
a(I2
g94
tp673
a(I3
g98
tp674
a(I0
g100
tp675
a(I1
g94
tp676
a(I2
g98
tp677
a(I3
g98
tp678
a(I0
g150
tp679
a(I1
g94
tp680
a(I2
g98
tp681
a(I3
g100
tp682
a(I0
g98
tp683
a(I1
g98
tp684
a(I2
g98
tp685
a(I3
g96
tp686
a(I0
g94
tp687
a(I1
g98
tp688
a(I2
g98
tp689
a(I3
g96
tp690
a(I0
g100
tp691
a(I1
g98
tp692
a(I2
g98
tp693
a(I3
g94
tp694
a(I0
g150
tp695
a(I1
g100
tp696
a(I2
g98
tp697
a(I3
g98
tp698
a(I0
g150
tp699
a(I1
g96
tp700
a(I2
g98
tp701
a(I3
g100
tp702
a(I0
g96
tp703
a(I1
g94
tp704
a(I2
g100
tp705
a(I3
g96
tp706
a(I0
g150
tp707
a(I1
g96
tp708
a(I2
g96
tp709
a(I3
g94
tp710
a(I0
g94
tp711
a(I1
g96
tp712
a(I2
g94
tp713
a(I3
g96
tp714
a(I0
g150
tp715
a(I1
g96
tp716
a(I2
g96
tp717
a(I3
g100
tp718
a(I0
g98
tp719
a(I1
g96
tp720
a(I2
g100
tp721
a(I3
g98
tp722
a(I0
g150
tp723
a(I1
g96
tp724
a(I2
g98
tp725
a(I3
g94
tp726
a(I0
g150
tp727
a(I1
g94
tp728
a(I2
g94
tp729
a(I3
g98
tp730
a(I0
g150
tp731
a(I1
g98
tp732
a(I2
g98
tp733
a(I3
g98
tp734
a(I0
g100
tp735
a(I1
g98
tp736
a(I2
g100
tp737
a(I3
g100
tp738
a(I0
g150
tp739
a(I1
g100
tp740
a(I2
g96
tp741
a(I3
g96
tp742
a(I0
g94
tp743
a(I1
g98
tp744
a(I2
g94
tp745
a(I3
g94
tp746
a(I0
g150
tp747
a(I1
g98
tp748
a(I2
g96
tp749
a(I3
g96
tp750
a(I0
g98
tp751
a(I1
g98
tp752
a(I2
g100
tp753
a(I3
g100
tp754
a(I0
g98
tp755
a(I1
g98
tp756
a(I2
g98
tp757
a(I3
g100
tp758
a(I0
g100
tp759
a(I1
g100
tp760
a(I2
g94
tp761
a(I3
g96
tp762
a(I0
g100
tp763
a(I1
g100
tp764
a(I2
g96
tp765
a(I3
g96
tp766
a(I0
g150
tp767
a(I1
g96
tp768
a(I2
g100
tp769
a(I3
g96
tp770
a(I0
g94
tp771
a(I1
g96
tp772
a(I2
g98
tp773
a(I3
g94
tp774
a(I0
g100
tp775
a(I1
g96
tp776
a(I2
g94
tp777
a(I3
g94
tp778
a(I0
g150
tp779
a(I1
g96
tp780
a(I2
g96
tp781
a(I3
g98
tp782
a(I0
g94
tp783
a(I1
g94
tp784
a(I2
g100
tp785
a(I3
g100
tp786
a(I0
g150
tp787
a(I1
g96
tp788
a(I2
g98
tp789
a(I3
g96
tp790
a(I0
g150
tp791
a(I1
g94
tp792
a(I2
g94
tp793
a(I3
g94
tp794
a(I0
g100
tp795
a(I1
g94
tp796
a(I2
g98
tp797
a(I3
g98
tp798
a(I0
g100
tp799
a(I1
g96
tp800
a(I2
g100
tp801
a(I3
g100
tp802
a(I0
g94
tp803
a(I1
g100
tp804
a(I2
g96
tp805
a(I3
g100
tp806
a(I0
g94
tp807
a(I1
g96
tp808
a(I2
g96
tp809
a(I3
g98
tp810
a(I0
g96
tp811
a(I1
g96
tp812
a(I2
g94
tp813
a(I3
g94
tp814
a(I0
g98
tp815
a(I1
g100
tp816
a(I2
g96
tp817
a(I3
g94
tp818
a(I0
g150
tp819
a(I1
g100
tp820
a(I2
g96
tp821
a(I3
g96
tp822
a(I0
g150
tp823
a(I1
g100
tp824
a(I2
g96
tp825
a(I3
g100
tp826
a(I0
g100
tp827
a(I1
g98
tp828
a(I2
g96
tp829
a(I3
g96
tp830
a(I0
g100
tp831
a(I1
g100
tp832
a(I2
g96
tp833
a(I3
g96
tp834
a(I0
g98
tp835
a(I1
g100
tp836
a(I2
g96
tp837
a(I3
g96
tp838
a(I0
g96
tp839
a(I1
g98
tp840
a(I2
g98
tp841
a(I3
g94
tp842
a(I0
g100
tp843
a(I1
g98
tp844
a(I2
g100
tp845
a(I3
g96
tp846
a(I0
g150
tp847
a(I1
g98
tp848
a(I2
g98
tp849
a(I3
g94
tp850
a(I0
g150
tp851
a(I1
g98
tp852
a(I2
g94
tp853
a(I3
g96
tp854
a(I0
g98
tp855
a(I1
g98
tp856
a(I2
g96
tp857
a(I3
g94
tp858
a(I0
g94
tp859
a(I1
g98
tp860
a(I2
g96
tp861
a(I3
g98
tp862
a(I0
g98
tp863
a(I1
g100
tp864
a(I2
g98
tp865
a(I3
g98
tp866
a(I0
g94
tp867
a(I1
g96
tp868
a(I2
g100
tp869
a(I3
g98
tp870
a(I0
g100
tp871
a(I1
g94
tp872
a(I2
g98
tp873
a(I3
g98
tp874
a(I0
g150
tp875
a(I1
g98
tp876
a(I2
g100
tp877
a(I3
g98
tp878
a(I0
g94
tp879
a(I1
g94
tp880
a(I2
g96
tp881
a(I3
g94
tp882
a(I0
g150
tp883
a(I1
g96
tp884
a(I2
g94
tp885
a(I3
g94
tp886
a(I0
g94
tp887
a(I1
g96
tp888
a(I2
g94
tp889
a(I3
g94
tp890
a(I0
g98
tp891
a(I1
g100
tp892
a(I2
g96
tp893
a(I3
g96
tp894
a(I0
g98
tp895
a(I1
g98
tp896
a(I2
g98
tp897
a(I3
g100
tp898
a(I0
g100
tp899
a(I1
g94
tp900
a(I2
g100
tp901
a(I3
g98
tp902
a(I0
g98
tp903
a(I1
g96
tp904
a(I2
g100
tp905
a(I3
g98
tp906
a(I0
g150
tp907
a(I1
g100
tp908
a(I2
g96
tp909
a(I3
g98
tp910
a(I0
g96
tp911
a(I1
g98
tp912
a(I2
g96
tp913
a(I3
g100
tp914
a(I0
g96
tp915
a(I1
g94
tp916
a(I2
g96
tp917
a(I3
g100
tp918
a(I0
g96
tp919
a(I1
g96
tp920
a(I2
g94
tp921
a(I3
g96
tp922
a(I0
g98
tp923
a(I1
g96
tp924
a(I2
g96
tp925
a(I3
g94
tp926
a(I0
g150
tp927
a(I1
g100
tp928
a(I2
g94
tp929
a(I3
g94
tp930
a(I0
g94
tp931
a(I1
g98
tp932
a(I2
g98
tp933
a(I3
g98
tp934
a(I0
g96
tp935
a(I1
g94
tp936
a(I2
g100
tp937
a(I3
g98
tp938
a(I0
g100
tp939
a(I1
g98
tp940
a(I2
g100
tp941
a(I3
g100
tp942
a(I0
g94
tp943
a(I1
g100
tp944
a(I2
g98
tp945
a(I3
g96
tp946
a(I0
g98
tp947
a(I1
g100
tp948
a(I2
g98
tp949
a(I3
g96
tp950
a(I0
g96
tp951
a(I1
g98
tp952
a(I2
g100
tp953
a(I3
g94
tp954
a(I0
g100
tp955
a(I1
g94
tp956
a(I2
g100
tp957
a(I3
g98
tp958
a(I0
g94
tp959
a(I1
g94
tp960
a(I2
g100
tp961
a(I3
g98
tp962
a(I0
g98
tp963
a(I1
g96
tp964
a(I2
g96
tp965
a(I3
g98
tp966
a(I0
g150
tp967
a(I1
g96
tp968
a(I2
g100
tp969
a(I3
g100
tp970
a(I0
g98
tp971
a(I1
g100
tp972
a(I2
g100
tp973
a(I3
g96
tp974
a(I0
g94
tp975
a(I1
g98
tp976
a(I2
g100
tp977
a(I3
g96
tp978
a(I0
g98
tp979
a(I1
g94
tp980
a(I2
g98
tp981
a(I3
g96
tp982
a(I0
g150
tp983
a(I1
g96
tp984
a(I2
g98
tp985
a(I3
g94
tp986
a(I0
g100
tp987
a(I1
g100
tp988
a(I2
g98
tp989
a(I3
g96
tp990
a(I0
g98
tp991
a(I1
g96
tp992
a(I2
g98
tp993
a(I3
g94
tp994
a(I0
g98
tp995
a(I1
g94
tp996
a(I2
g98
tp997
a(I3
g96
tp998
a(I0
g98
tp999
a(I1
g98
tp1000
a(I2
g98
tp1001
a(I3
g96
tp1002
a(I0
g100
tp1003
a(I1
g100
tp1004
a(I2
g98
tp1005
a(I3
g94
tp1006
a(I0
g100
tp1007
a(I1
g98
tp1008
a(I2
g98
tp1009
a(I3
g94
tp1010
a(I0
g94
tp1011
a(I1
g94
tp1012
a(I2
g100
tp1013
a(I3
g96
tp1014
a(I0
g150
tp1015
a(I1
g98
tp1016
a(I2
g96
tp1017
a(I3
g96
tp1018
a(I0
g94
tp1019
a(I1
g98
tp1020
a(I2
g96
tp1021
a(I3
g98
tp1022
a(I0
g150
tp1023
a(I1
g100
tp1024
a(I2
g96
tp1025
a(I3
g98
tp1026
a(I0
g96
tp1027
a(I1
g96
tp1028
a(I2
g96
tp1029
a(I3
g100
tp1030
a(I0
g150
tp1031
a(I1
g96
tp1032
a(I2
g94
tp1033
a(I3
g96
tp1034
a(I0
g150
tp1035
a(I1
g100
tp1036
a(I2
g96
tp1037
a(I3
g100
tp1038
a(I0
g100
tp1039
a(I1
g98
tp1040
a(I2
g96
tp1041
a(I3
g96
tp1042
a(I0
g100
tp1043
a(I1
g94
tp1044
a(I2
g94
tp1045
a(I3
g100
tp1046
a(I0
g150
tp1047
a(I1
g96
tp1048
a(I2
g94
tp1049
a(I3
g96
tp1050
a(I0
g98
tp1051
a(I1
g94
tp1052
a(I2
g96
tp1053
a(I3
g94
tp1054
a(I0
g94
tp1055
a(I1
g96
tp1056
a(I2
g96
tp1057
a(I3
g96
tp1058
a(I0
g94
tp1059
a(I1
g96
tp1060
a(I2
g94
tp1061
a(I3
g100
tp1062
as.