(dp1
S'layout'
p2
(ilayout
Layout
p3
(dp4
S'numGhosts'
p5
I3
sS'food'
p6
(igame
Grid
p7
(dp8
S'CELLS_PER_INT'
p9
I30
sS'width'
p10
I25
sS'data'
p11
(lp12
(lp13
I00
aI00
aI00
aI00
aI00
aI00
aI00
aI00
aI00
aI00
aI00
aI00
aa(lp14
I00
aI00
aI00
aI00
aI00
aI01
aI00
aI00
aI00
aI01
aI01
aI00
aa(lp15
I00
aI00
aI00
aI00
aI00
aI00
aI00
aI00
aI00
aI00
aI00
aI00
aa(lp16
I00
aI00
aI00
aI01
aI00
aI01
aI00
aI01
aI00
aI00
aI01
aI00
aa(lp17
I00
aI00
aI00
aI01
aI00
aI00
aI00
aI00
aI00
aI00
aI00
aI00
aa(lp18
I00
aI00
aI01
aI00
aI00
aI01
aI00
aI01
aI01
aI00
aI00
aI00
aa(lp19
I00
aI01
aI00
aI01
aI00
aI01
aI00
aI01
aI01
aI00
aI01
aI00
aa(lp20
I00
aI00
aI01
aI00
aI00
aI01
aI00
aI01
aI00
aI01
aI01
aI00
aa(lp21
I00
aI01
aI01
aI01
aI01
aI01
aI00
aI01
aI01
aI00
aI01
aI00
aa(lp22
I00
aI01
aI01
aI00
aI01
aI01
aI00
aI01
aI00
aI00
aI00
aI00
aa(lp23
I00
aI00
aI00
aI01
aI00
aI01
aI00
aI00
aI01
aI00
aI00
aI00
aa(lp24
I00
aI00
aI00
aI00
aI00
aI01
aI00
aI01
aI00
aI00
aI00
aI00
aa(lp25
I00
aI01
aI00
aI01
aI01
aI01
aI00
aI01
aI00
aI00
aI00
aI00
aa(lp26
I00
aI01
aI00
aI01
aI00
aI00
aI00
aI01
aI00
aI00
aI00
aI00
aa(lp27
I00
aI01
aI00
aI01
aI00
aI00
aI01
aI01
aI00
aI00
aI00
aI00
aa(lp28
I00
aI01
aI00
aI01
aI00
aI01
aI00
aI01
aI00
aI01
aI00
aI00
aa(lp29
I00
aI00
aI00
aI01
aI00
aI00
aI01
aI01
aI00
aI00
aI00
aI00
aa(lp30
I00
aI00
aI01
aI00
aI00
aI01
aI01
aI00
aI00
aI01
aI01
aI00
aa(lp31
I00
aI00
aI00
aI00
aI00
aI00
aI00
aI00
aI00
aI01
aI00
aI00
aa(lp32
I00
aI00
aI01
aI01
aI01
aI01
aI00
aI01
aI00
aI00
aI00
aI00
aa(lp33
I00
aI00
aI01
aI01
aI00
aI01
aI00
aI00
aI00
aI00
aI00
aI00
aa(lp34
I00
aI00
aI00
aI00
aI00
aI00
aI00
aI01
aI00
aI00
aI00
aI00
aa(lp35
I00
aI00
aI00
aI01
aI00
aI00
aI00
aI01
aI00
aI00
aI00
aI00
aa(lp36
I00
aI00
aI00
aI00
aI00
aI01
aI00
aI01
aI00
aI00
aI00
aI00
aa(lp37
I00
aI00
aI00
aI00
aI00
aI00
aI00
aI00
aI00
aI00
aI00
aI00
aasS'height'
p38
I12
sbsS'agentPositions'
p39
(lp40
(I01
(I20
I1
tp41
tp42
a(I00
(I21
I10
tp43
tp44
a(I00
(I22
I10
tp45
tp46
a(I00
(I23
I10
tp47
tp48
asg38
I12
sg10
I25
sS'walls'
p49
(igame
Grid
p50
(dp51
g9
I30
sg10
I25
sg11
(lp52
(lp53
I01
aI01
aI01
aI01
aI01
aI01
aI01
aI01
aI01
aI01
aI01
aI01
aa(lp54
I01
aI00
aI00
aI00
aI01
aI00
aI00
aI00
aI01
aI00
aI00
aI01
aa(lp55
I01
aI00
aI00
aI00
aI01
aI00
aI00
aI00
aI01
aI00
aI00
aI01
aa(lp56
I01
aI00
aI00
aI00
aI01
aI00
aI00
aI00
aI01
aI00
aI00
aI01
aa(lp57
I01
aI00
aI00
aI00
aI01
aI00
aI00
aI00
aI01
aI01
aI00
aI01
aa(lp58
I01
aI00
aI00
aI00
aI01
aI00
aI00
aI00
aI00
aI01
aI00
aI01
aa(lp59
I01
aI00
aI00
aI00
aI01
aI00
aI00
aI00
aI00
aI01
aI00
aI01
aa(lp60
I01
aI01
aI00
aI01
aI01
aI00
aI01
aI00
aI00
aI00
aI00
aI01
aa(lp61
I01
aI00
aI00
aI00
aI00
aI00
aI01
aI00
aI00
aI00
aI00
aI01
aa(lp62
I01
aI00
aI00
aI00
aI00
aI00
aI00
aI00
aI00
aI01
aI00
aI01
aa(lp63
I01
aI00
aI00
aI00
aI00
aI00
aI00
aI00
aI00
aI01
aI01
aI01
aa(lp64
I01
aI00
aI00
aI00
aI00
aI00
aI00
aI00
aI00
aI00
aI00
aI01
aa(lp65
I01
aI00
aI00
aI00
aI00
aI00
aI00
aI00
aI00
aI00
aI00
aI01
aa(lp66
I01
aI00
aI00
aI00
aI00
aI01
aI00
aI00
aI00
aI00
aI00
aI01
aa(lp67
I01
aI00
aI01
aI00
aI00
aI00
aI00
aI00
aI00
aI00
aI00
aI01
aa(lp68
I01
aI00
aI01
aI00
aI00
aI00
aI00
aI00
aI00
aI00
aI00
aI01
aa(lp69
I01
aI00
aI00
aI00
aI00
aI00
aI00
aI00
aI01
aI00
aI01
aI01
aa(lp70
I01
aI00
aI00
aI00
aI00
aI00
aI00
aI00
aI01
aI00
aI00
aI01
aa(lp71
I01
aI00
aI00
aI00
aI00
aI00
aI01
aI01
aI01
aI00
aI00
aI01
aa(lp72
I01
aI00
aI00
aI00
aI00
aI00
aI00
aI00
aI00
aI00
aI00
aI01
aa(lp73
I01
aI00
aI00
aI00
aI00
aI00
aI01
aI00
aI00
aI00
aI00
aI01
aa(lp74
I01
aI00
aI00
aI00
aI00
aI00
aI01
aI00
aI00
aI00
aI00
aI01
aa(lp75
I01
aI00
aI00
aI00
aI01
aI00
aI01
aI00
aI00
aI00
aI00
aI01
aa(lp76
I01
aI00
aI00
aI01
aI01
aI00
aI01
aI00
aI00
aI00
aI00
aI01
aa(lp77
I01
aI01
aI01
aI01
aI01
aI01
aI01
aI01
aI01
aI01
aI01
aI01
aasg38
I12
sbsS'layoutText'
p78
(lp79
S'%%%%%%%%%%%%%%%%%%%%%%%%%'
p80
aS'%. .  ... %     %.   GGG%'
p81
aS'%.  %%%. %%    . ..     %'
p82
aS'%%%%%.. . .     %%%     %'
p83
aS'%  . ..... ...... %. ...%'
p84
aS'%      %%     . ..% %%%%%'
p85
aS'%. . ........% . . ..  .%'
p86
aS'%%%%%%%%..  .      .  %%%'
p87
aS'%  .. .%. . .....  .. .%%'
p88
aS'%    . ...    %% . ..   %'
p89
aS'%     .%..  ....    P   %'
p90
aS'%%%%%%%%%%%%%%%%%%%%%%%%%'
p91
asbsS'actions'
p92
(lp93
(I0
S'North'
p94
tp95
a(I1
S'South'
p96
tp97
a(I2
g96
tp98
a(I3
S'West'
p99
tp100
a(I0
g94
tp101
a(I1
S'East'
p102
tp103
a(I2
g96
tp104
a(I3
g99
tp105
a(I0
S'Stop'
p106
tp107
a(I1
g96
tp108
a(I2
g99
tp109
a(I3
g96
tp110
a(I0
g102
tp111
a(I1
g99
tp112
a(I2
g96
tp113
a(I3
g102
tp114
a(I0
g94
tp115
a(I1
g99
tp116
a(I2
g99
tp117
a(I3
g94
tp118
a(I0
g96
tp119
a(I1
g99
tp120
a(I2
g99
tp121
a(I3
g99
tp122
a(I0
g99
tp123
a(I1
g96
tp124
a(I2
g96
tp125
a(I3
g99
tp126
a(I0
g102
tp127
a(I1
g96
tp128
a(I2
g96
tp129
a(I3
g99
tp130
a(I0
g106
tp131
a(I1
g96
tp132
a(I2
g99
tp133
a(I3
g99
tp134
a(I0
g96
tp135
a(I1
g96
tp136
a(I2
g99
tp137
a(I3
g99
tp138
a(I0
g99
tp139
a(I1
g99
tp140
a(I2
g99
tp141
a(I3
g96
tp142
a(I0
g94
tp143
a(I1
g99
tp144
a(I2
g96
tp145
a(I3
g102
tp146
a(I0
g96
tp147
a(I1
g96
tp148
a(I2
g96
tp149
a(I3
g94
tp150
a(I0
g96
tp151
a(I1
g99
tp152
a(I2
g99
tp153
a(I3
g99
tp154
a(I0
g99
tp155
a(I1
g99
tp156
a(I2
g99
tp157
a(I3
g96
tp158
a(I0
g102
tp159
a(I1
g99
tp160
a(I2
g99
tp161
a(I3
g99
tp162
a(I0
g94
tp163
a(I1
g99
tp164
a(I2
g96
tp165
a(I3
g99
tp166
a(I0
g106
tp167
a(I1
g96
tp168
a(I2
g99
tp169
a(I3
g94
tp170
a(I0
g106
tp171
a(I1
g99
tp172
a(I2
g99
tp173
a(I3
g99
tp174
a(I0
g102
tp175
a(I1
g99
tp176
a(I2
g96
tp177
a(I3
g99
tp178
a(I0
g106
tp179
a(I1
g99
tp180
a(I2
g99
tp181
a(I3
g96
tp182
a(I0
g99
tp183
a(I1
g99
tp184
a(I2
g99
tp185
a(I3
g99
tp186
a(I0
g102
tp187
a(I1
g99
tp188
a(I2
g94
tp189
a(I3
g99
tp190
a(I0
g106
tp191
a(I1
g99
tp192
a(I2
g99
tp193
a(I3
g94
tp194
a(I0
g99
tp195
a(I1
g99
tp196
a(I2
g99
tp197
a(I3
g102
tp198
a(I0
g106
tp199
a(I1
g99
tp200
a(I2
g99
tp201
a(I3
g96
tp202
a(I0
g102
tp203
a(I1
g99
tp204
a(I2
g99
tp205
a(I3
g99
tp206
a(I0
g96
tp207
a(I1
g99
tp208
a(I2
g99
tp209
a(I3
g94
tp210
a(I0
g102
tp211
a(I1
g94
tp212
a(I2
g99
tp213
a(I3
g102
tp214
a(I0
g106
tp215
a(I1
g99
tp216
a(I2
g99
tp217
a(I3
g102
tp218
a(I0
g102
tp219
a(I1
g96
tp220
a(I2
g94
tp221
a(I3
g96
tp222
a(I0
g106
tp223
a(I1
g102
tp224
a(I2
g102
tp225
a(I3
g99
tp226
a(I0
g106
tp227
a(I1
g94
tp228
a(I2
g96
tp229
a(I3
g94
tp230
a(I0
g106
tp231
a(I1
g102
tp232
a(I2
g102
tp233
a(I3
g99
tp234
a(I0
g94
tp235
a(I1
g102
tp236
a(I2
g102
tp237
a(I3
g96
tp238
a(I0
g106
tp239
a(I1
g102
tp240
a(I2
g96
tp241
a(I3
g102
tp242
a(I0
g96
tp243
a(I1
g96
tp244
a(I2
g99
tp245
a(I3
g94
tp246
a(I0
g106
tp247
a(I1
g102
tp248
a(I2
g99
tp249
a(I3
g99
tp250
a(I0
g94
tp251
a(I1
g102
tp252
a(I2
g99
tp253
a(I3
g96
tp254
a(I0
g99
tp255
a(I1
g102
tp256
a(I2
g94
tp257
a(I3
g96
tp258
a(I0
g94
tp259
a(I1
g94
tp260
a(I2
g102
tp261
a(I3
g99
tp262
a(I0
g96
tp263
a(I1
g94
tp264
a(I2
g94
tp265
a(I3
g96
tp266
a(I0
g94
tp267
a(I1
g102
tp268
a(I2
g102
tp269
a(I3
g99
tp270
a(I0
g99
tp271
a(I1
g94
tp272
a(I2
g102
tp273
a(I3
g99
tp274
a(I0
g94
tp275
a(I1
g94
tp276
a(I2
g102
tp277
a(I3
g99
tp278
a(I0
g99
tp279
a(I1
g94
tp280
a(I2
g96
tp281
a(I3
g99
tp282
a(I0
g99
tp283
a(I1
g94
tp284
a(I2
g102
tp285
a(I3
g96
tp286
a(I0
g102
tp287
a(I1
g99
tp288
a(I2
g102
tp289
a(I3
g99
tp290
a(I0
g99
tp291
a(I1
g96
tp292
a(I2
g94
tp293
a(I3
g94
tp294
a(I0
g106
tp295
a(I1
g102
tp296
a(I2
g102
tp297
a(I3
g94
tp298
a(I0
g102
tp299
a(I1
g94
tp300
a(I2
g102
tp301
a(I3
g102
tp302
a(I0
g102
tp303
a(I1
g102
tp304
a(I2
g102
tp305
a(I3
g96
tp306
a(I0
g99
tp307
a(I1
g94
tp308
a(I2
g94
tp309
a(I3
g99
tp310
a(I0
g102
tp311
a(I1
g94
tp312
a(I2
g99
tp313
a(I3
g99
tp314
a(I0
g106
tp315
a(I1
g102
tp316
a(I2
g96
tp317
a(I3
g99
tp318
a(I0
g99
tp319
a(I1
g96
tp320
a(I2
g102
tp321
a(I3
g96
tp322
a(I0
g102
tp323
a(I1
g96
tp324
a(I2
g94
tp325
a(I3
g96
tp326
a(I0
g106
tp327
a(I1
g99
tp328
a(I2
g99
tp329
a(I3
g102
tp330
a(I0
g94
tp331
a(I1
g99
tp332
a(I2
g99
tp333
a(I3
g94
tp334
a(I0
g96
tp335
a(I1
g99
tp336
a(I2
g94
tp337
a(I3
g102
tp338
a(I0
g94
tp339
a(I1
g99
tp340
a(I2
g99
tp341
a(I3
g94
tp342
a(I0
g106
tp343
a(I1
g96
tp344
a(I2
g99
tp345
a(I3
g94
tp346
a(I0
g102
tp347
a(I1
g102
tp348
a(I2
g99
tp349
a(I3
g102
tp350
a(I0
g106
tp351
a(I1
g96
tp352
a(I2
g94
tp353
a(I3
g102
tp354
a(I0
g102
tp355
a(I1
g96
tp356
a(I2
g99
tp357
a(I3
g94
tp358
a(I0
g99
tp359
a(I1
g96
tp360
a(I2
g99
tp361
a(I3
g94
tp362
a(I0
g99
tp363
a(I1
g102
tp364
a(I2
g94
tp365
a(I3
g99
tp366
a(I0
g102
tp367
a(I1
g94
tp368
a(I2
g99
tp369
a(I3
g99
tp370
a(I0
g102
tp371
a(I1
g94
tp372
a(I2
g96
tp373
a(I3
g99
tp374
a(I0
g99
tp375
a(I1
g94
tp376
a(I2
g96
tp377
a(I3
g99
tp378
a(I0
g106
tp379
a(I1
g99
tp380
a(I2
g99
tp381
a(I3
g96
tp382
a(I0
g102
tp383
a(I1
g94
tp384
a(I2
g94
tp385
a(I3
g99
tp386
a(I0
g106
tp387
a(I1
g102
tp388
a(I2
g94
tp389
a(I3
g94
tp390
a(I0
g106
tp391
a(I1
g102
tp392
a(I2
g102
tp393
a(I3
g102
tp394
a(I0
g106
tp395
a(I1
g94
tp396
a(I2
g96
tp397
a(I3
g102
tp398
a(I0
g99
tp399
a(I1
g102
tp400
a(I2
g102
tp401
a(I3
g102
tp402
a(I0
g102
tp403
a(I1
g94
tp404
a(I2
g94
tp405
a(I3
g102
tp406
a(I0
g106
tp407
a(I1
g99
tp408
a(I2
g99
tp409
a(I3
g102
tp410
a(I0
g106
tp411
a(I1
g96
tp412
a(I2
g96
tp413
a(I3
g96
tp414
a(I0
g106
tp415
a(I1
g102
tp416
a(I2
g96
tp417
a(I3
g96
tp418
a(I0
g106
tp419
a(I1
g94
tp420
a(I2
g102
tp421
a(I3
g99
tp422
a(I0
g106
tp423
a(I1
g99
tp424
a(I2
g94
tp425
a(I3
g96
tp426
a(I0
g99
tp427
a(I1
g96
tp428
a(I2
g94
tp429
a(I3
g96
tp430
a(I0
g99
tp431
a(I1
g102
tp432
a(I2
g99
tp433
a(I3
g96
tp434
a(I0
g106
tp435
a(I1
g94
tp436
a(I2
g99
tp437
a(I3
g99
tp438
a(I0
g106
tp439
a(I1
g99
tp440
a(I2
g96
tp441
a(I3
g99
tp442
a(I0
g106
tp443
a(I1
g96
tp444
a(I2
g102
tp445
a(I3
g99
tp446
a(I0
g106
tp447
a(I1
g102
tp448
a(I2
g94
tp449
a(I3
g99
tp450
a(I0
g96
tp451
a(I1
g94
tp452
a(I2
g99
tp453
a(I3
g94
tp454
a(I0
g99
tp455
a(I1
g99
tp456
a(I2
g96
tp457
a(I3
g102
tp458
a(I0
g94
tp459
a(I1
g96
tp460
a(I2
g102
tp461
a(I3
g96
tp462
a(I0
g106
tp463
a(I1
g96
tp464
a(I2
g94
tp465
a(I3
g99
tp466
a(I0
g102
tp467
a(I1
g99
tp468
a(I2
g99
tp469
a(I3
g94
tp470
a(I0
g96
tp471
a(I1
g96
tp472
a(I2
g99
tp473
a(I3
g102
tp474
a(I0
g94
tp475
a(I1
g99
tp476
a(I2
g96
tp477
a(I3
g96
tp478
a(I0
g99
tp479
a(I1
g94
tp480
a(I2
g102
tp481
a(I3
g99
tp482
a(I0
g99
tp483
a(I1
g102
tp484
a(I2
g102
tp485
a(I3
g99
tp486
a(I0
g99
tp487
a(I1
g102
tp488
a(I2
g94
tp489
a(I3
g94
tp490
a(I0
g99
tp491
a(I1
g94
tp492
a(I2
g102
tp493
a(I3
g102
tp494
a(I0
g96
tp495
a(I1
g94
tp496
a(I2
g102
tp497
a(I3
g96
tp498
a(I0
g94
tp499
a(I1
g102
tp500
a(I2
g96
tp501
a(I3
g102
tp502
a(I0
g99
tp503
a(I1
g102
tp504
a(I2
g102
tp505
a(I3
g94
tp506
a(I0
g99
tp507
a(I1
g96
tp508
a(I2
g94
tp509
a(I3
g99
tp510
a(I0
g94
tp511
a(I1
g99
tp512
a(I2
g102
tp513
a(I3
g96
tp514
a(I0
g96
tp515
a(I1
g99
tp516
a(I2
g94
tp517
a(I3
g102
tp518
a(I0
g94
tp519
a(I1
g94
tp520
a(I2
g102
tp521
a(I3
g94
tp522
a(I0
g102
tp523
a(I1
g102
tp524
a(I2
g94
tp525
a(I3
g99
tp526
a(I0
g94
tp527
a(I1
g102
tp528
a(I2
g94
tp529
a(I3
g96
tp530
a(I0
g106
tp531
a(I1
g96
tp532
a(I2
g102
tp533
a(I3
g99
tp534
a(I0
g102
tp535
a(I1
g96
tp536
a(I2
g99
tp537
a(I3
g94
tp538
a(I0
g106
tp539
a(I1
g99
tp540
a(I2
g99
tp541
a(I3
g102
tp542
a(I0
g96
tp543
a(I1
g96
tp544
a(I2
g99
tp545
a(I3
g96
tp546
a(I0
g94
tp547
a(I1
g99
tp548
a(I2
g99
tp549
a(I3
g99
tp550
a(I0
g106
tp551
a(I1
g94
tp552
a(I2
g99
tp553
a(I3
g94
tp554
a(I0
g99
tp555
a(I1
g99
tp556
a(I2
g99
tp557
a(I3
g94
tp558
a(I0
g99
tp559
a(I1
g96
tp560
a(I2
g96
tp561
a(I3
g102
tp562
a(I0
g94
tp563
a(I1
g96
tp564
a(I2
g99
tp565
a(I3
g102
tp566
a(I0
g99
tp567
a(I1
g96
tp568
a(I2
g94
tp569
a(I3
g102
tp570
a(I0
g94
tp571
a(I1
g96
tp572
a(I2
g102
tp573
a(I3
g102
tp574
a(I0
g99
tp575
a(I1
g96
tp576
a(I2
g96
tp577
a(I3
g94
tp578
a(I0
g94
tp579
a(I1
g99
tp580
a(I2
g99
tp581
a(I3
g102
tp582
a(I0
g99
tp583
a(I1
g96
tp584
a(I2
g94
tp585
a(I3
g102
tp586
a(I0
g99
tp587
a(I1
g99
tp588
a(I2
g102
tp589
a(I3
g94
tp590
a(I0
g106
tp591
a(I1
g99
tp592
a(I2
g96
tp593
a(I3
g102
tp594
a(I0
g102
tp595
a(I1
g99
tp596
a(I2
g99
tp597
a(I3
g94
tp598
a(I0
g99
tp599
a(I1
g96
tp600
a(I2
g94
tp601
a(I3
g102
tp602
a(I0
g102
tp603
a(I1
g99
tp604
a(I2
g102
tp605
a(I3
g99
tp606
a(I0
g96
tp607
a(I1
g99
tp608
a(I2
g96
tp609
a(I3
g99
tp610
a(I0
g96
tp611
a(I1
g99
tp612
a(I2
g99
tp613
a(I3
g99
tp614
a(I0
g102
tp615
a(I1
g94
tp616
a(I2
g99
tp617
a(I3
g99
tp618
a(I0
g106
tp619
a(I1
g102
tp620
a(I2
g94
tp621
a(I3
g99
tp622
a(I0
g99
tp623
a(I1
g102
tp624
a(I2
g102
tp625
a(I3
g99
tp626
a(I0
g96
tp627
a(I1
g102
tp628
a(I2
g102
tp629
a(I3
g99
tp630
a(I0
g94
tp631
a(I1
g102
tp632
a(I2
g96
tp633
a(I3
g96
tp634
a(I0
g94
tp635
a(I1
g102
tp636
a(I2
g99
tp637
a(I3
g102
tp638
a(I0
g94
tp639
a(I1
g94
tp640
a(I2
g94
tp641
a(I3
g94
tp642
a(I0
g96
tp643
a(I1
g94
tp644
a(I2
g102
tp645
a(I3
g102
tp646
a(I0
g106
tp647
a(I1
g102
tp648
a(I2
g96
tp649
a(I3
g102
tp650
a(I0
g102
tp651
a(I1
g102
tp652
a(I2
g99
tp653
a(I3
g102
tp654
a(I0
g94
tp655
a(I1
g96
tp656
a(I2
g94
tp657
a(I3
g102
tp658
a(I0
g106
tp659
a(I1
g96
tp660
a(I2
g102
tp661
a(I3
g102
tp662
a(I0
g102
tp663
a(I1
g102
tp664
a(I2
g102
tp665
a(I3
g102
tp666
a(I0
g96
tp667
a(I1
g102
tp668
a(I2
g102
tp669
a(I3
g99
tp670
a(I0
g94
tp671
a(I1
g102
tp672
a(I2
g102
tp673
a(I3
g99
tp674
a(I0
g99
tp675
a(I1
g96
tp676
a(I2
g102
tp677
a(I3
g99
tp678
a(I0
g99
tp679
a(I1
g99
tp680
a(I2
g102
tp681
a(I3
g99
tp682
a(I0
g106
tp683
a(I1
g94
tp684
a(I2
g102
tp685
a(I3
g99
tp686
a(I0
g102
tp687
a(I1
g99
tp688
a(I2
g99
tp689
a(I3
g99
tp690
a(I0
g96
tp691
a(I1
g99
tp692
a(I2
g99
tp693
a(I3
g99
tp694
a(I0
g106
tp695
a(I1
g99
tp696
a(I2
g99
tp697
a(I3
g99
tp698
a(I0
g102
tp699
a(I1
g99
tp700
a(I2
g99
tp701
a(I3
g96
tp702
a(I0
g102
tp703
a(I1
g99
tp704
a(I2
g99
tp705
a(I3
g102
tp706
a(I0
g94
tp707
a(I1
g99
tp708
a(I2
g99
tp709
a(I3
g102
tp710
a(I0
g99
tp711
a(I1
g99
tp712
a(I2
g96
tp713
a(I3
g94
tp714
a(I0
g102
tp715
a(I1
g99
tp716
a(I2
g99
tp717
a(I3
g102
tp718
a(I0
g106
tp719
a(I1
g99
tp720
a(I2
g94
tp721
a(I3
g102
tp722
a(I0
g96
tp723
a(I1
g99
tp724
a(I2
g102
tp725
a(I3
g102
tp726
a(I0
g102
tp727
a(I1
g94
tp728
a(I2
g102
tp729
a(I3
g102
tp730
a(I0
g102
tp731
a(I1
g102
tp732
a(I2
g102
tp733
a(I3
g96
tp734
a(I0
g102
tp735
a(I1
g102
tp736
a(I2
g102
tp737
a(I3
g102
tp738
a(I0
g102
tp739
a(I1
g102
tp740
a(I2
g102
tp741
a(I3
g94
tp742
a(I0
g102
tp743
a(I1
g102
tp744
a(I2
g102
tp745
a(I3
g102
tp746
a(I0
g102
tp747
a(I1
g96
tp748
a(I2
g102
tp749
a(I3
g99
tp750
a(I0
g96
tp751
a(I1
g102
tp752
a(I2
g99
tp753
a(I3
g99
tp754
a(I0
g94
tp755
a(I1
g102
tp756
a(I2
g99
tp757
a(I3
g96
tp758
a(I0
g94
tp759
a(I1
g94
tp760
a(I2
g96
tp761
a(I3
g102
tp762
a(I0
g99
tp763
a(I1
g102
tp764
a(I2
g102
tp765
a(I3
g94
tp766
a(I0
g96
tp767
a(I1
g102
tp768
a(I2
g94
tp769
a(I3
g102
tp770
a(I0
g99
tp771
a(I1
g102
tp772
a(I2
g102
tp773
a(I3
g99
tp774
a(I0
g106
tp775
a(I1
g94
tp776
a(I2
g99
tp777
a(I3
g96
tp778
a(I0
g102
tp779
a(I1
g102
tp780
a(I2
g96
tp781
a(I3
g96
tp782
a(I0
g96
tp783
a(I1
g94
tp784
a(I2
g96
tp785
a(I3
g102
tp786
a(I0
g106
tp787
a(I1
g94
tp788
a(I2
g102
tp789
a(I3
g102
tp790
a(I0
g106
tp791
a(I1
g99
tp792
a(I2
g102
tp793
a(I3
g102
tp794
a(I0
g96
tp795
a(I1
g94
tp796
a(I2
g102
tp797
a(I3
g94
tp798
a(I0
g106
tp799
a(I1
g94
tp800
a(I2
g94
tp801
a(I3
g94
tp802
a(I0
g102
tp803
a(I1
g99
tp804
a(I2
g94
tp805
a(I3
g102
tp806
a(I0
g94
tp807
a(I1
g99
tp808
a(I2
g102
tp809
a(I3
g96
tp810
a(I0
g106
tp811
a(I1
g99
tp812
a(I2
g96
tp813
a(I3
g99
tp814
a(I0
g106
tp815
a(I1
g94
tp816
a(I2
g102
tp817
a(I3
g96
tp818
a(I0
g102
tp819
a(I1
g94
tp820
a(I2
g102
tp821
a(I3
g102
tp822
a(I0
g96
tp823
a(I1
g102
tp824
a(I2
g96
tp825
a(I3
g94
tp826
a(I0
g106
tp827
a(I1
g99
tp828
a(I2
g99
tp829
a(I3
g99
tp830
a(I0
g102
tp831
a(I1
g99
tp832
a(I2
g96
tp833
a(I3
g96
tp834
a(I0
g99
tp835
a(I1
g96
tp836
a(I2
g99
tp837
a(I3
g99
tp838
a(I0
g106
tp839
a(I1
g102
tp840
a(I2
g94
tp841
a(I3
g96
tp842
a(I0
g106
tp843
a(I1
g94
tp844
a(I2
g99
tp845
a(I3
g99
tp846
a(I0
g99
tp847
a(I1
g102
tp848
a(I2
g94
tp849
a(I3
g94
tp850
a(I0
g99
tp851
a(I1
g99
tp852
a(I2
g94
tp853
a(I3
g102
tp854
a(I0
g99
tp855
a(I1
g96
tp856
a(I2
g102
tp857
a(I3
g102
tp858
a(I0
g96
tp859
a(I1
g96
tp860
a(I2
g102
tp861
a(I3
g94
tp862
a(I0
g94
tp863
a(I1
g102
tp864
a(I2
g96
tp865
a(I3
g94
tp866
a(I0
g106
tp867
a(I1
g102
tp868
a(I2
g99
tp869
a(I3
g102
tp870
a(I0
g96
tp871
a(I1
g96
tp872
a(I2
g96
tp873
a(I3
g96
tp874
a(I0
g96
tp875
a(I1
g102
tp876
a(I2
g99
tp877
a(I3
g99
tp878
a(I0
g102
tp879
a(I1
g94
tp880
a(I2
g99
tp881
a(I3
g94
tp882
a(I0
g99
tp883
a(I1
g102
tp884
a(I2
g99
tp885
a(I3
g102
tp886
a(I0
g102
tp887
a(I1
g94
tp888
a(I2
g99
tp889
a(I3
g102
tp890
a(I0
g96
tp891
a(I1
g94
tp892
a(I2
g94
tp893
a(I3
g102
tp894
a(I0
g102
tp895
a(I1
g99
tp896
a(I2
g99
tp897
a(I3
g96
tp898
a(I0
g96
tp899
a(I1
g96
tp900
a(I2
g94
tp901
a(I3
g99
tp902
a(I0
g102
tp903
a(I1
g96
tp904
a(I2
g99
tp905
a(I3
g94
tp906
a(I0
g99
tp907
a(I1
g99
tp908
a(I2
g99
tp909
a(I3
g99
tp910
a(I0
g102
tp911
a(I1
g99
tp912
a(I2
g99
tp913
a(I3
g99
tp914
a(I0
g99
tp915
a(I1
g96
tp916
a(I2
g99
tp917
a(I3
g96
tp918
a(I0
g94
tp919
a(I1
g102
tp920
a(I2
g99
tp921
a(I3
g96
tp922
a(I0
g99
tp923
a(I1
g102
tp924
a(I2
g96
tp925
a(I3
g99
tp926
a(I0
g94
tp927
a(I1
g94
tp928
a(I2
g102
tp929
a(I3
g96
tp930
a(I0
g106
tp931
a(I1
g99
tp932
a(I2
g94
tp933
a(I3
g102
tp934
a(I0
g102
tp935
a(I1
g96
tp936
a(I2
g102
tp937
a(I3
g94
tp938
a(I0
g96
tp939
a(I1
g99
tp940
a(I2
g102
tp941
a(I3
g94
tp942
a(I0
g94
tp943
a(I1
g99
tp944
a(I2
g102
tp945
a(I3
g102
tp946
a(I0
g106
tp947
a(I1
g94
tp948
a(I2
g102
tp949
a(I3
g94
tp950
a(I0
g96
tp951
a(I1
g102
tp952
a(I2
g102
tp953
a(I3
g99
tp954
a(I0
g94
tp955
a(I1
g102
tp956
a(I2
g96
tp957
a(I3
g96
tp958
a(I0
g99
tp959
a(I1
g102
tp960
a(I2
g99
tp961
a(I3
g102
tp962
a(I0
g96
tp963
a(I1
g94
tp964
a(I2
g94
tp965
a(I3
g94
tp966
a(I0
g96
tp967
a(I1
g94
tp968
a(I2
g99
tp969
a(I3
g99
tp970
a(I0
g96
tp971
a(I1
g102
tp972
a(I2
g99
tp973
a(I3
g96
tp974
a(I0
g102
tp975
a(I1
g102
tp976
a(I2
g99
tp977
a(I3
g96
tp978
a(I0
g94
tp979
a(I1
g102
tp980
a(I2
g99
tp981
a(I3
g99
tp982
a(I0
g106
tp983
a(I1
g96
tp984
a(I2
g96
tp985
a(I3
g96
tp986
a(I0
g106
tp987
a(I1
g99
tp988
a(I2
g99
tp989
a(I3
g96
tp990
a(I0
g94
tp991
a(I1
g99
tp992
a(I2
g94
tp993
a(I3
g99
tp994
a(I0
g94
tp995
a(I1
g99
tp996
a(I2
g102
tp997
a(I3
g94
tp998
a(I0
g99
tp999
a(I1
g94
tp1000
a(I2
g102
tp1001
a(I3
g94
tp1002
a(I0
g96
tp1003
a(I1
g102
tp1004
a(I2
g102
tp1005
a(I3
g102
tp1006
a(I0
g94
tp1007
a(I1
g96
tp1008
a(I2
g102
tp1009
a(I3
g102
tp1010
a(I0
g102
tp1011
a(I1
g96
tp1012
a(I2
g102
tp1013
a(I3
g94
tp1014
a(I0
g106
tp1015
a(I1
g99
tp1016
a(I2
g102
tp1017
a(I3
g102
tp1018
a(I0
g102
tp1019
a(I1
g94
tp1020
a(I2
g96
tp1021
a(I3
g96
tp1022
a(I0
g99
tp1023
a(I1
g94
tp1024
a(I2
g99
tp1025
a(I3
g99
tp1026
a(I0
g99
tp1027
a(I1
g102
tp1028
a(I2
g94
tp1029
a(I3
g99
tp1030
a(I0
g96
tp1031
a(I1
g102
tp1032
a(I2
g99
tp1033
a(I3
g96
tp1034
a(I0
g102
tp1035
a(I1
g102
tp1036
a(I2
g99
tp1037
a(I3
g102
tp1038
a(I0
g94
tp1039
a(I1
g102
tp1040
a(I2
g99
tp1041
a(I3
g94
tp1042
a(I0
g102
tp1043
a(I1
g96
tp1044
a(I2
g99
tp1045
a(I3
g94
tp1046
a(I0
g102
tp1047
a(I1
g99
tp1048
a(I2
g96
tp1049
a(I3
g102
tp1050
a(I0
g106
tp1051
a(I1
g99
tp1052
a(I2
g99
tp1053
a(I3
g94
tp1054
a(I0
g106
tp1055
a(I1
g99
tp1056
a(I2
g94
tp1057
a(I3
g99
tp1058
a(I0
g106
tp1059
a(I1
g99
tp1060
a(I2
g102
tp1061
a(I3
g96
tp1062
a(I0
g106
tp1063
a(I1
g94
tp1064
a(I2
g96
tp1065
a(I3
g96
tp1066
a(I0
g106
tp1067
a(I1
g102
tp1068
a(I2
g99
tp1069
a(I3
g99
tp1070
a(I0
g106
tp1071
a(I1
g96
tp1072
a(I2
g94
tp1073
a(I3
g99
tp1074
a(I0
g106
tp1075
a(I1
g99
tp1076
a(I2
g102
tp1077
a(I3
g96
tp1078
a(I0
g99
tp1079
a(I1
g96
tp1080
a(I2
g102
tp1081
a(I3
g102
tp1082
a(I0
g99
tp1083
a(I1
g99
tp1084
a(I2
g102
tp1085
a(I3
g94
tp1086
a(I0
g102
tp1087
a(I1
g99
tp1088
a(I2
g102
tp1089
a(I3
g102
tp1090
a(I0
g106
tp1091
a(I1
g99
tp1092
a(I2
g102
tp1093
a(I3
g94
tp1094
a(I0
g102
tp1095
a(I1
g94
tp1096
a(I2
g102
tp1097
a(I3
g94
tp1098
a(I0
g106
tp1099
a(I1
g94
tp1100
a(I2
g96
tp1101
a(I3
g102
tp1102
a(I0
g99
tp1103
a(I1
g102
tp1104
a(I2
g99
tp1105
a(I3
g96
tp1106
a(I0
g99
tp1107
a(I1
g99
tp1108
a(I2
g94
tp1109
a(I3
g99
tp1110
a(I0
g102
tp1111
a(I1
g96
tp1112
a(I2
g99
tp1113
a(I3
g94
tp1114
a(I0
g106
tp1115
a(I1
g96
tp1116
a(I2
g99
tp1117
a(I3
g102
tp1118
a(I0
g106
tp1119
a(I1
g102
tp1120
a(I2
g99
tp1121
a(I3
g96
tp1122
a(I0
g102
tp1123
a(I1
g102
tp1124
a(I2
g99
tp1125
a(I3
g99
tp1126
a(I0
g106
tp1127
a(I1
g102
tp1128
a(I2
g96
tp1129
a(I3
g94
tp1130
a(I0
g106
tp1131
a(I1
g94
tp1132
a(I2
g99
tp1133
a(I3
g102
tp1134
a(I0
g106
tp1135
a(I1
g94
tp1136
a(I2
g99
tp1137
a(I3
g96
tp1138
a(I0
g106
tp1139
a(I1
g102
tp1140
a(I2
g94
tp1141
a(I3
g99
tp1142
a(I0
g99
tp1143
a(I1
g102
tp1144
a(I2
g102
tp1145
a(I3
g94
tp1146
a(I0
g102
tp1147
a(I1
g96
tp1148
a(I2
g102
tp1149
a(I3
g102
tp1150
a(I0
g99
tp1151
a(I1
g96
tp1152
a(I2
g102
tp1153
a(I3
g102
tp1154
a(I0
g102
tp1155
a(I1
g99
tp1156
a(I2
g102
tp1157
a(I3
g102
tp1158
a(I0
g106
tp1159
a(I1
g99
tp1160
a(I2
g102
tp1161
a(I3
g102
tp1162
a(I0
g99
tp1163
a(I1
g99
tp1164
a(I2
g102
tp1165
a(I3
g96
tp1166
a(I0
g102
tp1167
a(I1
g99
tp1168
a(I2
g102
tp1169
a(I3
g99
tp1170
a(I0
g99
tp1171
a(I1
g96
tp1172
a(I2
g96
tp1173
a(I3
g94
tp1174
a(I0
g106
tp1175
a(I1
g102
tp1176
a(I2
g99
tp1177
a(I3
g99
tp1178
a(I0
g102
tp1179
a(I1
g94
tp1180
a(I2
g94
tp1181
a(I3
g99
tp1182
a(I0
g106
tp1183
a(I1
g99
tp1184
a(I2
g99
tp1185
a(I3
g99
tp1186
a(I0
g106
tp1187
a(I1
g96
tp1188
a(I2
g99
tp1189
a(I3
g96
tp1190
a(I0
g106
tp1191
a(I1
g102
tp1192
a(I2
g99
tp1193
a(I3
g102
tp1194
a(I0
g106
tp1195
a(I1
g94
tp1196
a(I2
g99
tp1197
a(I3
g94
tp1198
a(I0
g106
tp1199
a(I1
g99
tp1200
a(I2
g96
tp1201
a(I3
g99
tp1202
a(I0
g106
tp1203
a(I1
g96
tp1204
a(I2
g99
tp1205
a(I3
g96
tp1206
a(I0
g106
tp1207
a(I1
g102
tp1208
a(I2
g99
tp1209
a(I3
g102
tp1210
a(I0
g99
tp1211
a(I1
g94
tp1212
a(I2
g94
tp1213
a(I3
g94
tp1214
a(I0
g106
tp1215
a(I1
g99
tp1216
a(I2
g102
tp1217
a(I3
g99
tp1218
a(I0
g106
tp1219
a(I1
g96
tp1220
a(I2
g102
tp1221
a(I3
g96
tp1222
a(I0
g106
tp1223
a(I1
g102
tp1224
a(I2
g102
tp1225
a(I3
g102
tp1226
a(I0
g99
tp1227
a(I1
g94
tp1228
a(I2
g102
tp1229
a(I3
g94
tp1230
a(I0
g96
tp1231
a(I1
g102
tp1232
a(I2
g102
tp1233
a(I3
g99
tp1234
a(I0
g106
tp1235
a(I1
g94
tp1236
a(I2
g102
tp1237
a(I3
g96
tp1238
a(I0
g96
tp1239
a(I1
g94
tp1240
a(I2
g102
tp1241
a(I3
g96
tp1242
a(I0
g106
tp1243
a(I1
g102
tp1244
a(I2
g102
tp1245
a(I3
g99
tp1246
a(I0
g96
tp1247
a(I1
g102
tp1248
a(I2
g99
tp1249
a(I3
g99
tp1250
a(I0
g99
tp1251
a(I1
g102
tp1252
a(I2
g99
tp1253
a(I3
g99
tp1254
a(I0
g102
tp1255
a(I1
g102
tp1256
a(I2
g96
tp1257
a(I3
g99
tp1258
a(I0
g106
tp1259
a(I1
g96
tp1260
a(I2
g96
tp1261
a(I3
g94
tp1262
a(I0
g96
tp1263
a(I1
g99
tp1264
a(I2
g102
tp1265
a(I3
g94
tp1266
a(I0
g94
tp1267
a(I1
g99
tp1268
a(I2
g96
tp1269
a(I3
g102
tp1270
a(I0
g99
tp1271
a(I1
g99
tp1272
a(I2
g99
tp1273
a(I3
g102
tp1274
a(I0
g102
tp1275
a(I1
g94
tp1276
a(I2
g94
tp1277
a(I3
g99
tp1278
a(I0
g94
tp1279
a(I1
g99
tp1280
a(I2
g94
tp1281
a(I3
g99
tp1282
a(I0
g99
tp1283
a(I1
g96
tp1284
a(I2
g94
tp1285
a(I3
g99
tp1286
a(I0
g94
tp1287
a(I1
g96
tp1288
a(I2
g102
tp1289
a(I3
g99
tp1290
a(I0
g96
tp1291
a(I1
g99
tp1292
a(I2
g102
tp1293
a(I3
g99
tp1294
a(I0
g102
tp1295
a(I1
g96
tp1296
a(I2
g99
tp1297
a(I3
g99
tp1298
a(I0
g102
tp1299
a(I1
g99
tp1300
a(I2
g96
tp1301
a(I3
g99
tp1302
a(I0
g96
tp1303
a(I1
g94
tp1304
a(I2
g96
tp1305
a(I3
g99
tp1306
a(I0
g94
tp1307
a(I1
g102
tp1308
a(I2
g102
tp1309
a(I3
g96
tp1310
a(I0
g99
tp1311
a(I1
g96
tp1312
a(I2
g102
tp1313
a(I3
g102
tp1314
a(I0
g106
tp1315
a(I1
g96
tp1316
a(I2
g96
tp1317
a(I3
g94
tp1318
a(I0
g94
tp1319
a(I1
g99
tp1320
a(I2
g99
tp1321
a(I3
g99
tp1322
a(I0
g96
tp1323
a(I1
g94
tp1324
a(I2
g94
tp1325
a(I3
g96
tp1326
a(I0
g96
tp1327
a(I1
g94
tp1328
a(I2
g99
tp1329
a(I3
g102
tp1330
a(I0
g94
tp1331
a(I1
g102
tp1332
a(I2
g99
tp1333
a(I3
g102
tp1334
a(I0
g94
tp1335
a(I1
g102
tp1336
a(I2
g99
tp1337
a(I3
g94
tp1338
a(I0
g106
tp1339
a(I1
g94
tp1340
a(I2
g99
tp1341
a(I3
g102
tp1342
a(I0
g96
tp1343
a(I1
g94
tp1344
a(I2
g96
tp1345
a(I3
g102
tp1346
a(I0
g106
tp1347
a(I1
g102
tp1348
a(I2
g99
tp1349
a(I3
g102
tp1350
a(I0
g102
tp1351
a(I1
g96
tp1352
a(I2
g99
tp1353
a(I3
g102
tp1354
a(I0
g96
tp1355
a(I1
g99
tp1356
a(I2
g99
tp1357
a(I3
g102
tp1358
a(I0
g99
tp1359
a(I1
g94
tp1360
a(I2
g99
tp1361
a(I3
g102
tp1362
a(I0
g94
tp1363
a(I1
g102
tp1364
a(I2
g96
tp1365
a(I3
g99
tp1366
a(I0
g96
tp1367
a(I1
g102
tp1368
a(I2
g102
tp1369
a(I3
g96
tp1370
a(I0
g99
tp1371
a(I1
g102
tp1372
a(I2
g102
tp1373
a(I3
g96
tp1374
a(I0
g94
tp1375
a(I1
g102
tp1376
a(I2
g96
tp1377
a(I3
g102
tp1378
a(I0
g99
tp1379
a(I1
g96
tp1380
a(I2
g99
tp1381
a(I3
g102
tp1382
a(I0
g106
tp1383
a(I1
g99
tp1384
a(I2
g94
tp1385
a(I3
g96
tp1386
a(I0
g106
tp1387
a(I1
g94
tp1388
a(I2
g102
tp1389
a(I3
g102
tp1390
a(I0
g96
tp1391
a(I1
g99
tp1392
a(I2
g94
tp1393
a(I3
g96
tp1394
a(I0
g99
tp1395
a(I1
g99
tp1396
a(I2
g102
tp1397
a(I3
g99
tp1398
a(I0
g102
tp1399
a(I1
g99
tp1400
a(I2
g102
tp1401
a(I3
g94
tp1402
a(I0
g94
tp1403
a(I1
g96
tp1404
a(I2
g94
tp1405
a(I3
g94
tp1406
a(I0
g102
tp1407
a(I1
g96
tp1408
a(I2
g102
tp1409
a(I3
g99
tp1410
a(I0
g102
tp1411
a(I1
g99
tp1412
a(I2
g96
tp1413
a(I3
g99
tp1414
a(I0
g106
tp1415
a(I1
g99
tp1416
a(I2
g99
tp1417
a(I3
g94
tp1418
a(I0
g94
tp1419
a(I1
g99
tp1420
a(I2
g99
tp1421
a(I3
g94
tp1422
a(I0
g99
tp1423
a(I1
g94
tp1424
a(I2
g99
tp1425
a(I3
g102
tp1426
a(I0
g99
tp1427
a(I1
g94
tp1428
a(I2
g99
tp1429
a(I3
g99
tp1430
a(I0
g99
tp1431
a(I1
g102
tp1432
a(I2
g96
tp1433
a(I3
g99
tp1434
a(I0
g106
tp1435
a(I1
g99
tp1436
a(I2
g102
tp1437
a(I3
g99
tp1438
a(I0
g94
tp1439
a(I1
g99
tp1440
a(I2
g94
tp1441
a(I3
g99
tp1442
a(I0
g106
tp1443
a(I1
g99
tp1444
a(I2
g99
tp1445
a(I3
g99
tp1446
a(I0
g102
tp1447
a(I1
g99
tp1448
a(I2
g99
tp1449
a(I3
g99
tp1450
a(I0
g94
tp1451
a(I1
g99
tp1452
a(I2
g96
tp1453
a(I3
g96
tp1454
a(I0
g106
tp1455
a(I1
g99
tp1456
a(I2
g102
tp1457
a(I3
g99
tp1458
a(I0
g96
tp1459
a(I1
g99
tp1460
a(I2
g102
tp1461
a(I3
g94
tp1462
a(I0
g94
tp1463
a(I1
g99
tp1464
a(I2
g96
tp1465
a(I3
g102
tp1466
a(I0
g96
tp1467
a(I1
g96
tp1468
a(I2
g99
tp1469
a(I3
g96
tp1470
a(I0
g96
tp1471
a(I1
g102
tp1472
a(I2
g99
tp1473
a(I3
g99
tp1474
a(I0
g102
tp1475
a(I1
g102
tp1476
a(I2
g94
tp1477
a(I3
g94
tp1478
a(I0
g99
tp1479
a(I1
g94
tp1480
a(I2
g94
tp1481
a(I3
g102
tp1482
a(I0
g96
tp1483
a(I1
g102
tp1484
a(I2
g102
tp1485
a(I3
g96
tp1486
a(I0
g94
tp1487
a(I1
g102
tp1488
a(I2
g102
tp1489
a(I3
g99
tp1490
a(I0
g102
tp1491
a(I1
g102
tp1492
a(I2
g102
tp1493
a(I3
g94
tp1494
a(I0
g106
tp1495
a(I1
g102
tp1496
a(I2
g96
tp1497
a(I3
g102
tp1498
a(I0
g94
tp1499
a(I1
g102
tp1500
a(I2
g99
tp1501
a(I3
g96
tp1502
a(I0
g96
tp1503
a(I1
g102
tp1504
a(I2
g94
tp1505
a(I3
g99
tp1506
a(I0
g96
tp1507
a(I1
g99
tp1508
a(I2
g102
tp1509
a(I3
g99
tp1510
a(I0
g94
tp1511
a(I1
g96
tp1512
a(I2
g96
tp1513
a(I3
g94
tp1514
a(I0
g96
tp1515
a(I1
g99
tp1516
a(I2
g99
tp1517
a(I3
g102
tp1518
a(I0
g99
tp1519
a(I1
g96
tp1520
a(I2
g94
tp1521
a(I3
g102
tp1522
a(I0
g106
tp1523
a(I1
g102
tp1524
a(I2
g99
tp1525
a(I3
g96
tp1526
a(I0
g106
tp1527
a(I1
g102
tp1528
a(I2
g99
tp1529
a(I3
g99
tp1530
a(I0
g102
tp1531
a(I1
g102
tp1532
a(I2
g96
tp1533
a(I3
g94
tp1534
a(I0
g96
tp1535
a(I1
g96
tp1536
a(I2
g102
tp1537
a(I3
g102
tp1538
a(I0
g106
tp1539
a(I1
g96
tp1540
a(I2
g102
tp1541
a(I3
g102
tp1542
a(I0
g96
tp1543
a(I1
g102
tp1544
a(I2
g102
tp1545
a(I3
g102
tp1546
a(I0
g94
tp1547
a(I1
g94
tp1548
a(I2
g102
tp1549
a(I3
g102
tp1550
a(I0
g102
tp1551
a(I1
g99
tp1552
a(I2
g102
tp1553
a(I3
g102
tp1554
a(I0
g99
tp1555
a(I1
g94
tp1556
a(I2
g94
tp1557
a(I3
g102
tp1558
a(I0
g102
tp1559
a(I1
g102
tp1560
a(I2
g102
tp1561
a(I3
g102
tp1562
a(I0
g96
tp1563
a(I1
g94
tp1564
a(I2
g102
tp1565
a(I3
g99
tp1566
a(I0
g94
tp1567
a(I1
g94
tp1568
a(I2
g94
tp1569
a(I3
g96
tp1570
a(I0
g94
tp1571
a(I1
g102
tp1572
a(I2
g99
tp1573
a(I3
g96
tp1574
a(I0
g102
tp1575
a(I1
g102
tp1576
a(I2
g99
tp1577
a(I3
g102
tp1578
a(I0
g106
tp1579
a(I1
g102
tp1580
a(I2
g96
tp1581
a(I3
g96
tp1582
a(I0
g96
tp1583
a(I1
g96
tp1584
a(I2
g102
tp1585
a(I3
g102
tp1586
a(I0
g94
tp1587
a(I1
g99
tp1588
a(I2
g94
tp1589
a(I3
g96
tp1590
a(I0
g96
tp1591
a(I1
g99
tp1592
a(I2
g102
tp1593
a(I3
g99
tp1594
a(I0
g106
tp1595
a(I1
g99
tp1596
a(I2
g94
tp1597
a(I3
g94
tp1598
a(I0
g99
tp1599
a(I1
g94
tp1600
a(I2
g94
tp1601
a(I3
g94
tp1602
a(I0
g96
tp1603
a(I1
g102
tp1604
a(I2
g102
tp1605
a(I3
g99
tp1606
a(I0
g99
tp1607
a(I1
g96
tp1608
a(I2
g99
tp1609
a(I3
g94
tp1610
a(I0
g94
tp1611
a(I1
g99
tp1612
a(I2
g99
tp1613
a(I3
g99
tp1614
a(I0
g96
tp1615
a(I1
g94
tp1616
a(I2
g96
tp1617
a(I3
g94
tp1618
a(I0
g106
tp1619
a(I1
g102
tp1620
a(I2
g102
tp1621
a(I3
g99
tp1622
a(I0
g102
tp1623
a(I1
g96
tp1624
a(I2
g94
tp1625
a(I3
g99
tp1626
a(I0
g106
tp1627
a(I1
g102
tp1628
a(I2
g102
tp1629
a(I3
g99
tp1630
a(I0
g94
tp1631
a(I1
g94
tp1632
a(I2
g99
tp1633
a(I3
g99
tp1634
a(I0
g99
tp1635
a(I1
g99
tp1636
a(I2
g96
tp1637
a(I3
g96
tp1638
a(I0
g102
tp1639
a(I1
g99
tp1640
a(I2
g99
tp1641
a(I3
g99
tp1642
a(I0
g99
tp1643
a(I1
g96
tp1644
a(I2
g94
tp1645
a(I3
g94
tp1646
a(I0
g96
tp1647
a(I1
g102
tp1648
a(I2
g102
tp1649
a(I3
g102
tp1650
a(I0
g94
tp1651
a(I1
g94
tp1652
a(I2
g96
tp1653
a(I3
g96
tp1654
a(I0
g102
tp1655
a(I1
g99
tp1656
a(I2
g96
tp1657
a(I3
g99
tp1658
a(I0
g96
tp1659
a(I1
g96
tp1660
a(I2
g102
tp1661
a(I3
g94
tp1662
a(I0
g94
tp1663
a(I1
g96
tp1664
a(I2
g102
tp1665
a(I3
g102
tp1666
a(I0
g94
tp1667
a(I1
g99
tp1668
a(I2
g96
tp1669
a(I3
g96
tp1670
a(I0
g99
tp1671
a(I1
g99
tp1672
a(I2
g99
tp1673
a(I3
g99
tp1674
a(I0
g106
tp1675
a(I1
g99
tp1676
a(I2
g94
tp1677
a(I3
g94
tp1678
a(I0
g96
tp1679
a(I1
g96
tp1680
a(I2
g99
tp1681
a(I3
g102
tp1682
a(I0
g94
tp1683
a(I1
g102
tp1684
a(I2
g94
tp1685
a(I3
g96
tp1686
a(I0
g99
tp1687
a(I1
g96
tp1688
a(I2
g94
tp1689
a(I3
g99
tp1690
a(I0
g94
tp1691
a(I1
g96
tp1692
a(I2
g102
tp1693
a(I3
g94
tp1694
a(I0
g102
tp1695
a(I1
g102
tp1696
a(I2
g99
tp1697
a(I3
g102
tp1698
a(I0
g96
tp1699
a(I1
g102
tp1700
a(I2
g99
tp1701
a(I3
g96
tp1702
a(I0
g94
tp1703
a(I1
g96
tp1704
a(I2
g99
tp1705
a(I3
g99
tp1706
a(I0
g102
tp1707
a(I1
g99
tp1708
a(I2
g99
tp1709
a(I3
g94
tp1710
a(I0
g96
tp1711
a(I1
g94
tp1712
a(I2
g99
tp1713
a(I3
g102
tp1714
a(I0
g102
tp1715
a(I1
g99
tp1716
a(I2
g99
tp1717
a(I3
g102
tp1718
a(I0
g106
tp1719
a(I1
g99
tp1720
a(I2
g99
tp1721
a(I3
g102
tp1722
a(I0
g99
tp1723
a(I1
g99
tp1724
a(I2
g99
tp1725
a(I3
g102
tp1726
a(I0
g102
tp1727
a(I1
g99
tp1728
a(I2
g96
tp1729
a(I3
g102
tp1730
a(I0
g99
tp1731
a(I1
g99
tp1732
a(I2
g102
tp1733
a(I3
g96
tp1734
a(I0
g106
tp1735
a(I1
g99
tp1736
a(I2
g94
tp1737
a(I3
g96
tp1738
a(I0
g96
tp1739
a(I1
g99
tp1740
a(I2
g102
tp1741
a(I3
g99
tp1742
a(I0
g96
tp1743
a(I1
g94
tp1744
a(I2
g96
tp1745
a(I3
g99
tp1746
a(I0
g94
tp1747
a(I1
g94
tp1748
a(I2
g99
tp1749
a(I3
g96
tp1750
a(I0
g96
tp1751
a(I1
g102
tp1752
a(I2
g94
tp1753
a(I3
g99
tp1754
a(I0
g102
tp1755
a(I1
g96
tp1756
a(I2
g102
tp1757
a(I3
g99
tp1758
a(I0
g102
tp1759
a(I1
g99
tp1760
a(I2
g96
tp1761
a(I3
g99
tp1762
a(I0
g94
tp1763
a(I1
g94
tp1764
a(I2
g99
tp1765
a(I3
g99
tp1766
a(I0
g99
tp1767
a(I1
g99
tp1768
a(I2
g94
tp1769
a(I3
g96
tp1770
a(I0
g102
tp1771
a(I1
g99
tp1772
a(I2
g99
tp1773
a(I3
g102
tp1774
a(I0
g99
tp1775
a(I1
g96
tp1776
a(I2
g96
tp1777
a(I3
g102
tp1778
a(I0
g102
tp1779
a(I1
g102
tp1780
a(I2
g102
tp1781
a(I3
g96
tp1782
a(I0
g106
tp1783
a(I1
g94
tp1784
a(I2
g94
tp1785
a(I3
g99
tp1786
a(I0
g96
tp1787
a(I1
g102
tp1788
a(I2
g102
tp1789
a(I3
g94
tp1790
a(I0
g94
tp1791
a(I1
g96
tp1792
a(I2
g102
tp1793
a(I3
g102
tp1794
a(I0
g96
tp1795
a(I1
g96
tp1796
a(I2
g102
tp1797
a(I3
g94
tp1798
a(I0
g94
tp1799
a(I1
g102
tp1800
a(I2
g102
tp1801
a(I3
g99
tp1802
a(I0
g106
tp1803
a(I1
g94
tp1804
a(I2
g102
tp1805
a(I3
g99
tp1806
a(I0
g106
tp1807
a(I1
g99
tp1808
a(I2
g102
tp1809
a(I3
g96
tp1810
a(I0
g99
tp1811
a(I1
g94
tp1812
a(I2
g102
tp1813
a(I3
g96
tp1814
a(I0
g96
tp1815
a(I1
g99
tp1816
a(I2
g99
tp1817
a(I3
g102
tp1818
a(I0
g102
tp1819
a(I1
g99
tp1820
a(I2
g96
tp1821
a(I3
g102
tp1822
a(I0
g106
tp1823
a(I1
g96
tp1824
a(I2
g96
tp1825
a(I3
g94
tp1826
a(I0
g99
tp1827
a(I1
g102
tp1828
a(I2
g102
tp1829
a(I3
g99
tp1830
a(I0
g102
tp1831
a(I1
g94
tp1832
a(I2
g102
tp1833
a(I3
g96
tp1834
a(I0
g99
tp1835
a(I1
g102
tp1836
a(I2
g96
tp1837
a(I3
g102
tp1838
a(I0
g99
tp1839
a(I1
g96
tp1840
a(I2
g102
tp1841
a(I3
g102
tp1842
a(I0
g106
tp1843
a(I1
g102
tp1844
a(I2
g96
tp1845
a(I3
g94
tp1846
a(I0
g94
tp1847
a(I1
g94
tp1848
a(I2
g99
tp1849
a(I3
g99
tp1850
a(I0
g96
tp1851
a(I1
g99
tp1852
a(I2
g94
tp1853
a(I3
g99
tp1854
a(I0
g99
tp1855
a(I1
g99
tp1856
a(I2
g102
tp1857
a(I3
g96
tp1858
a(I0
g102
tp1859
a(I1
g99
tp1860
a(I2
g94
tp1861
a(I3
g99
tp1862
a(I0
g94
tp1863
a(I1
g96
tp1864
a(I2
g99
tp1865
a(I3
g94
tp1866
a(I0
g106
tp1867
a(I1
g102
tp1868
a(I2
g96
tp1869
a(I3
g102
tp1870
a(I0
g102
tp1871
a(I1
g94
tp1872
a(I2
g102
tp1873
a(I3
g94
tp1874
a(I0
g94
tp1875
a(I1
g102
tp1876
a(I2
g94
tp1877
a(I3
g102
tp1878
a(I0
g99
tp1879
a(I1
g102
tp1880
a(I2
g99
tp1881
a(I3
g96
tp1882
a(I0
g94
tp1883
a(I1
g102
tp1884
a(I2
g96
tp1885
a(I3
g96
tp1886
a(I0
g106
tp1887
a(I1
g94
tp1888
a(I2
g102
tp1889
a(I3
g99
tp1890
a(I0
g96
tp1891
a(I1
g102
tp1892
a(I2
g94
tp1893
a(I3
g99
tp1894
a(I0
g96
tp1895
a(I1
g96
tp1896
a(I2
g94
tp1897
a(I3
g94
tp1898
a(I0
g102
tp1899
a(I1
g99
tp1900
a(I2
g94
tp1901
a(I3
g102
tp1902
a(I0
g94
tp1903
a(I1
g99
tp1904
a(I2
g102
tp1905
a(I3
g96
tp1906
a(I0
g106
tp1907
a(I1
g99
tp1908
a(I2
g96
tp1909
a(I3
g102
tp1910
a(I0
g96
tp1911
a(I1
g96
tp1912
a(I2
g99
tp1913
a(I3
g102
tp1914
a(I0
g102
tp1915
a(I1
g102
tp1916
a(I2
g94
tp1917
a(I3
g94
tp1918
a(I0
g99
tp1919
a(I1
g94
tp1920
a(I2
g102
tp1921
a(I3
g99
tp1922
a(I0
g96
tp1923
a(I1
g102
tp1924
a(I2
g102
tp1925
a(I3
g99
tp1926
a(I0
g94
tp1927
a(I1
g94
tp1928
a(I2
g96
tp1929
a(I3
g96
tp1930
a(I0
g94
tp1931
a(I1
g102
tp1932
a(I2
g99
tp1933
a(I3
g102
tp1934
a(I0
g106
tp1935
a(I1
g96
tp1936
a(I2
g99
tp1937
a(I3
g102
tp1938
a(I0
g96
tp1939
a(I1
g99
tp1940
a(I2
g96
tp1941
a(I3
g102
tp1942
a(I0
g96
tp1943
a(I1
g94
tp1944
a(I2
g99
tp1945
a(I3
g102
tp1946
a(I0
g106
tp1947
a(I1
g102
tp1948
a(I2
g99
tp1949
a(I3
g102
tp1950
a(I0
g106
tp1951
a(I1
g96
tp1952
a(I2
g99
tp1953
a(I3
g102
tp1954
a(I0
g106
tp1955
a(I1
g99
tp1956
a(I2
g99
tp1957
a(I3
g96
tp1958
a(I0
g94
tp1959
a(I1
g94
tp1960
a(I2
g94
tp1961
a(I3
g102
tp1962
a(I0
g99
tp1963
a(I1
g102
tp1964
a(I2
g94
tp1965
a(I3
g102
tp1966
a(I0
g102
tp1967
a(I1
g102
tp1968
a(I2
g99
tp1969
a(I3
g96
tp1970
a(I0
g99
tp1971
a(I1
g94
tp1972
a(I2
g99
tp1973
a(I3
g102
tp1974
a(I0
g99
tp1975
a(I1
g94
tp1976
a(I2
g99
tp1977
a(I3
g94
tp1978
a(I0
g102
tp1979
a(I1
g99
tp1980
a(I2
g99
tp1981
a(I3
g99
tp1982
a(I0
g106
tp1983
a(I1
g99
tp1984
a(I2
g99
tp1985
a(I3
g94
tp1986
a(I0
g99
tp1987
a(I1
g99
tp1988
a(I2
g96
tp1989
a(I3
g94
tp1990
a(I0
g96
tp1991
a(I1
g99
tp1992
a(I2
g102
tp1993
a(I3
g94
tp1994
a(I0
g99
tp1995
a(I1
g96
tp1996
a(I2
g94
tp1997
a(I3
g94
tp1998
a(I0
g94
tp1999
a(I1
g99
tp2000
a(I2
g102
tp2001
a(I3
g102
tp2002
a(I0
g102
tp2003
a(I1
g94
tp2004
a(I2
g102
tp2005
a(I3
g94
tp2006
a(I0
g102
tp2007
a(I1
g102
tp2008
a(I2
g102
tp2009
a(I3
g94
tp2010
a(I0
g96
tp2011
a(I1
g102
tp2012
a(I2
g102
tp2013
a(I3
g102
tp2014
a(I0
g99
tp2015
a(I1
g102
tp2016
a(I2
g102
tp2017
a(I3
g96
tp2018
a(I0
g94
tp2019
a(I1
g102
tp2020
a(I2
g96
tp2021
a(I3
g99
tp2022
a(I0
g106
tp2023
a(I1
g102
tp2024
a(I2
g99
tp2025
a(I3
g94
tp2026
a(I0
g106
tp2027
a(I1
g96
tp2028
a(I2
g94
tp2029
a(I3
g102
tp2030
a(I0
g96
tp2031
a(I1
g96
tp2032
a(I2
g99
tp2033
a(I3
g102
tp2034
a(I0
g94
tp2035
a(I1
g99
tp2036
a(I2
g99
tp2037
a(I3
g102
tp2038
a(I0
g94
tp2039
a(I1
g99
tp2040
a(I2
g99
tp2041
a(I3
g96
tp2042
a(I0
g102
tp2043
a(I1
g96
tp2044
a(I2
g99
tp2045
a(I3
g99
tp2046
a(I0
g99
tp2047
a(I1
g99
tp2048
a(I2
g96
tp2049
a(I3
g94
tp2050
a(I0
g106
tp2051
a(I1
g96
tp2052
a(I2
g99
tp2053
a(I3
g99
tp2054
a(I0
g102
tp2055
a(I1
g99
tp2056
a(I2
g94
tp2057
a(I3
g99
tp2058
a(I0
g94
tp2059
a(I1
g94
tp2060
a(I2
g102
tp2061
a(I3
g96
tp2062
a(I0
g106
tp2063
a(I1
g99
tp2064
a(I2
g102
tp2065
a(I3
g96
tp2066
a(I0
g96
tp2067
a(I1
g99
tp2068
a(I2
g102
tp2069
a(I3
g99
tp2070
a(I0
g96
tp2071
a(I1
g96
tp2072
a(I2
g102
tp2073
a(I3
g96
tp2074
a(I0
g99
tp2075
a(I1
g102
tp2076
a(I2
g102
tp2077
a(I3
g96
tp2078
a(I0
g99
tp2079
a(I1
g94
tp2080
a(I2
g102
tp2081
a(I3
g99
tp2082
a(I0
g99
tp2083
a(I1
g102
tp2084
a(I2
g102
tp2085
a(I3
g94
tp2086
a(I0
g106
tp2087
a(I1
g102
tp2088
a(I2
g99
tp2089
a(I3
g94
tp2090
a(I0
g106
tp2091
a(I1
g102
tp2092
a(I2
g96
tp2093
a(I3
g102
tp2094
a(I0
g96
tp2095
a(I1
g94
tp2096
a(I2
g99
tp2097
a(I3
g102
tp2098
a(I0
g106
tp2099
a(I1
g102
tp2100
a(I2
g94
tp2101
a(I3
g102
tp2102
a(I0
g99
tp2103
a(I1
g102
tp2104
a(I2
g99
tp2105
a(I3
g102
tp2106
a(I0
g94
tp2107
a(I1
g102
tp2108
a(I2
g99
tp2109
a(I3
g94
tp2110
a(I0
g99
tp2111
a(I1
g102
tp2112
a(I2
g99
tp2113
a(I3
g94
tp2114
a(I0
g106
tp2115
a(I1
g102
tp2116
a(I2
g99
tp2117
a(I3
g99
tp2118
a(I0
g96
tp2119
a(I1
g96
tp2120
a(I2
g99
tp2121
a(I3
g99
tp2122
a(I0
g94
tp2123
a(I1
g99
tp2124
a(I2
g99
tp2125
a(I3
g96
tp2126
a(I0
g94
tp2127
a(I1
g94
tp2128
a(I2
g96
tp2129
a(I3
g96
tp2130
a(I0
g96
tp2131
a(I1
g99
tp2132
a(I2
g102
tp2133
a(I3
g99
tp2134
a(I0
g106
tp2135
a(I1
g99
tp2136
a(I2
g102
tp2137
a(I3
g96
tp2138
a(I0
g102
tp2139
a(I1
g94
tp2140
a(I2
g94
tp2141
a(I3
g102
tp2142
a(I0
g106
tp2143
a(I1
g94
tp2144
a(I2
g102
tp2145
a(I3
g94
tp2146
a(I0
g94
tp2147
a(I1
g99
tp2148
a(I2
g102
tp2149
a(I3
g94
tp2150
a(I0
g102
tp2151
a(I1
g99
tp2152
a(I2
g102
tp2153
a(I3
g102
tp2154
a(I0
g94
tp2155
a(I1
g99
tp2156
a(I2
g102
tp2157
a(I3
g94
tp2158
a(I0
g106
tp2159
a(I1
g99
tp2160
a(I2
g102
tp2161
a(I3
g99
tp2162
a(I0
g99
tp2163
a(I1
g99
tp2164
a(I2
g96
tp2165
a(I3
g96
tp2166
a(I0
g102
tp2167
a(I1
g99
tp2168
a(I2
g99
tp2169
a(I3
g96
tp2170
a(I0
g102
tp2171
a(I1
g96
tp2172
a(I2
g94
tp2173
a(I3
g99
tp2174
a(I0
g102
tp2175
a(I1
g102
tp2176
a(I2
g99
tp2177
a(I3
g96
tp2178
a(I0
g96
tp2179
a(I1
g94
tp2180
a(I2
g99
tp2181
a(I3
g99
tp2182
a(I0
g94
tp2183
a(I1
g102
tp2184
a(I2
g99
tp2185
a(I3
g99
tp2186
a(I0
g99
tp2187
a(I1
g102
tp2188
a(I2
g99
tp2189
a(I3
g94
tp2190
a(I0
g94
tp2191
a(I1
g102
tp2192
a(I2
g99
tp2193
a(I3
g94
tp2194
a(I0
g94
tp2195
a(I1
g102
tp2196
a(I2
g96
tp2197
a(I3
g99
tp2198
a(I0
g96
tp2199
a(I1
g102
tp2200
a(I2
g99
tp2201
a(I3
g94
tp2202
a(I0
g99
tp2203
a(I1
g96
tp2204
a(I2
g94
tp2205
a(I3
g102
tp2206
a(I0
g99
tp2207
a(I1
g102
tp2208
a(I2
g102
tp2209
a(I3
g102
tp2210
a(I0
g99
tp2211
a(I1
g94
tp2212
a(I2
g102
tp2213
a(I3
g99
tp2214
a(I0
g99
tp2215
a(I1
g99
tp2216
a(I2
g102
tp2217
a(I3
g99
tp2218
a(I0
g106
tp2219
a(I1
g99
tp2220
a(I2
g102
tp2221
a(I3
g96
tp2222
a(I0
g102
tp2223
a(I1
g99
tp2224
a(I2
g102
tp2225
a(I3
g102
tp2226
a(I0
g106
tp2227
a(I1
g99
tp2228
a(I2
g102
tp2229
a(I3
g94
tp2230
a(I0
g102
tp2231
a(I1
g99
tp2232
a(I2
g96
tp2233
a(I3
g102
tp2234
a(I0
g106
tp2235
a(I1
g99
tp2236
a(I2
g102
tp2237
a(I3
g99
tp2238
a(I0
g94
tp2239
a(I1
g96
tp2240
a(I2
g94
tp2241
a(I3
g96
tp2242
a(I0
g106
tp2243
a(I1
g102
tp2244
a(I2
g99
tp2245
a(I3
g99
tp2246
a(I0
g96
tp2247
a(I1
g94
tp2248
a(I2
g99
tp2249
a(I3
g96
tp2250
a(I0
g99
tp2251
a(I1
g99
tp2252
a(I2
g99
tp2253
a(I3
g96
tp2254
a(I0
g94
tp2255
a(I1
g99
tp2256
a(I2
g99
tp2257
a(I3
g102
tp2258
a(I0
g102
tp2259
a(I1
g96
tp2260
a(I2
g99
tp2261
a(I3
g94
tp2262
a(I0
g99
tp2263
a(I1
g102
tp2264
a(I2
g96
tp2265
a(I3
g94
tp2266
a(I0
g102
tp2267
a(I1
g102
tp2268
a(I2
g99
tp2269
a(I3
g94
tp2270
a(I0
g106
tp2271
a(I1
g94
tp2272
a(I2
g94
tp2273
a(I3
g102
tp2274
a(I0
g94
tp2275
a(I1
g102
tp2276
a(I2
g102
tp2277
a(I3
g99
tp2278
a(I0
g96
tp2279
a(I1
g102
tp2280
a(I2
g96
tp2281
a(I3
g96
tp2282
a(I0
g96
tp2283
a(I1
g102
tp2284
a(I2
g99
tp2285
a(I3
g99
tp2286
a(I0
g102
tp2287
a(I1
g102
tp2288
a(I2
g94
tp2289
a(I3
g94
tp2290
a(I0
g96
tp2291
a(I1
g102
tp2292
a(I2
g102
tp2293
a(I3
g102
tp2294
a(I0
g94
tp2295
a(I1
g96
tp2296
a(I2
g102
tp2297
a(I3
g96
tp2298
a(I0
g106
tp2299
a(I1
g96
tp2300
a(I2
g102
tp2301
a(I3
g96
tp2302
a(I0
g99
tp2303
a(I1
g102
tp2304
a(I2
g102
tp2305
a(I3
g102
tp2306
a(I0
g106
tp2307
a(I1
g96
tp2308
a(I2
g102
tp2309
a(I3
g102
tp2310
a(I0
g94
tp2311
a(I1
g96
tp2312
a(I2
g102
tp2313
a(I3
g96
tp2314
a(I0
g96
tp2315
a(I1
g96
tp2316
a(I2
g96
tp2317
a(I3
g99
tp2318
a(I0
g99
tp2319
a(I1
g96
tp2320
a(I2
g96
tp2321
a(I3
g94
tp2322
a(I0
g94
tp2323
a(I1
g102
tp2324
a(I2
g102
tp2325
a(I3
g102
tp2326
a(I0
g99
tp2327
a(I1
g94
tp2328
a(I2
g102
tp2329
a(I3
g102
tp2330
a(I0
g99
tp2331
a(I1
g99
tp2332
a(I2
g96
tp2333
a(I3
g96
tp2334
a(I0
g106
tp2335
a(I1
g96
tp2336
a(I2
g99
tp2337
a(I3
g99
tp2338
a(I0
g96
tp2339
a(I1
g102
tp2340
a(I2
g96
tp2341
a(I3
g99
tp2342
a(I0
g106
tp2343
a(I1
g94
tp2344
a(I2
g102
tp2345
a(I3
g94
tp2346
a(I0
g96
tp2347
a(I1
g94
tp2348
a(I2
g94
tp2349
a(I3
g102
tp2350
a(I0
g106
tp2351
a(I1
g99
tp2352
a(I2
g99
tp2353
a(I3
g96
tp2354
a(I0
g99
tp2355
a(I1
g94
tp2356
a(I2
g94
tp2357
a(I3
g102
tp2358
a(I0
g96
tp2359
a(I1
g102
tp2360
a(I2
g99
tp2361
a(I3
g94
tp2362
a(I0
g106
tp2363
a(I1
g94
tp2364
a(I2
g99
tp2365
a(I3
g99
tp2366
a(I0
g94
tp2367
a(I1
g102
tp2368
a(I2
g94
tp2369
a(I3
g99
tp2370
a(I0
g96
tp2371
a(I1
g94
tp2372
a(I2
g94
tp2373
a(I3
g96
tp2374
a(I0
g96
tp2375
a(I1
g94
tp2376
a(I2
g102
tp2377
a(I3
g102
tp2378
a(I0
g94
tp2379
a(I1
g102
tp2380
a(I2
g96
tp2381
a(I3
g94
tp2382
a(I0
g106
tp2383
a(I1
g102
tp2384
a(I2
g96
tp2385
a(I3
g99
tp2386
a(I0
g106
tp2387
a(I1
g102
tp2388
a(I2
g99
tp2389
a(I3
g96
tp2390
a(I0
g99
tp2391
a(I1
g96
tp2392
a(I2
g94
tp2393
a(I3
g102
tp2394
a(I0
g99
tp2395
a(I1
g99
tp2396
a(I2
g94
tp2397
a(I3
g94
tp2398
a(I0
g99
tp2399
a(I1
g99
tp2400
a(I2
g99
tp2401
a(I3
g99
tp2402
a(I0
g102
tp2403
a(I1
g99
tp2404
a(I2
g99
tp2405
a(I3
g99
tp2406
a(I0
g99
tp2407
a(I1
g94
tp2408
a(I2
g99
tp2409
a(I3
g94
tp2410
a(I0
g94
tp2411
a(I1
g102
tp2412
a(I2
g99
tp2413
a(I3
g94
tp2414
a(I0
g102
tp2415
a(I1
g102
tp2416
a(I2
g99
tp2417
a(I3
g102
tp2418
a(I0
g102
tp2419
a(I1
g102
tp2420
a(I2
g99
tp2421
a(I3
g99
tp2422
a(I0
g102
tp2423
a(I1
g96
tp2424
a(I2
g96
tp2425
a(I3
g96
tp2426
a(I0
g106
tp2427
a(I1
g99
tp2428
a(I2
g102
tp2429
a(I3
g99
tp2430
a(I0
g99
tp2431
a(I1
g94
tp2432
a(I2
g94
tp2433
a(I3
g94
tp2434
a(I0
g102
tp2435
a(I1
g99
tp2436
a(I2
g102
tp2437
a(I3
g102
tp2438
a(I0
g99
tp2439
a(I1
g99
tp2440
a(I2
g102
tp2441
a(I3
g102
tp2442
a(I0
g99
tp2443
a(I1
g96
tp2444
a(I2
g102
tp2445
a(I3
g99
tp2446
a(I0
g102
tp2447
a(I1
g102
tp2448
a(I2
g102
tp2449
a(I3
g99
tp2450
a(I0
g99
tp2451
a(I1
g94
tp2452
a(I2
g102
tp2453
a(I3
g99
tp2454
a(I0
g106
tp2455
a(I1
g99
tp2456
a(I2
g96
tp2457
a(I3
g99
tp2458
a(I0
g94
tp2459
a(I1
g96
tp2460
a(I2
g96
tp2461
a(I3
g99
tp2462
a(I0
g94
tp2463
a(I1
g102
tp2464
a(I2
g99
tp2465
a(I3
g99
tp2466
a(I0
g102
tp2467
a(I1
g94
tp2468
a(I2
g99
tp2469
a(I3
g99
tp2470
a(I0
g102
tp2471
a(I1
g99
tp2472
a(I2
g96
tp2473
a(I3
g96
tp2474
a(I0
g106
tp2475
a(I1
g96
tp2476
a(I2
g99
tp2477
a(I3
g102
tp2478
a(I0
g94
tp2479
a(I1
g102
tp2480
a(I2
g99
tp2481
a(I3
g94
tp2482
a(I0
g94
tp2483
a(I1
g96
tp2484
a(I2
g99
tp2485
a(I3
g102
tp2486
a(I0
g102
tp2487
a(I1
g99
tp2488
a(I2
g96
tp2489
a(I3
g102
tp2490
a(I0
g102
tp2491
a(I1
g99
tp2492
a(I2
g102
tp2493
a(I3
g102
tp2494
a(I0
g94
tp2495
a(I1
g96
tp2496
a(I2
g94
tp2497
a(I3
g102
tp2498
a(I0
g99
tp2499
a(I1
g99
tp2500
a(I2
g102
tp2501
a(I3
g102
tp2502
a(I0
g96
tp2503
a(I1
g99
tp2504
a(I2
g102
tp2505
a(I3
g102
tp2506
a(I0
g99
tp2507
a(I1
g94
tp2508
a(I2
g94
tp2509
a(I3
g99
tp2510
a(I0
g106
tp2511
a(I1
g102
tp2512
a(I2
g102
tp2513
a(I3
g96
tp2514
a(I0
g94
tp2515
a(I1
g102
tp2516
a(I2
g96
tp2517
a(I3
g99
tp2518
a(I0
g99
tp2519
a(I1
g96
tp2520
a(I2
g99
tp2521
a(I3
g96
tp2522
a(I0
g96
tp2523
a(I1
g99
tp2524
a(I2
g94
tp2525
a(I3
g99
tp2526
a(I0
g94
tp2527
a(I1
g94
tp2528
a(I2
g102
tp2529
a(I3
g99
tp2530
a(I0
g96
tp2531
a(I1
g102
tp2532
a(I2
g102
tp2533
a(I3
g96
tp2534
a(I0
g94
tp2535
a(I1
g96
tp2536
a(I2
g94
tp2537
a(I3
g96
tp2538
a(I0
g102
tp2539
a(I1
g96
tp2540
a(I2
g102
tp2541
a(I3
g99
tp2542
a(I0
g94
tp2543
a(I1
g96
tp2544
a(I2
g96
tp2545
a(I3
g96
tp2546
a(I0
g96
tp2547
a(I1
g99
tp2548
a(I2
g99
tp2549
a(I3
g99
tp2550
a(I0
g99
tp2551
a(I1
g94
tp2552
a(I2
g96
tp2553
a(I3
g99
tp2554
a(I0
g106
tp2555
a(I1
g94
tp2556
a(I2
g99
tp2557
a(I3
g94
tp2558
a(I0
g106
tp2559
a(I1
g99
tp2560
a(I2
g99
tp2561
a(I3
g99
tp2562
a(I0
g99
tp2563
a(I1
g94
tp2564
a(I2
g96
tp2565
a(I3
g96
tp2566
a(I0
g94
tp2567
a(I1
g102
tp2568
a(I2
g96
tp2569
a(I3
g102
tp2570
a(I0
g102
tp2571
a(I1
g102
tp2572
a(I2
g102
tp2573
a(I3
g102
tp2574
a(I0
g99
tp2575
a(I1
g96
tp2576
a(I2
g102
tp2577
a(I3
g102
tp2578
a(I0
g96
tp2579
a(I1
g96
tp2580
a(I2
g102
tp2581
a(I3
g102
tp2582
a(I0
g94
tp2583
a(I1
g102
tp2584
a(I2
g96
tp2585
a(I3
g102
tp2586
a(I0
g102
tp2587
a(I1
g94
tp2588
a(I2
g96
tp2589
a(I3
g94
tp2590
a(I0
g106
tp2591
a(I1
g94
tp2592
a(I2
g96
tp2593
a(I3
g99
tp2594
a(I0
g99
tp2595
a(I1
g99
tp2596
a(I2
g99
tp2597
a(I3
g99
tp2598
a(I0
g96
tp2599
a(I1
g99
tp2600
a(I2
g99
tp2601
a(I3
g96
tp2602
a(I0
g102
tp2603
a(I1
g99
tp2604
a(I2
g99
tp2605
a(I3
g99
tp2606
a(I0
g94
tp2607
a(I1
g94
tp2608
a(I2
g96
tp2609
a(I3
g99
tp2610
a(I0
g102
tp2611
a(I1
g94
tp2612
a(I2
g99
tp2613
a(I3
g94
tp2614
a(I0
g106
tp2615
a(I1
g102
tp2616
a(I2
g94
tp2617
a(I3
g102
tp2618
a(I0
g99
tp2619
a(I1
g99
tp2620
a(I2
g99
tp2621
a(I3
g96
tp2622
a(I0
g106
tp2623
a(I1
g99
tp2624
a(I2
g94
tp2625
a(I3
g99
tp2626
a(I0
g106
tp2627
a(I1
g96
tp2628
a(I2
g102
tp2629
a(I3
g94
tp2630
a(I0
g96
tp2631
a(I1
g102
tp2632
a(I2
g96
tp2633
a(I3
g102
tp2634
a(I0
g99
tp2635
a(I1
g94
tp2636
a(I2
g99
tp2637
a(I3
g96
tp2638
a(I0
g94
tp2639
a(I1
g102
tp2640
a(I2
g94
tp2641
a(I3
g99
tp2642
a(I0
g102
tp2643
a(I1
g99
tp2644
a(I2
g102
tp2645
a(I3
g94
tp2646
a(I0
g99
tp2647
a(I1
g96
tp2648
a(I2
g102
tp2649
a(I3
g94
tp2650
a(I0
g96
tp2651
a(I1
g96
tp2652
a(I2
g102
tp2653
a(I3
g102
tp2654
a(I0
g94
tp2655
a(I1
g96
tp2656
a(I2
g96
tp2657
a(I3
g96
tp2658
a(I0
g102
tp2659
a(I1
g99
tp2660
a(I2
g102
tp2661
a(I3
g102
tp2662
a(I0
g96
tp2663
a(I1
g94
tp2664
a(I2
g102
tp2665
a(I3
g96
tp2666
a(I0
g102
tp2667
a(I1
g102
tp2668
a(I2
g94
tp2669
a(I3
g99
tp2670
a(I0
g106
tp2671
a(I1
g96
tp2672
a(I2
g94
tp2673
a(I3
g99
tp2674
a(I0
g99
tp2675
a(I1
g102
tp2676
a(I2
g94
tp2677
a(I3
g94
tp2678
a(I0
g102
tp2679
a(I1
g102
tp2680
a(I2
g99
tp2681
a(I3
g102
tp2682
a(I0
g96
tp2683
a(I1
g96
tp2684
a(I2
g99
tp2685
a(I3
g96
tp2686
a(I0
g99
tp2687
a(I1
g96
tp2688
a(I2
g99
tp2689
a(I3
g102
tp2690
a(I0
g99
tp2691
a(I1
g96
tp2692
a(I2
g94
tp2693
a(I3
g102
tp2694
a(I0
g96
tp2695
a(I1
g99
tp2696
a(I2
g99
tp2697
a(I3
g102
tp2698
a(I0
g102
tp2699
a(I1
g99
tp2700
a(I2
g94
tp2701
a(I3
g102
tp2702
a(I0
g99
tp2703
a(I1
g94
tp2704
a(I2
g99
tp2705
a(I3
g102
tp2706
a(I0
g94
tp2707
a(I1
g99
tp2708
a(I2
g96
tp2709
a(I3
g96
tp2710
a(I0
g96
tp2711
a(I1
g99
tp2712
a(I2
g96
tp2713
a(I3
g96
tp2714
a(I0
g102
tp2715
a(I1
g99
tp2716
a(I2
g99
tp2717
a(I3
g96
tp2718
a(I0
g96
tp2719
a(I1
g94
tp2720
a(I2
g94
tp2721
a(I3
g99
tp2722
a(I0
g94
tp2723
a(I1
g94
tp2724
a(I2
g94
tp2725
a(I3
g99
tp2726
a(I0
g94
tp2727
a(I1
g94
tp2728
a(I2
g99
tp2729
a(I3
g99
tp2730
a(I0
g94
tp2731
a(I1
g102
tp2732
a(I2
g96
tp2733
a(I3
g99
tp2734
a(I0
g99
tp2735
a(I1
g96
tp2736
a(I2
g102
tp2737
a(I3
g99
tp2738
a(I0
g96
tp2739
a(I1
g99
tp2740
a(I2
g94
tp2741
a(I3
g99
tp2742
a(I0
g96
tp2743
a(I1
g94
tp2744
a(I2
g102
tp2745
a(I3
g94
tp2746
a(I0
g99
tp2747
a(I1
g102
tp2748
a(I2
g96
tp2749
a(I3
g102
tp2750
a(I0
g94
tp2751
a(I1
g102
tp2752
a(I2
g102
tp2753
a(I3
g102
tp2754
a(I0
g96
tp2755
a(I1
g94
tp2756
a(I2
g94
tp2757
a(I3
g102
tp2758
a(I0
g94
tp2759
a(I1
g94
tp2760
a(I2
g99
tp2761
a(I3
g102
tp2762
a(I0
g102
tp2763
a(I1
g102
tp2764
a(I2
g96
tp2765
a(I3
g96
tp2766
a(I0
g96
tp2767
a(I1
g102
tp2768
a(I2
g102
tp2769
a(I3
g99
tp2770
a(I0
g102
tp2771
a(I1
g99
tp2772
a(I2
g94
tp2773
a(I3
g94
tp2774
a(I0
g102
tp2775
a(I1
g99
tp2776
a(I2
g102
tp2777
a(I3
g102
tp2778
a(I0
g102
tp2779
a(I1
g99
tp2780
a(I2
g102
tp2781
a(I3
g96
tp2782
a(I0
g94
tp2783
a(I1
g99
tp2784
a(I2
g102
tp2785
a(I3
g102
tp2786
a(I0
g96
tp2787
a(I1
g99
tp2788
a(I2
g94
tp2789
a(I3
g102
tp2790
a(I0
g106
tp2791
a(I1
g99
tp2792
a(I2
g94
tp2793
a(I3
g94
tp2794
a(I0
g106
tp2795
a(I1
g99
tp2796
a(I2
g102
tp2797
a(I3
g94
tp2798
a(I0
g99
tp2799
a(I1
g99
tp2800
a(I2
g94
tp2801
a(I3
g94
tp2802
a(I0
g99
tp2803
a(I1
g96
tp2804
a(I2
g102
tp2805
a(I3
g99
tp2806
a(I0
g99
tp2807
a(I1
g102
tp2808
a(I2
g99
tp2809
a(I3
g99
tp2810
a(I0
g94
tp2811
a(I1
g102
tp2812
a(I2
g99
tp2813
a(I3
g94
tp2814
a(I0
g99
tp2815
a(I1
g94
tp2816
a(I2
g96
tp2817
a(I3
g94
tp2818
a(I0
g96
tp2819
a(I1
g102
tp2820
a(I2
g102
tp2821
a(I3
g99
tp2822
a(I0
g99
tp2823
a(I1
g102
tp2824
a(I2
g94
tp2825
a(I3
g94
tp2826
a(I0
g99
tp2827
a(I1
g102
tp2828
a(I2
g102
tp2829
a(I3
g102
tp2830
a(I0
g102
tp2831
a(I1
g102
tp2832
a(I2
g99
tp2833
a(I3
g102
tp2834
a(I0
g96
tp2835
a(I1
g102
tp2836
a(I2
g99
tp2837
a(I3
g94
tp2838
a(I0
g94
tp2839
a(I1
g102
tp2840
a(I2
g96
tp2841
a(I3
g94
tp2842
a(I0
g96
tp2843
a(I1
g99
tp2844
a(I2
g102
tp2845
a(I3
g99
tp2846
a(I0
g94
tp2847
a(I1
g99
tp2848
a(I2
g94
tp2849
a(I3
g99
tp2850
a(I0
g94
tp2851
a(I1
g99
tp2852
a(I2
g102
tp2853
a(I3
g99
tp2854
a(I0
g102
tp2855
a(I1
g99
tp2856
a(I2
g99
tp2857
a(I3
g99
tp2858
a(I0
g102
tp2859
a(I1
g99
tp2860
a(I2
g99
tp2861
a(I3
g96
tp2862
a(I0
g94
tp2863
a(I1
g99
tp2864
a(I2
g96
tp2865
a(I3
g99
tp2866
a(I0
g102
tp2867
a(I1
g96
tp2868
a(I2
g102
tp2869
a(I3
g94
tp2870
a(I0
g99
tp2871
a(I1
g99
tp2872
a(I2
g94
tp2873
a(I3
g102
tp2874
a(I0
g102
tp2875
a(I1
g94
tp2876
a(I2
g102
tp2877
a(I3
g102
tp2878
a(I0
g94
tp2879
a(I1
g102
tp2880
a(I2
g99
tp2881
a(I3
g102
tp2882
a(I0
g99
tp2883
a(I1
g102
tp2884
a(I2
g96
tp2885
a(I3
g102
tp2886
a(I0
g96
tp2887
a(I1
g102
tp2888
a(I2
g96
tp2889
a(I3
g102
tp2890
a(I0
g102
tp2891
a(I1
g102
tp2892
a(I2
g102
tp2893
a(I3
g102
tp2894
a(I0
g106
tp2895
a(I1
g102
tp2896
a(I2
g102
tp2897
a(I3
g102
tp2898
a(I0
g96
tp2899
a(I1
g102
tp2900
a(I2
g102
tp2901
a(I3
g99
tp2902
a(I0
g94
tp2903
a(I1
g102
tp2904
a(I2
g94
tp2905
a(I3
g99
tp2906
a(I0
g94
tp2907
a(I1
g99
tp2908
a(I2
g94
tp2909
a(I3
g99
tp2910
a(I0
g102
tp2911
a(I1
g99
tp2912
a(I2
g102
tp2913
a(I3
g99
tp2914
a(I0
g102
tp2915
a(I1
g99
tp2916
a(I2
g96
tp2917
a(I3
g99
tp2918
a(I0
g96
tp2919
a(I1
g99
tp2920
a(I2
g99
tp2921
a(I3
g99
tp2922
a(I0
g96
tp2923
a(I1
g99
tp2924
a(I2
g96
tp2925
a(I3
g96
tp2926
a(I0
g106
tp2927
a(I1
g99
tp2928
a(I2
g99
tp2929
a(I3
g99
tp2930
a(I0
g106
tp2931
a(I1
g99
tp2932
a(I2
g99
tp2933
a(I3
g94
tp2934
a(I0
g99
tp2935
a(I1
g99
tp2936
a(I2
g99
tp2937
a(I3
g102
tp2938
a(I0
g94
tp2939
a(I1
g96
tp2940
a(I2
g94
tp2941
a(I3
g102
tp2942
a(I0
g99
tp2943
a(I1
g102
tp2944
a(I2
g94
tp2945
a(I3
g102
tp2946
a(I0
g106
tp2947
a(I1
g102
tp2948
a(I2
g102
tp2949
a(I3
g102
tp2950
a(I0
g102
tp2951
a(I1
g94
tp2952
a(I2
g99
tp2953
a(I3
g102
tp2954
a(I0
g96
tp2955
a(I1
g99
tp2956
a(I2
g99
tp2957
a(I3
g102
tp2958
a(I0
g102
tp2959
a(I1
g99
tp2960
a(I2
g99
tp2961
a(I3
g102
tp2962
a(I0
g96
tp2963
a(I1
g96
tp2964
a(I2
g99
tp2965
a(I3
g99
tp2966
a(I0
g94
tp2967
a(I1
g102
tp2968
a(I2
g99
tp2969
a(I3
g96
tp2970
a(I0
g99
tp2971
a(I1
g102
tp2972
a(I2
g99
tp2973
a(I3
g96
tp2974
a(I0
g96
tp2975
a(I1
g94
tp2976
a(I2
g96
tp2977
a(I3
g96
tp2978
a(I0
g102
tp2979
a(I1
g99
tp2980
a(I2
g99
tp2981
a(I3
g102
tp2982
a(I0
g99
tp2983
a(I1
g99
tp2984
a(I2
g94
tp2985
a(I3
g96
tp2986
a(I0
g106
tp2987
a(I1
g96
tp2988
a(I2
g102
tp2989
a(I3
g96
tp2990
a(I0
g99
tp2991
a(I1
g102
tp2992
a(I2
g102
tp2993
a(I3
g96
tp2994
a(I0
g99
tp2995
a(I1
g102
tp2996
a(I2
g102
tp2997
a(I3
g99
tp2998
a(I0
g99
tp2999
a(I1
g94
tp3000
a(I2
g102
tp3001
a(I3
g96
tp3002
a(I0
g106
tp3003
a(I1
g99
tp3004
a(I2
g102
tp3005
a(I3
g96
tp3006
a(I0
g99
tp3007
a(I1
g96
tp3008
a(I2
g102
tp3009
a(I3
g99
tp3010
a(I0
g99
tp3011
a(I1
g99
tp3012
a(I2
g96
tp3013
a(I3
g99
tp3014
a(I0
g99
tp3015
a(I1
g94
tp3016
a(I2
g96
tp3017
a(I3
g99
tp3018
a(I0
g106
tp3019
a(I1
g102
tp3020
a(I2
g99
tp3021
a(I3
g99
tp3022
a(I0
g102
tp3023
a(I1
g96
tp3024
a(I2
g94
tp3025
a(I3
g99
tp3026
a(I0
g106
tp3027
a(I1
g99
tp3028
a(I2
g102
tp3029
a(I3
g99
tp3030
a(I0
g99
tp3031
a(I1
g94
tp3032
a(I2
g96
tp3033
a(I3
g94
tp3034
a(I0
g106
tp3035
a(I1
g102
tp3036
a(I2
g96
tp3037
a(I3
g102
tp3038
a(I0
g94
tp3039
a(I1
g96
tp3040
a(I2
g99
tp3041
a(I3
g102
tp3042
a(I0
g102
tp3043
a(I1
g99
tp3044
a(I2
g94
tp3045
a(I3
g102
tp3046
a(I0
g94
tp3047
a(I1
g94
tp3048
a(I2
g99
tp3049
a(I3
g102
tp3050
a(I0
g96
tp3051
a(I1
g102
tp3052
a(I2
g96
tp3053
a(I3
g96
tp3054
a(I0
g96
tp3055
a(I1
g96
tp3056
a(I2
g96
tp3057
a(I3
g102
tp3058
a(I0
g106
tp3059
a(I1
g102
tp3060
a(I2
g96
tp3061
a(I3
g102
tp3062
a(I0
g106
tp3063
a(I1
g94
tp3064
a(I2
g99
tp3065
a(I3
g94
tp3066
a(I0
g94
tp3067
a(I1
g99
tp3068
a(I2
g99
tp3069
a(I3
g94
tp3070
a(I0
g106
tp3071
a(I1
g96
tp3072
a(I2
g99
tp3073
a(I3
g94
tp3074
a(I0
g94
tp3075
a(I1
g99
tp3076
a(I2
g99
tp3077
a(I3
g102
tp3078
a(I0
g99
tp3079
a(I1
g94
tp3080
a(I2
g99
tp3081
a(I3
g102
tp3082
a(I0
g94
tp3083
a(I1
g102
tp3084
a(I2
g94
tp3085
a(I3
g94
tp3086
a(I0
g102
tp3087
a(I1
g96
tp3088
a(I2
g102
tp3089
a(I3
g94
tp3090
a(I0
g96
tp3091
a(I1
g102
tp3092
a(I2
g96
tp3093
a(I3
g94
tp3094
a(I0
g96
tp3095
a(I1
g94
tp3096
a(I2
g99
tp3097
a(I3
g99
tp3098
a(I0
g96
tp3099
a(I1
g102
tp3100
a(I2
g94
tp3101
a(I3
g99
tp3102
a(I0
g99
tp3103
a(I1
g102
tp3104
a(I2
g94
tp3105
a(I3
g96
tp3106
a(I0
g106
tp3107
a(I1
g102
tp3108
a(I2
g102
tp3109
a(I3
g99
tp3110
as.