(dp1
S'layout'
p2
(ilayout
Layout
p3
(dp4
S'numGhosts'
p5
I3
sS'food'
p6
(igame
Grid
p7
(dp8
S'CELLS_PER_INT'
p9
I30
sS'width'
p10
I25
sS'data'
p11
(lp12
(lp13
I00
aI00
aI00
aI00
aI00
aI00
aI00
aI00
aI00
aI00
aI00
aI00
aa(lp14
I00
aI00
aI00
aI00
aI00
aI01
aI00
aI00
aI00
aI01
aI01
aI00
aa(lp15
I00
aI00
aI00
aI00
aI00
aI00
aI00
aI00
aI00
aI00
aI00
aI00
aa(lp16
I00
aI00
aI00
aI01
aI00
aI01
aI00
aI01
aI00
aI00
aI01
aI00
aa(lp17
I00
aI00
aI00
aI01
aI00
aI00
aI00
aI00
aI00
aI00
aI00
aI00
aa(lp18
I00
aI00
aI01
aI00
aI00
aI01
aI00
aI01
aI01
aI00
aI00
aI00
aa(lp19
I00
aI01
aI00
aI01
aI00
aI01
aI00
aI01
aI01
aI00
aI01
aI00
aa(lp20
I00
aI00
aI01
aI00
aI00
aI01
aI00
aI01
aI00
aI01
aI01
aI00
aa(lp21
I00
aI01
aI01
aI01
aI01
aI01
aI00
aI01
aI01
aI00
aI01
aI00
aa(lp22
I00
aI01
aI01
aI00
aI01
aI01
aI00
aI01
aI00
aI00
aI00
aI00
aa(lp23
I00
aI00
aI00
aI01
aI00
aI01
aI00
aI00
aI01
aI00
aI00
aI00
aa(lp24
I00
aI00
aI00
aI00
aI00
aI01
aI00
aI01
aI00
aI00
aI00
aI00
aa(lp25
I00
aI01
aI00
aI01
aI01
aI01
aI00
aI01
aI00
aI00
aI00
aI00
aa(lp26
I00
aI01
aI00
aI01
aI00
aI00
aI00
aI01
aI00
aI00
aI00
aI00
aa(lp27
I00
aI01
aI00
aI01
aI00
aI00
aI01
aI01
aI00
aI00
aI00
aI00
aa(lp28
I00
aI01
aI00
aI01
aI00
aI01
aI00
aI01
aI00
aI01
aI00
aI00
aa(lp29
I00
aI00
aI00
aI01
aI00
aI00
aI01
aI01
aI00
aI00
aI00
aI00
aa(lp30
I00
aI00
aI01
aI00
aI00
aI01
aI01
aI00
aI00
aI01
aI01
aI00
aa(lp31
I00
aI00
aI00
aI00
aI00
aI00
aI00
aI00
aI00
aI01
aI00
aI00
aa(lp32
I00
aI00
aI01
aI01
aI01
aI01
aI00
aI01
aI00
aI00
aI00
aI00
aa(lp33
I00
aI00
aI01
aI01
aI00
aI01
aI00
aI00
aI00
aI00
aI00
aI00
aa(lp34
I00
aI00
aI00
aI00
aI00
aI00
aI00
aI01
aI00
aI00
aI00
aI00
aa(lp35
I00
aI00
aI00
aI01
aI00
aI00
aI00
aI01
aI00
aI00
aI00
aI00
aa(lp36
I00
aI00
aI00
aI00
aI00
aI01
aI00
aI01
aI00
aI00
aI00
aI00
aa(lp37
I00
aI00
aI00
aI00
aI00
aI00
aI00
aI00
aI00
aI00
aI00
aI00
aasS'height'
p38
I12
sbsS'agentPositions'
p39
(lp40
(I01
(I20
I1
tp41
tp42
a(I00
(I21
I10
tp43
tp44
a(I00
(I22
I10
tp45
tp46
a(I00
(I23
I10
tp47
tp48
asg38
I12
sg10
I25
sS'walls'
p49
(igame
Grid
p50
(dp51
g9
I30
sg10
I25
sg11
(lp52
(lp53
I01
aI01
aI01
aI01
aI01
aI01
aI01
aI01
aI01
aI01
aI01
aI01
aa(lp54
I01
aI00
aI00
aI00
aI01
aI00
aI00
aI00
aI01
aI00
aI00
aI01
aa(lp55
I01
aI00
aI00
aI00
aI01
aI00
aI00
aI00
aI01
aI00
aI00
aI01
aa(lp56
I01
aI00
aI00
aI00
aI01
aI00
aI00
aI00
aI01
aI00
aI00
aI01
aa(lp57
I01
aI00
aI00
aI00
aI01
aI00
aI00
aI00
aI01
aI01
aI00
aI01
aa(lp58
I01
aI00
aI00
aI00
aI01
aI00
aI00
aI00
aI00
aI01
aI00
aI01
aa(lp59
I01
aI00
aI00
aI00
aI01
aI00
aI00
aI00
aI00
aI01
aI00
aI01
aa(lp60
I01
aI01
aI00
aI01
aI01
aI00
aI01
aI00
aI00
aI00
aI00
aI01
aa(lp61
I01
aI00
aI00
aI00
aI00
aI00
aI01
aI00
aI00
aI00
aI00
aI01
aa(lp62
I01
aI00
aI00
aI00
aI00
aI00
aI00
aI00
aI00
aI01
aI00
aI01
aa(lp63
I01
aI00
aI00
aI00
aI00
aI00
aI00
aI00
aI00
aI01
aI01
aI01
aa(lp64
I01
aI00
aI00
aI00
aI00
aI00
aI00
aI00
aI00
aI00
aI00
aI01
aa(lp65
I01
aI00
aI00
aI00
aI00
aI00
aI00
aI00
aI00
aI00
aI00
aI01
aa(lp66
I01
aI00
aI00
aI00
aI00
aI01
aI00
aI00
aI00
aI00
aI00
aI01
aa(lp67
I01
aI00
aI01
aI00
aI00
aI00
aI00
aI00
aI00
aI00
aI00
aI01
aa(lp68
I01
aI00
aI01
aI00
aI00
aI00
aI00
aI00
aI00
aI00
aI00
aI01
aa(lp69
I01
aI00
aI00
aI00
aI00
aI00
aI00
aI00
aI01
aI00
aI01
aI01
aa(lp70
I01
aI00
aI00
aI00
aI00
aI00
aI00
aI00
aI01
aI00
aI00
aI01
aa(lp71
I01
aI00
aI00
aI00
aI00
aI00
aI01
aI01
aI01
aI00
aI00
aI01
aa(lp72
I01
aI00
aI00
aI00
aI00
aI00
aI00
aI00
aI00
aI00
aI00
aI01
aa(lp73
I01
aI00
aI00
aI00
aI00
aI00
aI01
aI00
aI00
aI00
aI00
aI01
aa(lp74
I01
aI00
aI00
aI00
aI00
aI00
aI01
aI00
aI00
aI00
aI00
aI01
aa(lp75
I01
aI00
aI00
aI00
aI01
aI00
aI01
aI00
aI00
aI00
aI00
aI01
aa(lp76
I01
aI00
aI00
aI01
aI01
aI00
aI01
aI00
aI00
aI00
aI00
aI01
aa(lp77
I01
aI01
aI01
aI01
aI01
aI01
aI01
aI01
aI01
aI01
aI01
aI01
aasg38
I12
sbsS'layoutText'
p78
(lp79
S'%%%%%%%%%%%%%%%%%%%%%%%%%'
p80
aS'%. .  ... %     %.   GGG%'
p81
aS'%.  %%%. %%    . ..     %'
p82
aS'%%%%%.. . .     %%%     %'
p83
aS'%  . ..... ...... %. ...%'
p84
aS'%      %%     . ..% %%%%%'
p85
aS'%. . ........% . . ..  .%'
p86
aS'%%%%%%%%..  .      .  %%%'
p87
aS'%  .. .%. . .....  .. .%%'
p88
aS'%    . ...    %% . ..   %'
p89
aS'%     .%..  ....    P   %'
p90
aS'%%%%%%%%%%%%%%%%%%%%%%%%%'
p91
asbsS'actions'
p92
(lp93
(I0
S'North'
p94
tp95
a(I1
S'East'
p96
tp97
a(I2
S'West'
p98
tp99
a(I3
g98
tp100
a(I0
g94
tp101
a(I1
S'South'
p102
tp103
a(I2
g98
tp104
a(I3
g98
tp105
a(I0
g98
tp106
a(I1
g98
tp107
a(I2
g102
tp108
a(I3
g98
tp109
a(I0
g94
tp110
a(I1
g98
tp111
a(I2
g102
tp112
a(I3
g98
tp113
a(I0
g102
tp114
a(I1
g94
tp115
a(I2
g98
tp116
a(I3
g98
tp117
a(I0
g96
tp118
a(I1
g98
tp119
a(I2
g102
tp120
a(I3
g98
tp121
a(I0
g96
tp122
a(I1
g98
tp123
a(I2
g102
tp124
a(I3
g102
tp125
a(I0
g102
tp126
a(I1
g98
tp127
a(I2
g102
tp128
a(I3
g98
tp129
a(I0
g94
tp130
a(I1
g102
tp131
a(I2
g98
tp132
a(I3
g98
tp133
a(I0
g98
tp134
a(I1
g98
tp135
a(I2
g98
tp136
a(I3
g94
tp137
a(I0
S'Stop'
p138
tp139
a(I1
g98
tp140
a(I2
g94
tp141
a(I3
g98
tp142
a(I0
g98
tp143
a(I1
g98
tp144
a(I2
g98
tp145
a(I3
g98
tp146
a(I0
g96
tp147
a(I1
g98
tp148
a(I2
g102
tp149
a(I3
g98
tp150
a(I0
g94
tp151
a(I1
g94
tp152
a(I2
g102
tp153
a(I3
g98
tp154
a(I0
g102
tp155
a(I1
g98
tp156
a(I2
g98
tp157
a(I3
g102
tp158
a(I0
g138
tp159
a(I1
g98
tp160
a(I2
g102
tp161
a(I3
g102
tp162
a(I0
g98
tp163
a(I1
g102
tp164
a(I2
g98
tp165
a(I3
g102
tp166
a(I0
g138
tp167
a(I1
g96
tp168
a(I2
g98
tp169
a(I3
g102
tp170
a(I0
g102
tp171
a(I1
g94
tp172
a(I2
g102
tp173
a(I3
g102
tp174
a(I0
g98
tp175
a(I1
g98
tp176
a(I2
g98
tp177
a(I3
g98
tp178
a(I0
g96
tp179
a(I1
g102
tp180
a(I2
g98
tp181
a(I3
g98
tp182
a(I0
g138
tp183
a(I1
g96
tp184
a(I2
g98
tp185
a(I3
g102
tp186
a(I0
g102
tp187
a(I1
g94
tp188
a(I2
g98
tp189
a(I3
g98
tp190
a(I0
g94
tp191
a(I1
g98
tp192
a(I2
g98
tp193
a(I3
g102
tp194
a(I0
g138
tp195
a(I1
g102
tp196
a(I2
g98
tp197
a(I3
g102
tp198
a(I0
g98
tp199
a(I1
g96
tp200
a(I2
g98
tp201
a(I3
g98
tp202
a(I0
g138
tp203
a(I1
g94
tp204
a(I2
g98
tp205
a(I3
g98
tp206
a(I0
g94
tp207
a(I1
g98
tp208
a(I2
g98
tp209
a(I3
g98
tp210
a(I0
g98
tp211
a(I1
g102
tp212
a(I2
g98
tp213
a(I3
g98
tp214
a(I0
g96
tp215
a(I1
g96
tp216
a(I2
g98
tp217
a(I3
g94
tp218
a(I0
g96
tp219
a(I1
g94
tp220
a(I2
g102
tp221
a(I3
g98
tp222
a(I0
g96
tp223
a(I1
g98
tp224
a(I2
g96
tp225
a(I3
g98
tp226
a(I0
g98
tp227
a(I1
g102
tp228
a(I2
g94
tp229
a(I3
g102
tp230
a(I0
g102
tp231
a(I1
g102
tp232
a(I2
g94
tp233
a(I3
g96
tp234
a(I0
g102
tp235
a(I1
g98
tp236
a(I2
g98
tp237
a(I3
g94
tp238
a(I0
g138
tp239
a(I1
g102
tp240
a(I2
g102
tp241
a(I3
g96
tp242
a(I0
g96
tp243
a(I1
g96
tp244
a(I2
g96
tp245
a(I3
g96
tp246
a(I0
g94
tp247
a(I1
g94
tp248
a(I2
g96
tp249
a(I3
g102
tp250
a(I0
g94
tp251
a(I1
g96
tp252
a(I2
g96
tp253
a(I3
g98
tp254
a(I0
g96
tp255
a(I1
g94
tp256
a(I2
g94
tp257
a(I3
g94
tp258
a(I0
g96
tp259
a(I1
g94
tp260
a(I2
g96
tp261
a(I3
g98
tp262
a(I0
g138
tp263
a(I1
g98
tp264
a(I2
g102
tp265
a(I3
g102
tp266
a(I0
g138
tp267
a(I1
g102
tp268
a(I2
g96
tp269
a(I3
g96
tp270
a(I0
g102
tp271
a(I1
g102
tp272
a(I2
g96
tp273
a(I3
g94
tp274
a(I0
g138
tp275
a(I1
g96
tp276
a(I2
g102
tp277
a(I3
g98
tp278
a(I0
g98
tp279
a(I1
g94
tp280
a(I2
g96
tp281
a(I3
g102
tp282
a(I0
g96
tp283
a(I1
g94
tp284
a(I2
g96
tp285
a(I3
g98
tp286
a(I0
g96
tp287
a(I1
g98
tp288
a(I2
g94
tp289
a(I3
g94
tp290
a(I0
g102
tp291
a(I1
g102
tp292
a(I2
g98
tp293
a(I3
g96
tp294
a(I0
g138
tp295
a(I1
g96
tp296
a(I2
g94
tp297
a(I3
g102
tp298
a(I0
g94
tp299
a(I1
g94
tp300
a(I2
g96
tp301
a(I3
g98
tp302
a(I0
g138
tp303
a(I1
g98
tp304
a(I2
g94
tp305
a(I3
g94
tp306
a(I0
g102
tp307
a(I1
g102
tp308
a(I2
g96
tp309
a(I3
g96
tp310
a(I0
g138
tp311
a(I1
g96
tp312
a(I2
g94
tp313
a(I3
g102
tp314
a(I0
g138
tp315
a(I1
g94
tp316
a(I2
g98
tp317
a(I3
g98
tp318
a(I0
g94
tp319
a(I1
g96
tp320
a(I2
g94
tp321
a(I3
g94
tp322
a(I0
g138
tp323
a(I1
g96
tp324
a(I2
g94
tp325
a(I3
g96
tp326
a(I0
g102
tp327
a(I1
g102
tp328
a(I2
g94
tp329
a(I3
g102
tp330
a(I0
g98
tp331
a(I1
g98
tp332
a(I2
g96
tp333
a(I3
g96
tp334
a(I0
g98
tp335
a(I1
g102
tp336
a(I2
g94
tp337
a(I3
g94
tp338
a(I0
g138
tp339
a(I1
g98
tp340
a(I2
g94
tp341
a(I3
g98
tp342
a(I0
g138
tp343
a(I1
g98
tp344
a(I2
g96
tp345
a(I3
g102
tp346
a(I0
g96
tp347
a(I1
g98
tp348
a(I2
g96
tp349
a(I3
g96
tp350
a(I0
g98
tp351
a(I1
g98
tp352
a(I2
g102
tp353
a(I3
g94
tp354
a(I0
g98
tp355
a(I1
g98
tp356
a(I2
g98
tp357
a(I3
g98
tp358
a(I0
g94
tp359
a(I1
g94
tp360
a(I2
g98
tp361
a(I3
g102
tp362
a(I0
g98
tp363
a(I1
g94
tp364
a(I2
g94
tp365
a(I3
g96
tp366
a(I0
g98
tp367
a(I1
g98
tp368
a(I2
g96
tp369
a(I3
g94
tp370
a(I0
g96
tp371
a(I1
g98
tp372
a(I2
g102
tp373
a(I3
g98
tp374
a(I0
g96
tp375
a(I1
g98
tp376
a(I2
g98
tp377
a(I3
g98
tp378
a(I0
g96
tp379
a(I1
g98
tp380
a(I2
g102
tp381
a(I3
g102
tp382
a(I0
g102
tp383
a(I1
g98
tp384
a(I2
g98
tp385
a(I3
g96
tp386
a(I0
g138
tp387
a(I1
g102
tp388
a(I2
g102
tp389
a(I3
g94
tp390
a(I0
g96
tp391
a(I1
g98
tp392
a(I2
g98
tp393
a(I3
g96
tp394
a(I0
g138
tp395
a(I1
g94
tp396
a(I2
g94
tp397
a(I3
g96
tp398
a(I0
g94
tp399
a(I1
g96
tp400
a(I2
g96
tp401
a(I3
g102
tp402
a(I0
g138
tp403
a(I1
g96
tp404
a(I2
g96
tp405
a(I3
g98
tp406
a(I0
g98
tp407
a(I1
g96
tp408
a(I2
g94
tp409
a(I3
g98
tp410
a(I0
g94
tp411
a(I1
g96
tp412
a(I2
g94
tp413
a(I3
g102
tp414
a(I0
g102
tp415
a(I1
g96
tp416
a(I2
g96
tp417
a(I3
g96
tp418
a(I0
g98
tp419
a(I1
g96
tp420
a(I2
g96
tp421
a(I3
g94
tp422
a(I0
g102
tp423
a(I1
g96
tp424
a(I2
g102
tp425
a(I3
g96
tp426
a(I0
g94
tp427
a(I1
g98
tp428
a(I2
g98
tp429
a(I3
g94
tp430
a(I0
g98
tp431
a(I1
g98
tp432
a(I2
g98
tp433
a(I3
g98
tp434
a(I0
g138
tp435
a(I1
g98
tp436
a(I2
g94
tp437
a(I3
g98
tp438
a(I0
g96
tp439
a(I1
g98
tp440
a(I2
g96
tp441
a(I3
g102
tp442
a(I0
g98
tp443
a(I1
g98
tp444
a(I2
g102
tp445
a(I3
g102
tp446
a(I0
g98
tp447
a(I1
g98
tp448
a(I2
g102
tp449
a(I3
g96
tp450
a(I0
g102
tp451
a(I1
g98
tp452
a(I2
g98
tp453
a(I3
g96
tp454
a(I0
g96
tp455
a(I1
g98
tp456
a(I2
g98
tp457
a(I3
g94
tp458
a(I0
g138
tp459
a(I1
g102
tp460
a(I2
g98
tp461
a(I3
g94
tp462
a(I0
g138
tp463
a(I1
g96
tp464
a(I2
g98
tp465
a(I3
g96
tp466
a(I0
g98
tp467
a(I1
g96
tp468
a(I2
g94
tp469
a(I3
g102
tp470
a(I0
g94
tp471
a(I1
g94
tp472
a(I2
g94
tp473
a(I3
g96
tp474
a(I0
g138
tp475
a(I1
g96
tp476
a(I2
g96
tp477
a(I3
g96
tp478
a(I0
g102
tp479
a(I1
g96
tp480
a(I2
g98
tp481
a(I3
g102
tp482
a(I0
g96
tp483
a(I1
g96
tp484
a(I2
g98
tp485
a(I3
g96
tp486
a(I0
g96
tp487
a(I1
g96
tp488
a(I2
g98
tp489
a(I3
g94
tp490
a(I0
g94
tp491
a(I1
g96
tp492
a(I2
g98
tp493
a(I3
g94
tp494
a(I0
g138
tp495
a(I1
g96
tp496
a(I2
g98
tp497
a(I3
g94
tp498
a(I0
g96
tp499
a(I1
g98
tp500
a(I2
g98
tp501
a(I3
g96
tp502
a(I0
g102
tp503
a(I1
g102
tp504
a(I2
g102
tp505
a(I3
g96
tp506
a(I0
g138
tp507
a(I1
g102
tp508
a(I2
g98
tp509
a(I3
g94
tp510
a(I0
g138
tp511
a(I1
g96
tp512
a(I2
g94
tp513
a(I3
g94
tp514
a(I0
g94
tp515
a(I1
g96
tp516
a(I2
g96
tp517
a(I3
g94
tp518
a(I0
g102
tp519
a(I1
g96
tp520
a(I2
g102
tp521
a(I3
g98
tp522
a(I0
g96
tp523
a(I1
g94
tp524
a(I2
g98
tp525
a(I3
g94
tp526
a(I0
g98
tp527
a(I1
g94
tp528
a(I2
g94
tp529
a(I3
g98
tp530
a(I0
g94
tp531
a(I1
g96
tp532
a(I2
g96
tp533
a(I3
g102
tp534
a(I0
g96
tp535
a(I1
g102
tp536
a(I2
g96
tp537
a(I3
g96
tp538
a(I0
g102
tp539
a(I1
g98
tp540
a(I2
g96
tp541
a(I3
g94
tp542
a(I0
g98
tp543
a(I1
g94
tp544
a(I2
g96
tp545
a(I3
g96
tp546
a(I0
g96
tp547
a(I1
g96
tp548
a(I2
g96
tp549
a(I3
g94
tp550
a(I0
g96
tp551
a(I1
g96
tp552
a(I2
g96
tp553
a(I3
g94
tp554
a(I0
g98
tp555
a(I1
g96
tp556
a(I2
g96
tp557
a(I3
g96
tp558
a(I0
g138
tp559
a(I1
g96
tp560
a(I2
g98
tp561
a(I3
g102
tp562
a(I0
g98
tp563
a(I1
g102
tp564
a(I2
g102
tp565
a(I3
g98
tp566
a(I0
g94
tp567
a(I1
g98
tp568
a(I2
g98
tp569
a(I3
g94
tp570
a(I0
g96
tp571
a(I1
g98
tp572
a(I2
g102
tp573
a(I3
g96
tp574
a(I0
g138
tp575
a(I1
g102
tp576
a(I2
g98
tp577
a(I3
g102
tp578
a(I0
g94
tp579
a(I1
g98
tp580
a(I2
g102
tp581
a(I3
g102
tp582
a(I0
g98
tp583
a(I1
g98
tp584
a(I2
g96
tp585
a(I3
g98
tp586
a(I0
g98
tp587
a(I1
g94
tp588
a(I2
g96
tp589
a(I3
g102
tp590
a(I0
g98
tp591
a(I1
g94
tp592
a(I2
g96
tp593
a(I3
g102
tp594
a(I0
g96
tp595
a(I1
g96
tp596
a(I2
g96
tp597
a(I3
g98
tp598
a(I0
g138
tp599
a(I1
g102
tp600
a(I2
g94
tp601
a(I3
g102
tp602
a(I0
g94
tp603
a(I1
g98
tp604
a(I2
g96
tp605
a(I3
g102
tp606
a(I0
g138
tp607
a(I1
g94
tp608
a(I2
g94
tp609
a(I3
g98
tp610
a(I0
g102
tp611
a(I1
g96
tp612
a(I2
g94
tp613
a(I3
g102
tp614
a(I0
g138
tp615
a(I1
g102
tp616
a(I2
g96
tp617
a(I3
g96
tp618
a(I0
g96
tp619
a(I1
g98
tp620
a(I2
g102
tp621
a(I3
g94
tp622
a(I0
g96
tp623
a(I1
g94
tp624
a(I2
g96
tp625
a(I3
g98
tp626
a(I0
g138
tp627
a(I1
g96
tp628
a(I2
g94
tp629
a(I3
g102
tp630
a(I0
g98
tp631
a(I1
g102
tp632
a(I2
g96
tp633
a(I3
g102
tp634
a(I0
g102
tp635
a(I1
g98
tp636
a(I2
g102
tp637
a(I3
g98
tp638
a(I0
g138
tp639
a(I1
g94
tp640
a(I2
g98
tp641
a(I3
g98
tp642
a(I0
g138
tp643
a(I1
g96
tp644
a(I2
g94
tp645
a(I3
g98
tp646
a(I0
g138
tp647
a(I1
g102
tp648
a(I2
g98
tp649
a(I3
g98
tp650
a(I0
g102
tp651
a(I1
g98
tp652
a(I2
g98
tp653
a(I3
g98
tp654
a(I0
g98
tp655
a(I1
g94
tp656
a(I2
g102
tp657
a(I3
g98
tp658
a(I0
g96
tp659
a(I1
g96
tp660
a(I2
g102
tp661
a(I3
g98
tp662
a(I0
g98
tp663
a(I1
g96
tp664
a(I2
g98
tp665
a(I3
g94
tp666
a(I0
g96
tp667
a(I1
g96
tp668
a(I2
g102
tp669
a(I3
g96
tp670
a(I0
g138
tp671
a(I1
g102
tp672
a(I2
g102
tp673
a(I3
g96
tp674
a(I0
g98
tp675
a(I1
g98
tp676
a(I2
g98
tp677
a(I3
g96
tp678
a(I0
g98
tp679
a(I1
g98
tp680
a(I2
g94
tp681
a(I3
g96
tp682
a(I0
g94
tp683
a(I1
g94
tp684
a(I2
g94
tp685
a(I3
g102
tp686
a(I0
g96
tp687
a(I1
g98
tp688
a(I2
g96
tp689
a(I3
g96
tp690
a(I0
g98
tp691
a(I1
g102
tp692
a(I2
g96
tp693
a(I3
g96
tp694
a(I0
g98
tp695
a(I1
g102
tp696
a(I2
g94
tp697
a(I3
g94
tp698
a(I0
g94
tp699
a(I1
g102
tp700
a(I2
g94
tp701
a(I3
g96
tp702
a(I0
g94
tp703
a(I1
g98
tp704
a(I2
g96
tp705
a(I3
g96
tp706
a(I0
g98
tp707
a(I1
g94
tp708
a(I2
g102
tp709
a(I3
g94
tp710
a(I0
g96
tp711
a(I1
g98
tp712
a(I2
g98
tp713
a(I3
g96
tp714
a(I0
g96
tp715
a(I1
g102
tp716
a(I2
g94
tp717
a(I3
g94
tp718
a(I0
g102
tp719
a(I1
g96
tp720
a(I2
g96
tp721
a(I3
g98
tp722
a(I0
g94
tp723
a(I1
g94
tp724
a(I2
g102
tp725
a(I3
g102
tp726
a(I0
g96
tp727
a(I1
g98
tp728
a(I2
g98
tp729
a(I3
g102
tp730
a(I0
g98
tp731
a(I1
g102
tp732
a(I2
g94
tp733
a(I3
g98
tp734
a(I0
g98
tp735
a(I1
g102
tp736
a(I2
g96
tp737
a(I3
g94
tp738
a(I0
g102
tp739
a(I1
g96
tp740
a(I2
g96
tp741
a(I3
g96
tp742
a(I0
g102
tp743
a(I1
g94
tp744
a(I2
g102
tp745
a(I3
g102
tp746
a(I0
g96
tp747
a(I1
g94
tp748
a(I2
g98
tp749
a(I3
g98
tp750
a(I0
g96
tp751
a(I1
g98
tp752
a(I2
g98
tp753
a(I3
g98
tp754
a(I0
g96
tp755
a(I1
g102
tp756
a(I2
g94
tp757
a(I3
g102
tp758
a(I0
g96
tp759
a(I1
g96
tp760
a(I2
g96
tp761
a(I3
g98
tp762
a(I0
g138
tp763
a(I1
g94
tp764
a(I2
g102
tp765
a(I3
g98
tp766
a(I0
g96
tp767
a(I1
g96
tp768
a(I2
g98
tp769
a(I3
g98
tp770
a(I0
g102
tp771
a(I1
g94
tp772
a(I2
g94
tp773
a(I3
g98
tp774
a(I0
g138
tp775
a(I1
g96
tp776
a(I2
g96
tp777
a(I3
g98
tp778
a(I0
g98
tp779
a(I1
g94
tp780
a(I2
g102
tp781
a(I3
g94
tp782
a(I0
g138
tp783
a(I1
g98
tp784
a(I2
g98
tp785
a(I3
g96
tp786
a(I0
g138
tp787
a(I1
g102
tp788
a(I2
g94
tp789
a(I3
g102
tp790
a(I0
g138
tp791
a(I1
g96
tp792
a(I2
g96
tp793
a(I3
g98
tp794
a(I0
g94
tp795
a(I1
g94
tp796
a(I2
g96
tp797
a(I3
g98
tp798
a(I0
g138
tp799
a(I1
g98
tp800
a(I2
g96
tp801
a(I3
g94
tp802
a(I0
g98
tp803
a(I1
g102
tp804
a(I2
g102
tp805
a(I3
g96
tp806
a(I0
g138
tp807
a(I1
g102
tp808
a(I2
g98
tp809
a(I3
g96
tp810
a(I0
g138
tp811
a(I1
g102
tp812
a(I2
g98
tp813
a(I3
g102
tp814
a(I0
g98
tp815
a(I1
g98
tp816
a(I2
g94
tp817
a(I3
g98
tp818
a(I0
g102
tp819
a(I1
g94
tp820
a(I2
g98
tp821
a(I3
g98
tp822
a(I0
g98
tp823
a(I1
g98
tp824
a(I2
g102
tp825
a(I3
g98
tp826
a(I0
g98
tp827
a(I1
g98
tp828
a(I2
g96
tp829
a(I3
g94
tp830
a(I0
g94
tp831
a(I1
g94
tp832
a(I2
g94
tp833
a(I3
g96
tp834
a(I0
g102
tp835
a(I1
g94
tp836
a(I2
g98
tp837
a(I3
g102
tp838
a(I0
g138
tp839
a(I1
g96
tp840
a(I2
g102
tp841
a(I3
g96
tp842
a(I0
g94
tp843
a(I1
g98
tp844
a(I2
g102
tp845
a(I3
g96
tp846
a(I0
g94
tp847
a(I1
g98
tp848
a(I2
g98
tp849
a(I3
g94
tp850
a(I0
g138
tp851
a(I1
g98
tp852
a(I2
g98
tp853
a(I3
g98
tp854
a(I0
g102
tp855
a(I1
g98
tp856
a(I2
g98
tp857
a(I3
g98
tp858
a(I0
g96
tp859
a(I1
g98
tp860
a(I2
g94
tp861
a(I3
g102
tp862
a(I0
g138
tp863
a(I1
g98
tp864
a(I2
g94
tp865
a(I3
g96
tp866
a(I0
g138
tp867
a(I1
g102
tp868
a(I2
g96
tp869
a(I3
g94
tp870
a(I0
g94
tp871
a(I1
g98
tp872
a(I2
g98
tp873
a(I3
g98
tp874
a(I0
g138
tp875
a(I1
g98
tp876
a(I2
g102
tp877
a(I3
g102
tp878
a(I0
g96
tp879
a(I1
g94
tp880
a(I2
g102
tp881
a(I3
g102
tp882
a(I0
g96
tp883
a(I1
g96
tp884
a(I2
g96
tp885
a(I3
g96
tp886
a(I0
g102
tp887
a(I1
g96
tp888
a(I2
g102
tp889
a(I3
g94
tp890
a(I0
g138
tp891
a(I1
g96
tp892
a(I2
g96
tp893
a(I3
g94
tp894
a(I0
g138
tp895
a(I1
g96
tp896
a(I2
g94
tp897
a(I3
g96
tp898
a(I0
g138
tp899
a(I1
g96
tp900
a(I2
g98
tp901
a(I3
g102
tp902
a(I0
g94
tp903
a(I1
g96
tp904
a(I2
g98
tp905
a(I3
g98
tp906
a(I0
g138
tp907
a(I1
g102
tp908
a(I2
g94
tp909
a(I3
g102
tp910
a(I0
g138
tp911
a(I1
g96
tp912
a(I2
g94
tp913
a(I3
g96
tp914
a(I0
g94
tp915
a(I1
g94
tp916
a(I2
g96
tp917
a(I3
g94
tp918
a(I0
g102
tp919
a(I1
g98
tp920
a(I2
g98
tp921
a(I3
g94
tp922
a(I0
g138
tp923
a(I1
g98
tp924
a(I2
g98
tp925
a(I3
g98
tp926
a(I0
g98
tp927
a(I1
g98
tp928
a(I2
g98
tp929
a(I3
g102
tp930
a(I0
g98
tp931
a(I1
g98
tp932
a(I2
g98
tp933
a(I3
g98
tp934
a(I0
g138
tp935
a(I1
g98
tp936
a(I2
g98
tp937
a(I3
g94
tp938
a(I0
g138
tp939
a(I1
g98
tp940
a(I2
g98
tp941
a(I3
g96
tp942
a(I0
g96
tp943
a(I1
g98
tp944
a(I2
g98
tp945
a(I3
g102
tp946
a(I0
g94
tp947
a(I1
g102
tp948
a(I2
g98
tp949
a(I3
g98
tp950
a(I0
g96
tp951
a(I1
g96
tp952
a(I2
g102
tp953
a(I3
g94
tp954
a(I0
g102
tp955
a(I1
g94
tp956
a(I2
g96
tp957
a(I3
g96
tp958
a(I0
g138
tp959
a(I1
g96
tp960
a(I2
g96
tp961
a(I3
g96
tp962
a(I0
g102
tp963
a(I1
g96
tp964
a(I2
g94
tp965
a(I3
g102
tp966
a(I0
g102
tp967
a(I1
g96
tp968
a(I2
g96
tp969
a(I3
g96
tp970
a(I0
g98
tp971
a(I1
g96
tp972
a(I2
g96
tp973
a(I3
g94
tp974
a(I0
g94
tp975
a(I1
g96
tp976
a(I2
g96
tp977
a(I3
g98
tp978
a(I0
g98
tp979
a(I1
g96
tp980
a(I2
g96
tp981
a(I3
g102
tp982
a(I0
g94
tp983
a(I1
g96
tp984
a(I2
g96
tp985
a(I3
g98
tp986
a(I0
g98
tp987
a(I1
g98
tp988
a(I2
g96
tp989
a(I3
g94
tp990
a(I0
g138
tp991
a(I1
g98
tp992
a(I2
g98
tp993
a(I3
g96
tp994
a(I0
g96
tp995
a(I1
g102
tp996
a(I2
g98
tp997
a(I3
g96
tp998
a(I0
g96
tp999
a(I1
g96
tp1000
a(I2
g98
tp1001
a(I3
g96
tp1002
a(I0
g138
tp1003
a(I1
g94
tp1004
a(I2
g98
tp1005
a(I3
g102
tp1006
a(I0
g94
tp1007
a(I1
g96
tp1008
a(I2
g98
tp1009
a(I3
g102
tp1010
a(I0
g138
tp1011
a(I1
g98
tp1012
a(I2
g98
tp1013
a(I3
g98
tp1014
a(I0
g98
tp1015
a(I1
g102
tp1016
a(I2
g98
tp1017
a(I3
g94
tp1018
a(I0
g94
tp1019
a(I1
g102
tp1020
a(I2
g102
tp1021
a(I3
g94
tp1022
a(I0
g98
tp1023
a(I1
g96
tp1024
a(I2
g96
tp1025
a(I3
g96
tp1026
a(I0
g96
tp1027
a(I1
g96
tp1028
a(I2
g94
tp1029
a(I3
g102
tp1030
a(I0
g138
tp1031
a(I1
g102
tp1032
a(I2
g96
tp1033
a(I3
g96
tp1034
a(I0
g98
tp1035
a(I1
g102
tp1036
a(I2
g96
tp1037
a(I3
g96
tp1038
a(I0
g96
tp1039
a(I1
g96
tp1040
a(I2
g96
tp1041
a(I3
g94
tp1042
a(I0
g102
tp1043
a(I1
g94
tp1044
a(I2
g96
tp1045
a(I3
g96
tp1046
a(I0
g96
tp1047
a(I1
g96
tp1048
a(I2
g96
tp1049
a(I3
g94
tp1050
a(I0
g138
tp1051
a(I1
g94
tp1052
a(I2
g96
tp1053
a(I3
g94
tp1054
a(I0
g96
tp1055
a(I1
g98
tp1056
a(I2
g98
tp1057
a(I3
g96
tp1058
a(I0
g98
tp1059
a(I1
g98
tp1060
a(I2
g98
tp1061
a(I3
g102
tp1062
a(I0
g102
tp1063
a(I1
g102
tp1064
a(I2
g98
tp1065
a(I3
g98
tp1066
a(I0
g94
tp1067
a(I1
g98
tp1068
a(I2
g98
tp1069
a(I3
g94
tp1070
a(I0
g94
tp1071
a(I1
g94
tp1072
a(I2
g98
tp1073
a(I3
g96
tp1074
a(I0
g96
tp1075
a(I1
g96
tp1076
a(I2
g98
tp1077
a(I3
g94
tp1078
a(I0
g102
tp1079
a(I1
g102
tp1080
a(I2
g98
tp1081
a(I3
g94
tp1082
a(I0
g98
tp1083
a(I1
g96
tp1084
a(I2
g98
tp1085
a(I3
g94
tp1086
a(I0
g94
tp1087
a(I1
g94
tp1088
a(I2
g102
tp1089
a(I3
g96
tp1090
a(I0
g138
tp1091
a(I1
g94
tp1092
a(I2
g96
tp1093
a(I3
g96
tp1094
a(I0
g102
tp1095
a(I1
g94
tp1096
a(I2
g96
tp1097
a(I3
g94
tp1098
a(I0
g96
tp1099
a(I1
g96
tp1100
a(I2
g94
tp1101
a(I3
g98
tp1102
a(I0
g98
tp1103
a(I1
g102
tp1104
a(I2
g98
tp1105
a(I3
g102
tp1106
a(I0
g102
tp1107
a(I1
g98
tp1108
a(I2
g102
tp1109
a(I3
g98
tp1110
a(I0
g98
tp1111
a(I1
g94
tp1112
a(I2
g98
tp1113
a(I3
g102
tp1114
a(I0
g98
tp1115
a(I1
g96
tp1116
a(I2
g94
tp1117
a(I3
g98
tp1118
a(I0
g98
tp1119
a(I1
g96
tp1120
a(I2
g96
tp1121
a(I3
g102
tp1122
a(I0
g94
tp1123
a(I1
g96
tp1124
a(I2
g102
tp1125
a(I3
g96
tp1126
a(I0
g98
tp1127
a(I1
g102
tp1128
a(I2
g98
tp1129
a(I3
g94
tp1130
a(I0
g96
tp1131
a(I1
g102
tp1132
a(I2
g94
tp1133
a(I3
g94
tp1134
a(I0
g102
tp1135
a(I1
g98
tp1136
a(I2
g96
tp1137
a(I3
g96
tp1138
a(I0
g138
tp1139
a(I1
g94
tp1140
a(I2
g102
tp1141
a(I3
g94
tp1142
a(I0
g138
tp1143
a(I1
g94
tp1144
a(I2
g98
tp1145
a(I3
g94
tp1146
a(I0
g94
tp1147
a(I1
g98
tp1148
a(I2
g94
tp1149
a(I3
g96
tp1150
a(I0
g98
tp1151
a(I1
g98
tp1152
a(I2
g96
tp1153
a(I3
g96
tp1154
a(I0
g138
tp1155
a(I1
g102
tp1156
a(I2
g102
tp1157
a(I3
g96
tp1158
a(I0
g94
tp1159
a(I1
g96
tp1160
a(I2
g98
tp1161
a(I3
g96
tp1162
a(I0
g138
tp1163
a(I1
g94
tp1164
a(I2
g94
tp1165
a(I3
g102
tp1166
a(I0
g98
tp1167
a(I1
g98
tp1168
a(I2
g96
tp1169
a(I3
g98
tp1170
a(I0
g98
tp1171
a(I1
g102
tp1172
a(I2
g102
tp1173
a(I3
g94
tp1174
a(I0
g102
tp1175
a(I1
g96
tp1176
a(I2
g98
tp1177
a(I3
g98
tp1178
a(I0
g98
tp1179
a(I1
g94
tp1180
a(I2
g94
tp1181
a(I3
g98
tp1182
a(I0
g96
tp1183
a(I1
g98
tp1184
a(I2
g96
tp1185
a(I3
g98
tp1186
a(I0
g98
tp1187
a(I1
g102
tp1188
a(I2
g96
tp1189
a(I3
g102
tp1190
a(I0
g138
tp1191
a(I1
g102
tp1192
a(I2
g102
tp1193
a(I3
g96
tp1194
a(I0
g98
tp1195
a(I1
g98
tp1196
a(I2
g98
tp1197
a(I3
g94
tp1198
a(I0
g96
tp1199
a(I1
g98
tp1200
a(I2
g98
tp1201
a(I3
g98
tp1202
a(I0
g138
tp1203
a(I1
g98
tp1204
a(I2
g94
tp1205
a(I3
g102
tp1206
a(I0
g96
tp1207
a(I1
g94
tp1208
a(I2
g96
tp1209
a(I3
g96
tp1210
a(I0
g98
tp1211
a(I1
g94
tp1212
a(I2
g96
tp1213
a(I3
g96
tp1214
a(I0
g102
tp1215
a(I1
g98
tp1216
a(I2
g96
tp1217
a(I3
g94
tp1218
a(I0
g138
tp1219
a(I1
g98
tp1220
a(I2
g96
tp1221
a(I3
g98
tp1222
a(I0
g96
tp1223
a(I1
g98
tp1224
a(I2
g96
tp1225
a(I3
g102
tp1226
a(I0
g94
tp1227
a(I1
g98
tp1228
a(I2
g96
tp1229
a(I3
g98
tp1230
a(I0
g98
tp1231
a(I1
g98
tp1232
a(I2
g96
tp1233
a(I3
g94
tp1234
a(I0
g98
tp1235
a(I1
g98
tp1236
a(I2
g102
tp1237
a(I3
g96
tp1238
a(I0
g96
tp1239
a(I1
g98
tp1240
a(I2
g102
tp1241
a(I3
g102
tp1242
a(I0
g102
tp1243
a(I1
g102
tp1244
a(I2
g98
tp1245
a(I3
g98
tp1246
a(I0
g94
tp1247
a(I1
g96
tp1248
a(I2
g98
tp1249
a(I3
g94
tp1250
a(I0
g98
tp1251
a(I1
g94
tp1252
a(I2
g98
tp1253
a(I3
g96
tp1254
a(I0
g94
tp1255
a(I1
g96
tp1256
a(I2
g102
tp1257
a(I3
g102
tp1258
a(I0
g98
tp1259
a(I1
g102
tp1260
a(I2
g98
tp1261
a(I3
g98
tp1262
a(I0
g102
tp1263
a(I1
g98
tp1264
a(I2
g102
tp1265
a(I3
g94
tp1266
a(I0
g94
tp1267
a(I1
g94
tp1268
a(I2
g96
tp1269
a(I3
g96
tp1270
a(I0
g102
tp1271
a(I1
g96
tp1272
a(I2
g96
tp1273
a(I3
g102
tp1274
a(I0
g102
tp1275
a(I1
g96
tp1276
a(I2
g94
tp1277
a(I3
g98
tp1278
a(I0
g98
tp1279
a(I1
g96
tp1280
a(I2
g94
tp1281
a(I3
g102
tp1282
a(I0
g102
tp1283
a(I1
g96
tp1284
a(I2
g96
tp1285
a(I3
g98
tp1286
a(I0
g96
tp1287
a(I1
g96
tp1288
a(I2
g94
tp1289
a(I3
g102
tp1290
a(I0
g98
tp1291
a(I1
g96
tp1292
a(I2
g96
tp1293
a(I3
g98
tp1294
a(I0
g138
tp1295
a(I1
g102
tp1296
a(I2
g94
tp1297
a(I3
g94
tp1298
a(I0
g98
tp1299
a(I1
g102
tp1300
a(I2
g96
tp1301
a(I3
g96
tp1302
a(I0
g138
tp1303
a(I1
g96
tp1304
a(I2
g98
tp1305
a(I3
g96
tp1306
a(I0
g96
tp1307
a(I1
g102
tp1308
a(I2
g98
tp1309
a(I3
g94
tp1310
a(I0
g138
tp1311
a(I1
g96
tp1312
a(I2
g98
tp1313
a(I3
g94
tp1314
a(I0
g102
tp1315
a(I1
g94
tp1316
a(I2
g98
tp1317
a(I3
g96
tp1318
a(I0
g94
tp1319
a(I1
g98
tp1320
a(I2
g98
tp1321
a(I3
g102
tp1322
a(I0
g96
tp1323
a(I1
g102
tp1324
a(I2
g98
tp1325
a(I3
g98
tp1326
a(I0
g94
tp1327
a(I1
g98
tp1328
a(I2
g98
tp1329
a(I3
g102
tp1330
a(I0
g102
tp1331
a(I1
g94
tp1332
a(I2
g102
tp1333
a(I3
g102
tp1334
a(I0
g96
tp1335
a(I1
g94
tp1336
a(I2
g98
tp1337
a(I3
g98
tp1338
a(I0
g138
tp1339
a(I1
g94
tp1340
a(I2
g94
tp1341
a(I3
g102
tp1342
a(I0
g138
tp1343
a(I1
g96
tp1344
a(I2
g96
tp1345
a(I3
g98
tp1346
a(I0
g98
tp1347
a(I1
g98
tp1348
a(I2
g102
tp1349
a(I3
g102
tp1350
a(I0
g94
tp1351
a(I1
g102
tp1352
a(I2
g98
tp1353
a(I3
g98
tp1354
a(I0
g98
tp1355
a(I1
g102
tp1356
a(I2
g94
tp1357
a(I3
g102
tp1358
a(I0
g94
tp1359
a(I1
g96
tp1360
a(I2
g96
tp1361
a(I3
g102
tp1362
a(I0
g102
tp1363
a(I1
g96
tp1364
a(I2
g102
tp1365
a(I3
g102
tp1366
a(I0
g138
tp1367
a(I1
g102
tp1368
a(I2
g98
tp1369
a(I3
g98
tp1370
a(I0
g102
tp1371
a(I1
g98
tp1372
a(I2
g94
tp1373
a(I3
g98
tp1374
a(I0
g94
tp1375
a(I1
g102
tp1376
a(I2
g96
tp1377
a(I3
g98
tp1378
a(I0
g102
tp1379
a(I1
g96
tp1380
a(I2
g102
tp1381
a(I3
g98
tp1382
a(I0
g102
tp1383
a(I1
g94
tp1384
a(I2
g96
tp1385
a(I3
g98
tp1386
a(I0
g98
tp1387
a(I1
g94
tp1388
a(I2
g94
tp1389
a(I3
g98
tp1390
a(I0
g98
tp1391
a(I1
g98
tp1392
a(I2
g98
tp1393
a(I3
g94
tp1394
a(I0
g94
tp1395
a(I1
g98
tp1396
a(I2
g102
tp1397
a(I3
g98
tp1398
a(I0
g102
tp1399
a(I1
g94
tp1400
a(I2
g96
tp1401
a(I3
g102
tp1402
a(I0
g138
tp1403
a(I1
g98
tp1404
a(I2
g94
tp1405
a(I3
g102
tp1406
a(I0
g96
tp1407
a(I1
g94
tp1408
a(I2
g98
tp1409
a(I3
g96
tp1410
a(I0
g98
tp1411
a(I1
g96
tp1412
a(I2
g102
tp1413
a(I3
g96
tp1414
a(I0
g138
tp1415
a(I1
g96
tp1416
a(I2
g96
tp1417
a(I3
g94
tp1418
a(I0
g94
tp1419
a(I1
g98
tp1420
a(I2
g94
tp1421
a(I3
g94
tp1422
a(I0
g138
tp1423
a(I1
g98
tp1424
a(I2
g96
tp1425
a(I3
g96
tp1426
a(I0
g138
tp1427
a(I1
g102
tp1428
a(I2
g96
tp1429
a(I3
g96
tp1430
a(I0
g96
tp1431
a(I1
g96
tp1432
a(I2
g96
tp1433
a(I3
g96
tp1434
a(I0
g98
tp1435
a(I1
g94
tp1436
a(I2
g96
tp1437
a(I3
g102
tp1438
a(I0
g94
tp1439
a(I1
g96
tp1440
a(I2
g102
tp1441
a(I3
g96
tp1442
a(I0
g102
tp1443
a(I1
g98
tp1444
a(I2
g102
tp1445
a(I3
g96
tp1446
as.