(dp1
S'layout'
p2
(ilayout
Layout
p3
(dp4
S'numGhosts'
p5
I1
sS'food'
p6
(igame
Grid
p7
(dp8
S'CELLS_PER_INT'
p9
I30
sS'width'
p10
I10
sS'data'
p11
(lp12
(lp13
I00
aI00
aI00
aI00
aI00
aI00
aI00
aI00
aI00
aI00
aa(lp14
I00
aI00
aI00
aI00
aI00
aI00
aI00
aI00
aI00
aI00
aa(lp15
I00
aI01
aI00
aI00
aI00
aI00
aI00
aI00
aI00
aI00
aa(lp16
I00
aI00
aI00
aI00
aI01
aI01
aI01
aI01
aI01
aI00
aa(lp17
I00
aI00
aI00
aI01
aI00
aI01
aI00
aI00
aI00
aI00
aa(lp18
I00
aI00
aI00
aI00
aI00
aI01
aI01
aI01
aI01
aI00
aa(lp19
I00
aI00
aI01
aI01
aI00
aI00
aI00
aI00
aI01
aI00
aa(lp20
I00
aI00
aI01
aI00
aI01
aI01
aI01
aI00
aI01
aI00
aa(lp21
I00
aI00
aI00
aI00
aI00
aI00
aI00
aI00
aI00
aI00
aa(lp22
I00
aI00
aI00
aI00
aI00
aI00
aI00
aI00
aI00
aI00
aasS'height'
p23
I10
sbsS'agentPositions'
p24
(lp25
(I01
(I1
I3
tp26
tp27
a(I00
(I8
I8
tp28
tp29
asg23
I10
sg10
I10
sS'walls'
p30
(igame
Grid
p31
(dp32
g9
I30
sg10
I10
sg11
(lp33
(lp34
I01
aI01
aI01
aI01
aI01
aI01
aI01
aI01
aI01
aI01
aa(lp35
I01
aI00
aI01
aI00
aI01
aI01
aI00
aI00
aI00
aI01
aa(lp36
I01
aI00
aI01
aI00
aI00
aI01
aI00
aI01
aI00
aI01
aa(lp37
I01
aI00
aI00
aI00
aI00
aI00
aI00
aI00
aI00
aI01
aa(lp38
I01
aI01
aI01
aI00
aI00
aI00
aI00
aI01
aI01
aI01
aa(lp39
I01
aI00
aI00
aI00
aI01
aI00
aI00
aI00
aI00
aI01
aa(lp40
I01
aI00
aI00
aI00
aI00
aI00
aI01
aI01
aI00
aI01
aa(lp41
I01
aI00
aI00
aI01
aI00
aI00
aI00
aI00
aI00
aI01
aa(lp42
I01
aI00
aI01
aI01
aI00
aI01
aI01
aI00
aI00
aI01
aa(lp43
I01
aI01
aI01
aI01
aI01
aI01
aI01
aI01
aI01
aI01
aasg23
I10
sbsS'layoutText'
p44
(lp45
S'%%%%%%%%%%'
p46
aS'%  .%...G%'
p47
aS'% %.%.%  %'
p48
aS'%  . .%.%%'
p49
aS'%%%... .%%'
p50
aS'%% . % . %'
p51
aS'%P  . .%%%'
p52
aS'%%% % ..%%'
p53
aS'% . %    %'
p54
aS'%%%%%%%%%%'
p55
asbsS'actions'
p56
(lp57
(I0
S'East'
p58
tp59
a(I1
S'South'
p60
tp61
a(I0
S'North'
p62
tp63
a(I1
S'West'
p64
tp65
a(I0
g58
tp66
a(I1
g62
tp67
a(I0
g60
tp68
a(I1
g64
tp69
a(I0
g58
tp70
a(I1
g64
tp71
a(I0
g62
tp72
a(I1
g60
tp73
a(I0
g62
tp74
a(I1
g60
tp75
a(I0
g64
tp76
a(I1
g60
tp77
a(I0
g62
tp78
a(I1
g58
tp79
a(I0
g62
tp80
a(I1
g60
tp81
a(I0
S'Stop'
p82
tp83
a(I1
g60
tp84
a(I0
g62
tp85
a(I1
g64
tp86
a(I0
g60
tp87
a(I1
g64
tp88
a(I0
g82
tp89
a(I1
g64
tp90
a(I0
g60
tp91
a(I1
g60
tp92
a(I0
g58
tp93
a(I1
g60
tp94
a(I0
g58
tp95
a(I1
g64
tp96
a(I0
g60
tp97
a(I1
g64
tp98
a(I0
g62
tp99
a(I1
g58
tp100
a(I0
g64
tp101
a(I1
g58
tp102
a(I0
g82
tp103
a(I1
g62
tp104
a(I0
g58
tp105
a(I1
g62
tp106
a(I0
g64
tp107
a(I1
g64
tp108
a(I0
g60
tp109
a(I1
g64
tp110
a(I0
g58
tp111
a(I1
g58
tp112
a(I0
g62
tp113
a(I1
g58
tp114
a(I0
g62
tp115
a(I1
g60
tp116
a(I0
g82
tp117
a(I1
g60
tp118
a(I0
g62
tp119
a(I1
g64
tp120
a(I0
g58
tp121
a(I1
g64
tp122
a(I0
g82
tp123
a(I1
g58
tp124
a(I0
g82
tp125
a(I1
g58
tp126
a(I0
g58
tp127
a(I1
g62
tp128
a(I0
g58
tp129
a(I1
g62
tp130
a(I0
g82
tp131
a(I1
g64
tp132
a(I0
g82
tp133
a(I1
g64
tp134
a(I0
g64
tp135
a(I1
g58
tp136
a(I0
g64
tp137
a(I1
g62
tp138
a(I0
g58
tp139
a(I1
g58
tp140
a(I0
g60
tp141
a(I1
g60
tp142
a(I0
g58
tp143
a(I1
g64
tp144
a(I0
g82
tp145
a(I1
g62
tp146
a(I0
g82
tp147
a(I1
g58
tp148
a(I0
g64
tp149
a(I1
g60
tp150
a(I0
g62
tp151
a(I1
g60
tp152
a(I0
g58
tp153
a(I1
g60
tp154
a(I0
g64
tp155
a(I1
g64
tp156
a(I0
g60
tp157
a(I1
g64
tp158
a(I0
g62
tp159
a(I1
g58
tp160
a(I0
g64
tp161
a(I1
g58
tp162
a(I0
g64
tp163
a(I1
g62
tp164
a(I0
g60
tp165
a(I1
g62
tp166
a(I0
g82
tp167
a(I1
g64
tp168
a(I0
g62
tp169
a(I1
g64
tp170
a(I0
g82
tp171
a(I1
g58
tp172
a(I0
g60
tp173
a(I1
g58
tp174
a(I0
g62
tp175
a(I1
g60
tp176
a(I0
g58
tp177
a(I1
g60
tp178
a(I0
g58
tp179
a(I1
g64
tp180
a(I0
g58
tp181
a(I1
g64
tp182
a(I0
g82
tp183
a(I1
g58
tp184
a(I0
g64
tp185
a(I1
g58
tp186
a(I0
g82
tp187
a(I1
g62
tp188
a(I0
g60
tp189
a(I1
g62
tp190
a(I0
g62
tp191
a(I1
g64
tp192
a(I0
g60
tp193
a(I1
g64
tp194
a(I0
g58
tp195
a(I1
g58
tp196
a(I0
g62
tp197
a(I1
g58
tp198
a(I0
g64
tp199
a(I1
g62
tp200
a(I0
g60
tp201
a(I1
g64
tp202
a(I0
g60
tp203
a(I1
g60
tp204
a(I0
g82
tp205
a(I1
g64
tp206
a(I0
g60
tp207
a(I1
g58
tp208
a(I0
g64
tp209
a(I1
g58
tp210
a(I0
g82
tp211
a(I1
g62
tp212
a(I0
g58
tp213
a(I1
g62
tp214
a(I0
g62
tp215
a(I1
g62
tp216
a(I0
g62
tp217
a(I1
g58
tp218
a(I0
g60
tp219
a(I1
g60
tp220
a(I0
g62
tp221
a(I1
g64
tp222
a(I0
g82
tp223
a(I1
g62
tp224
a(I0
g58
tp225
a(I1
g62
tp226
a(I0
g62
tp227
a(I1
g62
tp228
a(I0
g64
tp229
a(I1
g64
tp230
a(I0
g60
tp231
a(I1
g64
tp232
a(I0
g60
tp233
a(I1
g60
tp234
a(I0
g60
tp235
a(I1
g60
tp236
a(I0
g64
tp237
a(I1
g58
tp238
a(I0
g58
tp239
a(I1
g58
tp240
a(I0
g62
tp241
a(I1
g58
tp242
a(I0
g60
tp243
a(I1
g58
tp244
a(I0
g82
tp245
a(I1
g62
tp246
a(I0
g62
tp247
a(I1
g62
tp248
a(I0
g60
tp249
a(I1
g58
tp250
a(I0
g64
tp251
a(I1
g58
tp252
a(I0
g64
tp253
a(I1
g58
tp254
a(I0
g64
tp255
a(I1
g60
tp256
a(I0
g82
tp257
a(I1
g64
tp258
a(I0
g62
tp259
a(I1
g62
tp260
a(I0
g82
tp261
a(I1
g58
tp262
a(I0
g58
tp263
a(I1
g60
tp264
a(I0
g82
tp265
a(I1
g64
tp266
a(I0
g82
tp267
a(I1
g60
tp268
a(I0
g60
tp269
a(I1
g60
tp270
a(I0
g82
tp271
a(I1
g60
tp272
a(I0
g64
tp273
a(I1
g58
tp274
a(I0
g60
tp275
a(I1
g64
tp276
a(I0
g82
tp277
a(I1
g64
tp278
a(I0
g60
tp279
a(I1
g60
tp280
a(I0
g64
tp281
a(I1
g64
tp282
a(I0
g82
tp283
a(I1
g60
tp284
a(I0
g82
tp285
a(I1
g58
tp286
a(I0
g60
tp287
a(I1
g58
tp288
a(I0
g82
tp289
a(I1
g60
tp290
a(I0
g82
tp291
a(I1
g64
tp292
a(I0
g62
tp293
a(I1
g64
tp294
a(I0
g82
tp295
a(I1
g62
tp296
a(I0
g82
tp297
a(I1
g58
tp298
a(I0
g82
tp299
a(I1
g60
tp300
a(I0
g60
tp301
a(I1
g64
tp302
a(I0
g60
tp303
a(I1
g62
tp304
a(I0
g64
tp305
a(I1
g62
tp306
a(I0
g82
tp307
a(I1
g64
tp308
a(I0
g58
tp309
a(I1
g64
tp310
a(I0
g82
tp311
a(I1
g60
tp312
a(I0
g64
tp313
a(I1
g60
tp314
a(I0
g64
tp315
a(I1
g64
tp316
a(I0
g58
tp317
as.