(dp1
S'layout'
p2
(ilayout
Layout
p3
(dp4
S'numGhosts'
p5
I1
sS'food'
p6
(igame
Grid
p7
(dp8
S'CELLS_PER_INT'
p9
I30
sS'width'
p10
I10
sS'data'
p11
(lp12
(lp13
I00
aI00
aI00
aI00
aI00
aI00
aI00
aI00
aI00
aI00
aa(lp14
I00
aI00
aI00
aI00
aI00
aI00
aI00
aI00
aI00
aI00
aa(lp15
I00
aI01
aI00
aI00
aI00
aI00
aI00
aI00
aI00
aI00
aa(lp16
I00
aI00
aI00
aI00
aI01
aI01
aI01
aI01
aI01
aI00
aa(lp17
I00
aI00
aI00
aI01
aI00
aI01
aI00
aI00
aI00
aI00
aa(lp18
I00
aI00
aI00
aI00
aI00
aI01
aI01
aI01
aI01
aI00
aa(lp19
I00
aI00
aI01
aI01
aI00
aI00
aI00
aI00
aI01
aI00
aa(lp20
I00
aI00
aI01
aI00
aI01
aI01
aI01
aI00
aI01
aI00
aa(lp21
I00
aI00
aI00
aI00
aI00
aI00
aI00
aI00
aI00
aI00
aa(lp22
I00
aI00
aI00
aI00
aI00
aI00
aI00
aI00
aI00
aI00
aasS'height'
p23
I10
sbsS'agentPositions'
p24
(lp25
(I01
(I1
I3
tp26
tp27
a(I00
(I8
I8
tp28
tp29
asg23
I10
sg10
I10
sS'walls'
p30
(igame
Grid
p31
(dp32
g9
I30
sg10
I10
sg11
(lp33
(lp34
I01
aI01
aI01
aI01
aI01
aI01
aI01
aI01
aI01
aI01
aa(lp35
I01
aI00
aI01
aI00
aI01
aI01
aI00
aI00
aI00
aI01
aa(lp36
I01
aI00
aI01
aI00
aI00
aI01
aI00
aI01
aI00
aI01
aa(lp37
I01
aI00
aI00
aI00
aI00
aI00
aI00
aI00
aI00
aI01
aa(lp38
I01
aI01
aI01
aI00
aI00
aI00
aI00
aI01
aI01
aI01
aa(lp39
I01
aI00
aI00
aI00
aI01
aI00
aI00
aI00
aI00
aI01
aa(lp40
I01
aI00
aI00
aI00
aI00
aI00
aI01
aI01
aI00
aI01
aa(lp41
I01
aI00
aI00
aI01
aI00
aI00
aI00
aI00
aI00
aI01
aa(lp42
I01
aI00
aI01
aI01
aI00
aI01
aI01
aI00
aI00
aI01
aa(lp43
I01
aI01
aI01
aI01
aI01
aI01
aI01
aI01
aI01
aI01
aasg23
I10
sbsS'layoutText'
p44
(lp45
S'%%%%%%%%%%'
p46
aS'%  .%...G%'
p47
aS'% %.%.%  %'
p48
aS'%  . .%.%%'
p49
aS'%%%... .%%'
p50
aS'%% . % . %'
p51
aS'%P  . .%%%'
p52
aS'%%% % ..%%'
p53
aS'% . %    %'
p54
aS'%%%%%%%%%%'
p55
asbsS'actions'
p56
(lp57
(I0
S'East'
p58
tp59
a(I1
S'West'
p60
tp61
a(I0
g58
tp62
a(I1
S'South'
p63
tp64
a(I0
S'North'
p65
tp66
a(I1
g58
tp67
a(I0
S'Stop'
p68
tp69
a(I1
g65
tp70
a(I0
g65
tp71
a(I1
g60
tp72
a(I0
g58
tp73
a(I1
g63
tp74
a(I0
g58
tp75
a(I1
g58
tp76
a(I0
g68
tp77
a(I1
g65
tp78
a(I0
g65
tp79
a(I1
g60
tp80
a(I0
g65
tp81
a(I1
g60
tp82
a(I0
g63
tp83
a(I1
g60
tp84
a(I0
g60
tp85
a(I1
g63
tp86
a(I0
g60
tp87
a(I1
g63
tp88
a(I0
g65
tp89
a(I1
g63
tp90
a(I0
g65
tp91
a(I1
g60
tp92
a(I0
g63
tp93
a(I1
g60
tp94
a(I0
g68
tp95
a(I1
g63
tp96
a(I0
g63
tp97
a(I1
g63
tp98
a(I0
g63
tp99
a(I1
g58
tp100
a(I0
g68
tp101
a(I1
g65
tp102
a(I0
g68
tp103
a(I1
g60
tp104
a(I0
g65
tp105
a(I1
g60
tp106
a(I0
g65
tp107
a(I1
g63
tp108
a(I0
g65
tp109
a(I1
g60
tp110
a(I0
g60
tp111
a(I1
g58
tp112
a(I0
g68
tp113
a(I1
g58
tp114
a(I0
g60
tp115
a(I1
g63
tp116
a(I0
g63
tp117
a(I1
g63
tp118
a(I0
g68
tp119
a(I1
g60
tp120
a(I0
g63
tp121
a(I1
g60
tp122
a(I0
g65
tp123
a(I1
g58
tp124
a(I0
g65
tp125
a(I1
g58
tp126
a(I0
g58
tp127
a(I1
g65
tp128
a(I0
g68
tp129
a(I1
g65
tp130
a(I0
g68
tp131
a(I1
g58
tp132
a(I0
g68
tp133
a(I1
g58
tp134
a(I0
g60
tp135
a(I1
g58
tp136
a(I0
g58
tp137
a(I1
g63
tp138
a(I0
g58
tp139
a(I1
g58
tp140
a(I0
g68
tp141
a(I1
g63
tp142
a(I0
g68
tp143
a(I1
g58
tp144
a(I0
g63
tp145
a(I1
g60
tp146
a(I0
g68
tp147
a(I1
g65
tp148
a(I0
g63
tp149
a(I1
g60
tp150
a(I0
g63
tp151
a(I1
g63
tp152
a(I0
g58
tp153
a(I1
g58
tp154
a(I0
g65
tp155
a(I1
g65
tp156
a(I0
g60
tp157
a(I1
g60
tp158
a(I0
g65
tp159
a(I1
g63
tp160
a(I0
g65
tp161
a(I1
g58
tp162
a(I0
g68
tp163
a(I1
g65
tp164
a(I0
g63
tp165
a(I1
g60
tp166
a(I0
g63
tp167
a(I1
g60
tp168
a(I0
g68
tp169
a(I1
g63
tp170
a(I0
g68
tp171
a(I1
g58
tp172
a(I0
g58
tp173
a(I1
g58
tp174
a(I0
g60
tp175
a(I1
g65
tp176
a(I0
g68
tp177
a(I1
g60
tp178
a(I0
g68
tp179
a(I1
g65
tp180
a(I0
g58
tp181
a(I1
g60
tp182
a(I0
g60
tp183
a(I1
g63
tp184
a(I0
g68
tp185
a(I1
g58
tp186
a(I0
g63
tp187
a(I1
g58
tp188
a(I0
g58
tp189
a(I1
g63
tp190
a(I0
g58
tp191
a(I1
g60
tp192
a(I0
g68
tp193
a(I1
g65
tp194
a(I0
g60
tp195
a(I1
g58
tp196
a(I0
g65
tp197
a(I1
g63
tp198
a(I0
g60
tp199
a(I1
g58
tp200
a(I0
g65
tp201
a(I1
g60
tp202
a(I0
g63
tp203
a(I1
g65
tp204
a(I0
g58
tp205
a(I1
g60
tp206
a(I0
g60
tp207
a(I1
g60
tp208
a(I0
g63
tp209
a(I1
g63
tp210
a(I0
g63
tp211
a(I1
g58
tp212
a(I0
g65
tp213
a(I1
g58
tp214
a(I0
g68
tp215
a(I1
g65
tp216
a(I0
g58
tp217
a(I1
g60
tp218
a(I0
g58
tp219
a(I1
g60
tp220
a(I0
g58
tp221
a(I1
g65
tp222
a(I0
g58
tp223
a(I1
g58
tp224
a(I0
g63
tp225
a(I1
g65
tp226
a(I0
g60
tp227
as.