(dp1
S'layout'
p2
(ilayout
Layout
p3
(dp4
S'numGhosts'
p5
I1
sS'food'
p6
(igame
Grid
p7
(dp8
S'CELLS_PER_INT'
p9
I30
sS'width'
p10
I10
sS'data'
p11
(lp12
(lp13
I00
aI00
aI00
aI00
aI00
aI00
aI00
aI00
aI00
aI00
aa(lp14
I00
aI00
aI00
aI00
aI00
aI00
aI00
aI00
aI00
aI00
aa(lp15
I00
aI01
aI00
aI00
aI00
aI00
aI00
aI00
aI00
aI00
aa(lp16
I00
aI00
aI00
aI00
aI01
aI01
aI01
aI01
aI01
aI00
aa(lp17
I00
aI00
aI00
aI01
aI00
aI01
aI00
aI00
aI00
aI00
aa(lp18
I00
aI00
aI00
aI00
aI00
aI01
aI01
aI01
aI01
aI00
aa(lp19
I00
aI00
aI01
aI01
aI00
aI00
aI00
aI00
aI01
aI00
aa(lp20
I00
aI00
aI01
aI00
aI01
aI01
aI01
aI00
aI01
aI00
aa(lp21
I00
aI00
aI00
aI00
aI00
aI00
aI00
aI00
aI00
aI00
aa(lp22
I00
aI00
aI00
aI00
aI00
aI00
aI00
aI00
aI00
aI00
aasS'height'
p23
I10
sbsS'agentPositions'
p24
(lp25
(I01
(I1
I3
tp26
tp27
a(I00
(I8
I8
tp28
tp29
asg23
I10
sg10
I10
sS'walls'
p30
(igame
Grid
p31
(dp32
g9
I30
sg10
I10
sg11
(lp33
(lp34
I01
aI01
aI01
aI01
aI01
aI01
aI01
aI01
aI01
aI01
aa(lp35
I01
aI00
aI01
aI00
aI01
aI01
aI00
aI00
aI00
aI01
aa(lp36
I01
aI00
aI01
aI00
aI00
aI01
aI00
aI01
aI00
aI01
aa(lp37
I01
aI00
aI00
aI00
aI00
aI00
aI00
aI00
aI00
aI01
aa(lp38
I01
aI01
aI01
aI00
aI00
aI00
aI00
aI01
aI01
aI01
aa(lp39
I01
aI00
aI00
aI00
aI01
aI00
aI00
aI00
aI00
aI01
aa(lp40
I01
aI00
aI00
aI00
aI00
aI00
aI01
aI01
aI00
aI01
aa(lp41
I01
aI00
aI00
aI01
aI00
aI00
aI00
aI00
aI00
aI01
aa(lp42
I01
aI00
aI01
aI01
aI00
aI01
aI01
aI00
aI00
aI01
aa(lp43
I01
aI01
aI01
aI01
aI01
aI01
aI01
aI01
aI01
aI01
aasg23
I10
sbsS'layoutText'
p44
(lp45
S'%%%%%%%%%%'
p46
aS'%  .%...G%'
p47
aS'% %.%.%  %'
p48
aS'%  . .%.%%'
p49
aS'%%%... .%%'
p50
aS'%% . % . %'
p51
aS'%P  . .%%%'
p52
aS'%%% % ..%%'
p53
aS'% . %    %'
p54
aS'%%%%%%%%%%'
p55
asbsS'actions'
p56
(lp57
(I0
S'East'
p58
tp59
a(I1
S'West'
p60
tp61
a(I0
S'North'
p62
tp63
a(I1
g60
tp64
a(I0
g58
tp65
a(I1
g60
tp66
a(I0
g62
tp67
a(I1
S'South'
p68
tp69
a(I0
g58
tp70
a(I1
g68
tp71
a(I0
S'Stop'
p72
tp73
a(I1
g60
tp74
a(I0
g58
tp75
a(I1
g68
tp76
a(I0
g62
tp77
a(I1
g58
tp78
a(I0
g62
tp79
a(I1
g62
tp80
a(I0
g62
tp81
a(I1
g62
tp82
a(I0
g58
tp83
a(I1
g62
tp84
a(I0
g58
tp85
a(I1
g58
tp86
a(I0
g68
tp87
a(I1
g58
tp88
a(I0
g68
tp89
a(I1
g58
tp90
a(I0
g68
tp91
a(I1
g68
tp92
a(I0
g68
tp93
a(I1
g60
tp94
a(I0
g60
tp95
a(I1
g62
tp96
a(I0
g68
tp97
a(I1
g60
tp98
a(I0
g68
tp99
a(I1
g60
tp100
a(I0
g58
tp101
a(I1
g68
tp102
a(I0
g72
tp103
a(I1
g68
tp104
a(I0
g68
tp105
a(I1
g60
tp106
a(I0
g62
tp107
a(I1
g60
tp108
a(I0
g72
tp109
a(I1
g60
tp110
a(I0
g68
tp111
a(I1
g60
tp112
a(I0
g62
tp113
a(I1
g62
tp114
a(I0
g60
tp115
a(I1
g62
tp116
a(I0
g62
tp117
a(I1
g58
tp118
a(I0
g60
tp119
a(I1
g58
tp120
a(I0
g60
tp121
a(I1
g68
tp122
a(I0
g62
tp123
a(I1
g68
tp124
a(I0
g62
tp125
a(I1
g58
tp126
a(I0
g60
tp127
a(I1
g68
tp128
a(I0
g62
tp129
a(I1
g60
tp130
a(I0
g62
tp131
a(I1
g62
tp132
a(I0
g62
tp133
a(I1
g58
tp134
a(I0
g68
tp135
a(I1
g58
tp136
a(I0
g72
tp137
a(I1
g62
tp138
a(I0
g68
tp139
a(I1
g62
tp140
a(I0
g60
tp141
a(I1
g58
tp142
a(I0
g58
tp143
a(I1
g58
tp144
a(I0
g58
tp145
a(I1
g68
tp146
a(I0
g68
tp147
a(I1
g58
tp148
a(I0
g62
tp149
a(I1
g62
tp150
a(I0
g68
tp151
a(I1
g60
tp152
a(I0
g58
tp153
a(I1
g60
tp154
a(I0
g72
tp155
a(I1
g60
tp156
a(I0
g72
tp157
a(I1
g68
tp158
a(I0
g58
tp159
a(I1
g68
tp160
a(I0
g68
tp161
a(I1
g60
tp162
a(I0
g58
tp163
a(I1
g60
tp164
a(I0
g62
tp165
a(I1
g60
tp166
a(I0
g60
tp167
a(I1
g60
tp168
a(I0
g68
tp169
a(I1
g62
tp170
a(I0
g62
tp171
a(I1
g62
tp172
a(I0
g58
tp173
a(I1
g58
tp174
a(I0
g72
tp175
a(I1
g58
tp176
a(I0
g60
tp177
a(I1
g68
tp178
a(I0
g58
tp179
a(I1
g68
tp180
a(I0
g72
tp181
a(I1
g58
tp182
a(I0
g68
tp183
a(I1
g58
tp184
a(I0
g62
tp185
a(I1
g62
tp186
a(I0
g68
tp187
a(I1
g62
tp188
a(I0
g62
tp189
a(I1
g58
tp190
a(I0
g60
tp191
a(I1
g58
tp192
a(I0
g60
tp193
a(I1
g58
tp194
a(I0
g58
tp195
a(I1
g68
tp196
a(I0
g72
tp197
a(I1
g60
tp198
a(I0
g72
tp199
a(I1
g68
tp200
a(I0
g72
tp201
a(I1
g68
tp202
a(I0
g58
tp203
as.