(dp1
S'layout'
p2
(ilayout
Layout
p3
(dp4
S'numGhosts'
p5
I1
sS'food'
p6
(igame
Grid
p7
(dp8
S'CELLS_PER_INT'
p9
I30
sS'width'
p10
I10
sS'data'
p11
(lp12
(lp13
I00
aI00
aI00
aI00
aI00
aI00
aI00
aI00
aI00
aI00
aa(lp14
I00
aI00
aI00
aI00
aI00
aI00
aI00
aI00
aI00
aI00
aa(lp15
I00
aI01
aI00
aI00
aI00
aI00
aI00
aI00
aI00
aI00
aa(lp16
I00
aI00
aI00
aI00
aI01
aI01
aI01
aI01
aI01
aI00
aa(lp17
I00
aI00
aI00
aI01
aI00
aI01
aI00
aI00
aI00
aI00
aa(lp18
I00
aI00
aI00
aI00
aI00
aI01
aI01
aI01
aI01
aI00
aa(lp19
I00
aI00
aI01
aI01
aI00
aI00
aI00
aI00
aI01
aI00
aa(lp20
I00
aI00
aI01
aI00
aI01
aI01
aI01
aI00
aI01
aI00
aa(lp21
I00
aI00
aI00
aI00
aI00
aI00
aI00
aI00
aI00
aI00
aa(lp22
I00
aI00
aI00
aI00
aI00
aI00
aI00
aI00
aI00
aI00
aasS'height'
p23
I10
sbsS'agentPositions'
p24
(lp25
(I01
(I1
I3
tp26
tp27
a(I00
(I8
I8
tp28
tp29
asg23
I10
sg10
I10
sS'walls'
p30
(igame
Grid
p31
(dp32
g9
I30
sg10
I10
sg11
(lp33
(lp34
I01
aI01
aI01
aI01
aI01
aI01
aI01
aI01
aI01
aI01
aa(lp35
I01
aI00
aI01
aI00
aI01
aI01
aI00
aI00
aI00
aI01
aa(lp36
I01
aI00
aI01
aI00
aI00
aI01
aI00
aI01
aI00
aI01
aa(lp37
I01
aI00
aI00
aI00
aI00
aI00
aI00
aI00
aI00
aI01
aa(lp38
I01
aI01
aI01
aI00
aI00
aI00
aI00
aI01
aI01
aI01
aa(lp39
I01
aI00
aI00
aI00
aI01
aI00
aI00
aI00
aI00
aI01
aa(lp40
I01
aI00
aI00
aI00
aI00
aI00
aI01
aI01
aI00
aI01
aa(lp41
I01
aI00
aI00
aI01
aI00
aI00
aI00
aI00
aI00
aI01
aa(lp42
I01
aI00
aI01
aI01
aI00
aI01
aI01
aI00
aI00
aI01
aa(lp43
I01
aI01
aI01
aI01
aI01
aI01
aI01
aI01
aI01
aI01
aasg23
I10
sbsS'layoutText'
p44
(lp45
S'%%%%%%%%%%'
p46
aS'%  .%...G%'
p47
aS'% %.%.%  %'
p48
aS'%  . .%.%%'
p49
aS'%%%... .%%'
p50
aS'%% . % . %'
p51
aS'%P  . .%%%'
p52
aS'%%% % ..%%'
p53
aS'% . %    %'
p54
aS'%%%%%%%%%%'
p55
asbsS'actions'
p56
(lp57
(I0
S'East'
p58
tp59
a(I1
S'West'
p60
tp61
a(I0
S'North'
p62
tp63
a(I1
g60
tp64
a(I0
g58
tp65
a(I1
g60
tp66
a(I0
g62
tp67
a(I1
S'South'
p68
tp69
a(I0
g58
tp70
a(I1
g68
tp71
a(I0
S'Stop'
p72
tp73
a(I1
g68
tp74
a(I0
g60
tp75
a(I1
g60
tp76
a(I0
g62
tp77
a(I1
g62
tp78
a(I0
g62
tp79
a(I1
g60
tp80
a(I0
g62
tp81
a(I1
g68
tp82
a(I0
g72
tp83
a(I1
g68
tp84
a(I0
g68
tp85
a(I1
g68
tp86
a(I0
g68
tp87
a(I1
g60
tp88
a(I0
g58
tp89
a(I1
g60
tp90
a(I0
g58
tp91
a(I1
g58
tp92
a(I0
g68
tp93
a(I1
g58
tp94
a(I0
g62
tp95
a(I1
g68
tp96
a(I0
g62
tp97
a(I1
g68
tp98
a(I0
g72
tp99
a(I1
g60
tp100
a(I0
g62
tp101
a(I1
g60
tp102
a(I0
g72
tp103
a(I1
g58
tp104
a(I0
g72
tp105
a(I1
g58
tp106
a(I0
g72
tp107
a(I1
g62
tp108
a(I0
g58
tp109
a(I1
g62
tp110
a(I0
g58
tp111
a(I1
g60
tp112
a(I0
g68
tp113
a(I1
g60
tp114
a(I0
g68
tp115
a(I1
g58
tp116
a(I0
g68
tp117
a(I1
g62
tp118
a(I0
g68
tp119
a(I1
g58
tp120
a(I0
g60
tp121
a(I1
g68
tp122
a(I0
g72
tp123
a(I1
g68
tp124
a(I0
g68
tp125
a(I1
g68
tp126
a(I0
g68
tp127
a(I1
g60
tp128
a(I0
g58
tp129
a(I1
g60
tp130
a(I0
g60
tp131
a(I1
g58
tp132
a(I0
g62
tp133
a(I1
g58
tp134
a(I0
g72
tp135
a(I1
g62
tp136
a(I0
g60
tp137
a(I1
g62
tp138
a(I0
g58
tp139
a(I1
g60
tp140
a(I0
g72
tp141
a(I1
g60
tp142
a(I0
g72
tp143
a(I1
g58
tp144
a(I0
g68
tp145
a(I1
g58
tp146
a(I0
g62
tp147
a(I1
g68
tp148
a(I0
g72
tp149
a(I1
g68
tp150
a(I0
g72
tp151
a(I1
g60
tp152
a(I0
g72
tp153
a(I1
g60
tp154
a(I0
g68
tp155
a(I1
g58
tp156
a(I0
g68
tp157
a(I1
g58
tp158
a(I0
g58
tp159
a(I1
g62
tp160
a(I0
g60
tp161
a(I1
g62
tp162
a(I0
g58
tp163
a(I1
g60
tp164
a(I0
g62
tp165
a(I1
g60
tp166
a(I0
g68
tp167
a(I1
g58
tp168
a(I0
g60
tp169
a(I1
g58
tp170
a(I0
g58
tp171
a(I1
g68
tp172
a(I0
g58
tp173
a(I1
g68
tp174
a(I0
g60
tp175
a(I1
g60
tp176
a(I0
g72
tp177
a(I1
g60
tp178
a(I0
g62
tp179
a(I1
g58
tp180
a(I0
g68
tp181
a(I1
g58
tp182
a(I0
g60
tp183
a(I1
g62
tp184
a(I0
g72
tp185
a(I1
g62
tp186
a(I0
g58
tp187
a(I1
g60
tp188
a(I0
g62
tp189
a(I1
g60
tp190
a(I0
g68
tp191
a(I1
g58
tp192
a(I0
g60
tp193
a(I1
g62
tp194
a(I0
g58
tp195
a(I1
g58
tp196
a(I0
g72
tp197
a(I1
g68
tp198
a(I0
g72
tp199
a(I1
g68
tp200
a(I0
g62
tp201
a(I1
g68
tp202
a(I0
g60
tp203
a(I1
g60
tp204
a(I0
g72
tp205
a(I1
g60
tp206
a(I0
g60
tp207
a(I1
g58
tp208
a(I0
g68
tp209
a(I1
g58
tp210
a(I0
g58
tp211
a(I1
g62
tp212
a(I0
g62
tp213
a(I1
g62
tp214
a(I0
g60
tp215
a(I1
g60
tp216
a(I0
g62
tp217
a(I1
g60
tp218
a(I0
g68
tp219
a(I1
g58
tp220
a(I0
g58
tp221
a(I1
g58
tp222
a(I0
g60
tp223
a(I1
g68
tp224
a(I0
g62
tp225
a(I1
g68
tp226
a(I0
g58
tp227
a(I1
g60
tp228
a(I0
g62
tp229
a(I1
g60
tp230
a(I0
g72
tp231
a(I1
g58
tp232
a(I0
g58
tp233
a(I1
g58
tp234
a(I0
g60
tp235
a(I1
g62
tp236
a(I0
g58
tp237
a(I1
g62
tp238
a(I0
g58
tp239
a(I1
g60
tp240
a(I0
g60
tp241
a(I1
g60
tp242
a(I0
g62
tp243
a(I1
g58
tp244
a(I0
g72
tp245
a(I1
g62
tp246
a(I0
g72
tp247
a(I1
g58
tp248
a(I0
g72
tp249
a(I1
g68
tp250
a(I0
g68
tp251
a(I1
g68
tp252
a(I0
g72
tp253
a(I1
g68
tp254
a(I0
g72
tp255
a(I1
g60
tp256
a(I0
g58
tp257
a(I1
g60
tp258
a(I0
g60
tp259
a(I1
g58
tp260
a(I0
g62
tp261
a(I1
g58
tp262
a(I0
g68
tp263
a(I1
g62
tp264
a(I0
g62
tp265
a(I1
g62
tp266
a(I0
g62
tp267
a(I1
g60
tp268
a(I0
g72
tp269
a(I1
g60
tp270
a(I0
g72
tp271
a(I1
g58
tp272
a(I0
g72
tp273
a(I1
g58
tp274
a(I0
g72
tp275
a(I1
g68
tp276
a(I0
g62
tp277
a(I1
g68
tp278
a(I0
g58
tp279
a(I1
g60
tp280
a(I0
g60
tp281
a(I1
g60
tp282
a(I0
g62
tp283
a(I1
g58
tp284
a(I0
g72
tp285
a(I1
g58
tp286
a(I0
g58
tp287
a(I1
g62
tp288
a(I0
g60
tp289
a(I1
g62
tp290
a(I0
g58
tp291
a(I1
g62
tp292
a(I0
g60
tp293
a(I1
g60
tp294
a(I0
g72
tp295
a(I1
g68
tp296
a(I0
g58
tp297
a(I1
g60
tp298
a(I0
g68
tp299
a(I1
g58
tp300
a(I0
g72
tp301
a(I1
g62
tp302
a(I0
g60
tp303
a(I1
g58
tp304
a(I0
g62
tp305
a(I1
g68
tp306
a(I0
g60
tp307
a(I1
g60
tp308
a(I0
g72
tp309
a(I1
g60
tp310
a(I0
g58
tp311
a(I1
g58
tp312
a(I0
g68
tp313
a(I1
g62
tp314
a(I0
g68
tp315
a(I1
g58
tp316
a(I0
g62
tp317
a(I1
g62
tp318
a(I0
g72
tp319
a(I1
g58
tp320
a(I0
g58
tp321
a(I1
g62
tp322
a(I0
g72
tp323
a(I1
g60
tp324
a(I0
g60
tp325
a(I1
g60
tp326
a(I0
g62
tp327
a(I1
g60
tp328
a(I0
g60
tp329
a(I1
g62
tp330
a(I0
g58
tp331
a(I1
g62
tp332
a(I0
g60
tp333
a(I1
g58
tp334
a(I0
g60
tp335
a(I1
g58
tp336
a(I0
g58
tp337
a(I1
g68
tp338
a(I0
g72
tp339
a(I1
g68
tp340
a(I0
g72
tp341
a(I1
g60
tp342
a(I0
g72
tp343
a(I1
g60
tp344
a(I0
g72
tp345
a(I1
g62
tp346
a(I0
g58
tp347
a(I1
g62
tp348
a(I0
g72
tp349
a(I1
g58
tp350
a(I0
g60
tp351
a(I1
g58
tp352
a(I0
g72
tp353
a(I1
g68
tp354
a(I0
g72
tp355
a(I1
g68
tp356
a(I0
g58
tp357
a(I1
g60
tp358
a(I0
g60
tp359
a(I1
g60
tp360
a(I0
g58
tp361
a(I1
g62
tp362
a(I0
g58
tp363
a(I1
g62
tp364
a(I0
g72
tp365
a(I1
g58
tp366
a(I0
g68
tp367
a(I1
g58
tp368
a(I0
g60
tp369
a(I1
g68
tp370
a(I0
g62
tp371
a(I1
g68
tp372
a(I0
g58
tp373
a(I1
g60
tp374
a(I0
g68
tp375
a(I1
g60
tp376
a(I0
g60
tp377
a(I1
g62
tp378
a(I0
g62
tp379
a(I1
g62
tp380
a(I0
g68
tp381
a(I1
g58
tp382
a(I0
g62
tp383
a(I1
g58
tp384
a(I0
g58
tp385
a(I1
g68
tp386
a(I0
g68
tp387
a(I1
g68
tp388
a(I0
g62
tp389
a(I1
g58
tp390
a(I0
g68
tp391
a(I1
g58
tp392
a(I0
g62
tp393
a(I1
g68
tp394
a(I0
g72
tp395
a(I1
g60
tp396
a(I0
g72
tp397
a(I1
g60
tp398
a(I0
g72
tp399
a(I1
g68
tp400
a(I0
g68
tp401
a(I1
g60
tp402
a(I0
g62
tp403
a(I1
g68
tp404
a(I0
g68
tp405
a(I1
g58
tp406
a(I0
g62
tp407
a(I1
g68
tp408
a(I0
g68
tp409
a(I1
g68
tp410
a(I0
g62
tp411
a(I1
g60
tp412
a(I0
g68
tp413
a(I1
g60
tp414
a(I0
g72
tp415
a(I1
g58
tp416
a(I0
g62
tp417
a(I1
g58
tp418
a(I0
g68
tp419
a(I1
g62
tp420
a(I0
g60
tp421
a(I1
g62
tp422
a(I0
g68
tp423
a(I1
g60
tp424
a(I0
g62
tp425
a(I1
g60
tp426
a(I0
g62
tp427
a(I1
g58
tp428
a(I0
g58
tp429
a(I1
g58
tp430
a(I0
g72
tp431
a(I1
g68
tp432
a(I0
g72
tp433
a(I1
g68
tp434
a(I0
g72
tp435
a(I1
g60
tp436
a(I0
g68
tp437
a(I1
g60
tp438
a(I0
g60
tp439
a(I1
g58
tp440
a(I0
g72
tp441
a(I1
g58
tp442
a(I0
g72
tp443
a(I1
g62
tp444
a(I0
g58
tp445
a(I1
g62
tp446
a(I0
g60
tp447
a(I1
g62
tp448
a(I0
g58
tp449
a(I1
g60
tp450
a(I0
g62
tp451
a(I1
g68
tp452
a(I0
g72
tp453
a(I1
g60
tp454
a(I0
g68
tp455
a(I1
g58
tp456
a(I0
g60
tp457
a(I1
g62
tp458
a(I0
g72
tp459
a(I1
g58
tp460
a(I0
g72
tp461
a(I1
g68
tp462
a(I0
g68
tp463
a(I1
g68
tp464
a(I0
g72
tp465
a(I1
g68
tp466
a(I0
g72
tp467
a(I1
g60
tp468
a(I0
g68
tp469
a(I1
g60
tp470
a(I0
g60
tp471
a(I1
g58
tp472
a(I0
g72
tp473
a(I1
g58
tp474
a(I0
g72
tp475
a(I1
g62
tp476
a(I0
g72
tp477
a(I1
g62
tp478
a(I0
g68
tp479
a(I1
g60
tp480
a(I0
g68
tp481
a(I1
g60
tp482
a(I0
g72
tp483
a(I1
g58
tp484
a(I0
g60
tp485
a(I1
g62
tp486
a(I0
g72
tp487
a(I1
g58
tp488
a(I0
g60
tp489
a(I1
g68
tp490
a(I0
g62
tp491
a(I1
g58
tp492
a(I0
g72
tp493
a(I1
g62
tp494
as.