(dp1
S'layout'
p2
(ilayout
Layout
p3
(dp4
S'numGhosts'
p5
I1
sS'food'
p6
(igame
Grid
p7
(dp8
S'CELLS_PER_INT'
p9
I30
sS'width'
p10
I10
sS'data'
p11
(lp12
(lp13
I00
aI00
aI00
aI00
aI00
aI00
aI00
aI00
aI00
aI00
aa(lp14
I00
aI00
aI00
aI00
aI00
aI00
aI00
aI00
aI00
aI00
aa(lp15
I00
aI01
aI00
aI00
aI00
aI00
aI00
aI00
aI00
aI00
aa(lp16
I00
aI00
aI00
aI00
aI01
aI01
aI01
aI01
aI01
aI00
aa(lp17
I00
aI00
aI00
aI01
aI00
aI01
aI00
aI00
aI00
aI00
aa(lp18
I00
aI00
aI00
aI00
aI00
aI01
aI01
aI01
aI01
aI00
aa(lp19
I00
aI00
aI01
aI01
aI00
aI00
aI00
aI00
aI01
aI00
aa(lp20
I00
aI00
aI01
aI00
aI01
aI01
aI01
aI00
aI01
aI00
aa(lp21
I00
aI00
aI00
aI00
aI00
aI00
aI00
aI00
aI00
aI00
aa(lp22
I00
aI00
aI00
aI00
aI00
aI00
aI00
aI00
aI00
aI00
aasS'height'
p23
I10
sbsS'agentPositions'
p24
(lp25
(I01
(I1
I3
tp26
tp27
a(I00
(I8
I8
tp28
tp29
asg23
I10
sg10
I10
sS'walls'
p30
(igame
Grid
p31
(dp32
g9
I30
sg10
I10
sg11
(lp33
(lp34
I01
aI01
aI01
aI01
aI01
aI01
aI01
aI01
aI01
aI01
aa(lp35
I01
aI00
aI01
aI00
aI01
aI01
aI00
aI00
aI00
aI01
aa(lp36
I01
aI00
aI01
aI00
aI00
aI01
aI00
aI01
aI00
aI01
aa(lp37
I01
aI00
aI00
aI00
aI00
aI00
aI00
aI00
aI00
aI01
aa(lp38
I01
aI01
aI01
aI00
aI00
aI00
aI00
aI01
aI01
aI01
aa(lp39
I01
aI00
aI00
aI00
aI01
aI00
aI00
aI00
aI00
aI01
aa(lp40
I01
aI00
aI00
aI00
aI00
aI00
aI01
aI01
aI00
aI01
aa(lp41
I01
aI00
aI00
aI01
aI00
aI00
aI00
aI00
aI00
aI01
aa(lp42
I01
aI00
aI01
aI01
aI00
aI01
aI01
aI00
aI00
aI01
aa(lp43
I01
aI01
aI01
aI01
aI01
aI01
aI01
aI01
aI01
aI01
aasg23
I10
sbsS'layoutText'
p44
(lp45
S'%%%%%%%%%%'
p46
aS'%  .%...G%'
p47
aS'% %.%.%  %'
p48
aS'%  . .%.%%'
p49
aS'%%%... .%%'
p50
aS'%% . % . %'
p51
aS'%P  . .%%%'
p52
aS'%%% % ..%%'
p53
aS'% . %    %'
p54
aS'%%%%%%%%%%'
p55
asbsS'actions'
p56
(lp57
(I0
S'East'
p58
tp59
a(I1
S'West'
p60
tp61
a(I0
g58
tp62
a(I1
S'South'
p63
tp64
a(I0
S'North'
p65
tp66
a(I1
g63
tp67
a(I0
g65
tp68
a(I1
g63
tp69
a(I0
g58
tp70
a(I1
g63
tp71
a(I0
g58
tp72
a(I1
g58
tp73
a(I0
g65
tp74
a(I1
g60
tp75
a(I0
g65
tp76
a(I1
g65
tp77
a(I0
g65
tp78
a(I1
g65
tp79
a(I0
g63
tp80
a(I1
g65
tp81
a(I0
g65
tp82
a(I1
g58
tp83
a(I0
g58
tp84
a(I1
g65
tp85
a(I0
S'Stop'
p86
tp87
a(I1
g60
tp88
a(I0
g60
tp89
a(I1
g63
tp90
a(I0
g58
tp91
a(I1
g63
tp92
a(I0
g58
tp93
a(I1
g63
tp94
a(I0
g63
tp95
a(I1
g63
tp96
a(I0
g86
tp97
a(I1
g58
tp98
a(I0
g63
tp99
a(I1
g60
tp100
a(I0
g86
tp101
a(I1
g65
tp102
a(I0
g65
tp103
a(I1
g60
tp104
a(I0
g63
tp105
a(I1
g60
tp106
a(I0
g86
tp107
a(I1
g60
tp108
a(I0
g63
tp109
a(I1
g63
tp110
a(I0
g63
tp111
a(I1
g63
tp112
a(I0
g60
tp113
a(I1
g58
tp114
a(I0
g58
tp115
a(I1
g63
tp116
a(I0
g58
tp117
a(I1
g58
tp118
a(I0
g60
tp119
a(I1
g58
tp120
a(I0
g65
tp121
a(I1
g63
tp122
a(I0
g63
tp123
a(I1
g58
tp124
a(I0
g86
tp125
a(I1
g60
tp126
a(I0
g60
tp127
a(I1
g65
tp128
a(I0
g63
tp129
a(I1
g60
tp130
a(I0
g60
tp131
a(I1
g65
tp132
a(I0
g60
tp133
a(I1
g60
tp134
a(I0
g60
tp135
a(I1
g63
tp136
a(I0
g63
tp137
a(I1
g58
tp138
a(I0
g65
tp139
a(I1
g58
tp140
a(I0
g63
tp141
a(I1
g63
tp142
a(I0
g63
tp143
a(I1
g58
tp144
a(I0
g60
tp145
a(I1
g60
tp146
a(I0
g58
tp147
a(I1
g65
tp148
a(I0
g86
tp149
a(I1
g60
tp150
a(I0
g60
tp151
a(I1
g60
tp152
a(I0
g58
tp153
a(I1
g65
tp154
a(I0
g60
tp155
a(I1
g58
tp156
a(I0
g58
tp157
a(I1
g63
tp158
a(I0
g65
tp159
a(I1
g58
tp160
a(I0
g65
tp161
a(I1
g63
tp162
a(I0
g86
tp163
a(I1
g58
tp164
a(I0
g63
tp165
a(I1
g60
tp166
a(I0
g86
tp167
a(I1
g65
tp168
a(I0
g65
tp169
a(I1
g60
tp170
a(I0
g86
tp171
a(I1
g63
tp172
a(I0
g86
tp173
a(I1
g60
tp174
a(I0
g65
tp175
a(I1
g65
tp176
a(I0
g60
tp177
a(I1
g58
tp178
a(I0
g86
tp179
a(I1
g58
tp180
a(I0
g58
tp181
a(I1
g63
tp182
a(I0
g86
tp183
a(I1
g58
tp184
a(I0
g65
tp185
a(I1
g60
tp186
a(I0
g63
tp187
a(I1
g65
tp188
a(I0
g65
tp189
a(I1
g60
tp190
a(I0
g65
tp191
a(I1
g65
tp192
a(I0
g65
tp193
a(I1
g60
tp194
a(I0
g63
tp195
a(I1
g63
tp196
a(I0
g60
tp197
a(I1
g58
tp198
a(I0
g86
tp199
a(I1
g58
tp200
a(I0
g60
tp201
a(I1
g63
tp202
a(I0
g86
tp203
a(I1
g58
tp204
a(I0
g86
tp205
a(I1
g60
tp206
a(I0
g86
tp207
a(I1
g65
tp208
a(I0
g65
tp209
a(I1
g60
tp210
a(I0
g63
tp211
a(I1
g60
tp212
a(I0
g65
tp213
a(I1
g63
tp214
a(I0
g63
tp215
a(I1
g58
tp216
a(I0
g65
tp217
a(I1
g58
tp218
a(I0
g65
tp219
a(I1
g65
tp220
a(I0
g86
tp221
a(I1
g60
tp222
a(I0
g86
tp223
a(I1
g63
tp224
a(I0
g86
tp225
a(I1
g58
tp226
a(I0
g58
tp227
a(I1
g65
tp228
a(I0
g60
tp229
a(I1
g60
tp230
a(I0
g86
tp231
a(I1
g63
tp232
a(I0
g63
tp233
a(I1
g58
tp234
a(I0
g63
tp235
a(I1
g65
tp236
a(I0
g58
tp237
a(I1
g60
tp238
a(I0
g86
tp239
a(I1
g65
tp240
a(I0
g60
tp241
a(I1
g60
tp242
a(I0
g86
tp243
a(I1
g63
tp244
a(I0
g65
tp245
a(I1
g58
tp246
a(I0
g86
tp247
a(I1
g58
tp248
a(I0
g65
tp249
a(I1
g63
tp250
a(I0
g58
tp251
a(I1
g58
tp252
a(I0
g86
tp253
a(I1
g60
tp254
a(I0
g58
tp255
a(I1
g65
tp256
a(I0
g63
tp257
a(I1
g60
tp258
a(I0
g63
tp259
a(I1
g65
tp260
a(I0
g65
tp261
a(I1
g65
tp262
a(I0
g63
tp263
a(I1
g58
tp264
a(I0
g65
tp265
a(I1
g58
tp266
a(I0
g63
tp267
a(I1
g60
tp268
a(I0
g60
tp269
a(I1
g65
tp270
a(I0
g60
tp271
a(I1
g65
tp272
a(I0
g58
tp273
a(I1
g65
tp274
a(I0
g86
tp275
a(I1
g58
tp276
a(I0
g60
tp277
a(I1
g65
tp278
a(I0
g86
tp279
a(I1
g60
tp280
a(I0
g65
tp281
a(I1
g63
tp282
a(I0
g86
tp283
a(I1
g58
tp284
a(I0
g63
tp285
a(I1
g65
tp286
a(I0
g86
tp287
a(I1
g60
tp288
a(I0
g65
tp289
a(I1
g63
tp290
a(I0
g65
tp291
a(I1
g58
tp292
a(I0
g58
tp293
a(I1
g65
tp294
a(I0
g60
tp295
a(I1
g60
tp296
a(I0
g58
tp297
a(I1
g63
tp298
a(I0
g58
tp299
a(I1
g63
tp300
a(I0
g60
tp301
a(I1
g63
tp302
a(I0
g60
tp303
a(I1
g63
tp304
a(I0
g86
tp305
a(I1
g58
tp306
a(I0
g63
tp307
a(I1
g60
tp308
a(I0
g86
tp309
a(I1
g60
tp310
a(I0
g86
tp311
a(I1
g63
tp312
a(I0
g63
tp313
a(I1
g63
tp314
a(I0
g86
tp315
a(I1
g58
tp316
a(I0
g65
tp317
a(I1
g63
tp318
a(I0
g63
tp319
a(I1
g58
tp320
a(I0
g65
tp321
a(I1
g60
tp322
a(I0
g86
tp323
a(I1
g65
tp324
a(I0
g65
tp325
a(I1
g60
tp326
a(I0
g63
tp327
a(I1
g63
tp328
a(I0
g65
tp329
a(I1
g58
tp330
a(I0
g63
tp331
a(I1
g58
tp332
a(I0
g65
tp333
a(I1
g60
tp334
a(I0
g63
tp335
a(I1
g65
tp336
a(I0
g65
tp337
a(I1
g60
tp338
a(I0
g58
tp339
a(I1
g65
tp340
a(I0
g60
tp341
a(I1
g65
tp342
a(I0
g63
tp343
a(I1
g58
tp344
a(I0
g63
tp345
a(I1
g58
tp346
a(I0
g65
tp347
a(I1
g60
tp348
a(I0
g63
tp349
a(I1
g60
tp350
a(I0
g86
tp351
a(I1
g63
tp352
a(I0
g86
tp353
a(I1
g63
tp354
a(I0
g58
tp355
a(I1
g58
tp356
a(I0
g58
tp357
a(I1
g63
tp358
a(I0
g60
tp359
a(I1
g58
tp360
a(I0
g60
tp361
a(I1
g60
tp362
a(I0
g58
tp363
a(I1
g65
tp364
a(I0
g58
tp365
a(I1
g60
tp366
a(I0
g86
tp367
a(I1
g60
tp368
a(I0
g60
tp369
a(I1
g65
tp370
a(I0
g60
tp371
a(I1
g58
tp372
a(I0
g86
tp373
a(I1
g63
tp374
a(I0
g58
tp375
a(I1
g58
tp376
a(I0
g60
tp377
a(I1
g63
tp378
a(I0
g65
tp379
a(I1
g58
tp380
a(I0
g86
tp381
a(I1
g60
tp382
a(I0
g86
tp383
a(I1
g65
tp384
a(I0
g86
tp385
a(I1
g60
tp386
a(I0
g63
tp387
a(I1
g65
tp388
a(I0
g65
tp389
a(I1
g65
tp390
a(I0
g63
tp391
a(I1
g58
tp392
a(I0
g58
tp393
a(I1
g58
tp394
a(I0
g86
tp395
a(I1
g60
tp396
a(I0
g86
tp397
a(I1
g60
tp398
a(I0
g60
tp399
a(I1
g63
tp400
a(I0
g65
tp401
a(I1
g63
tp402
a(I0
g65
tp403
a(I1
g58
tp404
a(I0
g58
tp405
a(I1
g63
tp406
a(I0
g60
tp407
a(I1
g58
tp408
a(I0
g58
tp409
a(I1
g60
tp410
a(I0
g86
tp411
a(I1
g65
tp412
a(I0
g58
tp413
a(I1
g60
tp414
a(I0
g60
tp415
a(I1
g63
tp416
a(I0
g58
tp417
a(I1
g58
tp418
a(I0
g60
tp419
a(I1
g65
tp420
a(I0
g86
tp421
a(I1
g60
tp422
a(I0
g58
tp423
a(I1
g63
tp424
a(I0
g60
tp425
a(I1
g58
tp426
a(I0
g60
tp427
a(I1
g65
tp428
a(I0
g58
tp429
a(I1
g60
tp430
a(I0
g58
tp431
a(I1
g60
tp432
a(I0
g60
tp433
a(I1
g65
tp434
a(I0
g86
tp435
a(I1
g58
tp436
a(I0
g58
tp437
a(I1
g63
tp438
a(I0
g86
tp439
a(I1
g63
tp440
a(I0
g86
tp441
a(I1
g58
tp442
a(I0
g60
tp443
a(I1
g58
tp444
a(I0
g60
tp445
a(I1
g60
tp446
a(I0
g63
tp447
a(I1
g65
tp448
a(I0
g86
tp449
a(I1
g60
tp450
a(I0
g86
tp451
a(I1
g65
tp452
a(I0
g63
tp453
a(I1
g65
tp454
a(I0
g86
tp455
a(I1
g58
tp456
a(I0
g65
tp457
a(I1
g58
tp458
a(I0
g63
tp459
a(I1
g60
tp460
a(I0
g65
tp461
a(I1
g65
tp462
a(I0
g86
tp463
a(I1
g65
tp464
a(I0
g86
tp465
a(I1
g65
tp466
a(I0
g65
tp467
a(I1
g58
tp468
a(I0
g58
tp469
a(I1
g65
tp470
a(I0
g58
tp471
a(I1
g60
tp472
a(I0
g63
tp473
a(I1
g63
tp474
a(I0
g86
tp475
a(I1
g58
tp476
a(I0
g63
tp477
a(I1
g65
tp478
a(I0
g63
tp479
a(I1
g60
tp480
a(I0
g58
tp481
a(I1
g60
tp482
a(I0
g63
tp483
a(I1
g60
tp484
a(I0
g86
tp485
a(I1
g63
tp486
a(I0
g86
tp487
a(I1
g63
tp488
a(I0
g65
tp489
a(I1
g63
tp490
a(I0
g65
tp491
a(I1
g60
tp492
a(I0
g58
tp493
a(I1
g65
tp494
a(I0
g65
tp495
a(I1
g60
tp496
a(I0
g86
tp497
a(I1
g60
tp498
a(I0
g65
tp499
a(I1
g60
tp500
a(I0
g86
tp501
a(I1
g65
tp502
a(I0
g86
tp503
a(I1
g65
tp504
a(I0
g58
tp505
a(I1
g58
tp506
a(I0
g86
tp507
a(I1
g58
tp508
a(I0
g60
tp509
a(I1
g63
tp510
a(I0
g63
tp511
a(I1
g63
tp512
a(I0
g63
tp513
a(I1
g63
tp514
a(I0
g63
tp515
a(I1
g63
tp516
a(I0
g60
tp517
a(I1
g58
tp518
a(I0
g58
tp519
a(I1
g65
tp520
a(I0
g58
tp521
a(I1
g60
tp522
a(I0
g58
tp523
a(I1
g63
tp524
a(I0
g65
tp525
a(I1
g63
tp526
a(I0
g65
tp527
a(I1
g60
tp528
a(I0
g65
tp529
a(I1
g60
tp530
a(I0
g63
tp531
a(I1
g58
tp532
a(I0
g86
tp533
a(I1
g58
tp534
a(I0
g86
tp535
a(I1
g63
tp536
a(I0
g86
tp537
a(I1
g63
tp538
a(I0
g58
tp539
a(I1
g60
tp540
a(I0
g60
tp541
a(I1
g60
tp542
a(I0
g65
tp543
a(I1
g58
tp544
a(I0
g63
tp545
a(I1
g58
tp546
a(I0
g65
tp547
a(I1
g65
tp548
a(I0
g58
tp549
a(I1
g65
tp550
a(I0
g60
tp551
a(I1
g65
tp552
a(I0
g58
tp553
a(I1
g60
tp554
a(I0
g86
tp555
a(I1
g63
tp556
a(I0
g60
tp557
a(I1
g60
tp558
a(I0
g86
tp559
a(I1
g58
tp560
a(I0
g63
tp561
a(I1
g58
tp562
a(I0
g58
tp563
a(I1
g58
tp564
a(I0
g65
tp565
a(I1
g58
tp566
a(I0
g63
tp567
a(I1
g63
tp568
a(I0
g65
tp569
a(I1
g63
tp570
a(I0
g63
tp571
a(I1
g58
tp572
a(I0
g65
tp573
a(I1
g65
tp574
a(I0
g63
tp575
a(I1
g60
tp576
a(I0
g86
tp577
a(I1
g63
tp578
a(I0
g65
tp579
a(I1
g58
tp580
a(I0
g86
tp581
a(I1
g65
tp582
a(I0
g86
tp583
a(I1
g60
tp584
a(I0
g60
tp585
a(I1
g65
tp586
a(I0
g86
tp587
a(I1
g60
tp588
a(I0
g86
tp589
a(I1
g60
tp590
a(I0
g60
tp591
a(I1
g63
tp592
a(I0
g58
tp593
a(I1
g63
tp594
a(I0
g86
tp595
a(I1
g60
tp596
a(I0
g60
tp597
a(I1
g60
tp598
a(I0
g60
tp599
a(I1
g58
tp600
a(I0
g63
tp601
a(I1
g58
tp602
a(I0
g63
tp603
a(I1
g65
tp604
a(I0
g65
tp605
a(I1
g65
tp606
a(I0
g65
tp607
a(I1
g60
tp608
a(I0
g86
tp609
a(I1
g60
tp610
a(I0
g63
tp611
a(I1
g58
tp612
a(I0
g86
tp613
a(I1
g58
tp614
a(I0
g63
tp615
a(I1
g63
tp616
a(I0
g60
tp617
a(I1
g63
tp618
a(I0
g86
tp619
a(I1
g60
tp620
a(I0
g60
tp621
a(I1
g60
tp622
a(I0
g60
tp623
a(I1
g58
tp624
a(I0
g60
tp625
a(I1
g58
tp626
a(I0
g65
tp627
a(I1
g65
tp628
a(I0
g63
tp629
a(I1
g65
tp630
a(I0
g86
tp631
a(I1
g60
tp632
a(I0
g65
tp633
a(I1
g60
tp634
a(I0
g86
tp635
a(I1
g58
tp636
a(I0
g86
tp637
a(I1
g58
tp638
a(I0
g65
tp639
a(I1
g63
tp640
a(I0
g86
tp641
a(I1
g63
tp642
a(I0
g58
tp643
a(I1
g60
tp644
a(I0
g58
tp645
a(I1
g60
tp646
a(I0
g86
tp647
a(I1
g58
tp648
a(I0
g60
tp649
a(I1
g58
tp650
a(I0
g58
tp651
a(I1
g65
tp652
a(I0
g60
tp653
a(I1
g65
tp654
a(I0
g58
tp655
a(I1
g60
tp656
a(I0
g63
tp657
a(I1
g60
tp658
a(I0
g63
tp659
a(I1
g58
tp660
a(I0
g60
tp661
a(I1
g58
tp662
a(I0
g58
tp663
a(I1
g63
tp664
a(I0
g63
tp665
a(I1
g63
tp666
a(I0
g58
tp667
a(I1
g60
tp668
a(I0
g65
tp669
a(I1
g60
tp670
a(I0
g58
tp671
a(I1
g58
tp672
a(I0
g63
tp673
a(I1
g58
tp674
a(I0
g65
tp675
a(I1
g65
tp676
a(I0
g60
tp677
a(I1
g65
tp678
a(I0
g63
tp679
a(I1
g60
tp680
a(I0
g63
tp681
a(I1
g60
tp682
a(I0
g86
tp683
a(I1
g58
tp684
a(I0
g65
tp685
a(I1
g58
tp686
a(I0
g86
tp687
a(I1
g63
tp688
a(I0
g65
tp689
a(I1
g63
tp690
a(I0
g60
tp691
a(I1
g60
tp692
a(I0
g65
tp693
a(I1
g60
tp694
a(I0
g63
tp695
a(I1
g58
tp696
a(I0
g58
tp697
a(I1
g58
tp698
a(I0
g63
tp699
a(I1
g65
tp700
a(I0
g63
tp701
a(I1
g65
tp702
a(I0
g86
tp703
a(I1
g65
tp704
a(I0
g86
tp705
a(I1
g58
tp706
as.