(dp1
S'layout'
p2
(ilayout
Layout
p3
(dp4
S'numGhosts'
p5
I1
sS'food'
p6
(igame
Grid
p7
(dp8
S'CELLS_PER_INT'
p9
I30
sS'width'
p10
I10
sS'data'
p11
(lp12
(lp13
I00
aI00
aI00
aI00
aI00
aI00
aI00
aI00
aI00
aI00
aa(lp14
I00
aI00
aI00
aI00
aI00
aI00
aI00
aI00
aI00
aI00
aa(lp15
I00
aI01
aI00
aI00
aI00
aI00
aI00
aI00
aI00
aI00
aa(lp16
I00
aI00
aI00
aI00
aI01
aI01
aI01
aI01
aI01
aI00
aa(lp17
I00
aI00
aI00
aI01
aI00
aI01
aI00
aI00
aI00
aI00
aa(lp18
I00
aI00
aI00
aI00
aI00
aI01
aI01
aI01
aI01
aI00
aa(lp19
I00
aI00
aI01
aI01
aI00
aI00
aI00
aI00
aI01
aI00
aa(lp20
I00
aI00
aI01
aI00
aI01
aI01
aI01
aI00
aI01
aI00
aa(lp21
I00
aI00
aI00
aI00
aI00
aI00
aI00
aI00
aI00
aI00
aa(lp22
I00
aI00
aI00
aI00
aI00
aI00
aI00
aI00
aI00
aI00
aasS'height'
p23
I10
sbsS'agentPositions'
p24
(lp25
(I01
(I1
I3
tp26
tp27
a(I00
(I8
I8
tp28
tp29
asg23
I10
sg10
I10
sS'walls'
p30
(igame
Grid
p31
(dp32
g9
I30
sg10
I10
sg11
(lp33
(lp34
I01
aI01
aI01
aI01
aI01
aI01
aI01
aI01
aI01
aI01
aa(lp35
I01
aI00
aI01
aI00
aI01
aI01
aI00
aI00
aI00
aI01
aa(lp36
I01
aI00
aI01
aI00
aI00
aI01
aI00
aI01
aI00
aI01
aa(lp37
I01
aI00
aI00
aI00
aI00
aI00
aI00
aI00
aI00
aI01
aa(lp38
I01
aI01
aI01
aI00
aI00
aI00
aI00
aI01
aI01
aI01
aa(lp39
I01
aI00
aI00
aI00
aI01
aI00
aI00
aI00
aI00
aI01
aa(lp40
I01
aI00
aI00
aI00
aI00
aI00
aI01
aI01
aI00
aI01
aa(lp41
I01
aI00
aI00
aI01
aI00
aI00
aI00
aI00
aI00
aI01
aa(lp42
I01
aI00
aI01
aI01
aI00
aI01
aI01
aI00
aI00
aI01
aa(lp43
I01
aI01
aI01
aI01
aI01
aI01
aI01
aI01
aI01
aI01
aasg23
I10
sbsS'layoutText'
p44
(lp45
S'%%%%%%%%%%'
p46
aS'%  .%...G%'
p47
aS'% %.%.%  %'
p48
aS'%  . .%.%%'
p49
aS'%%%... .%%'
p50
aS'%% . % . %'
p51
aS'%P  . .%%%'
p52
aS'%%% % ..%%'
p53
aS'% . %    %'
p54
aS'%%%%%%%%%%'
p55
asbsS'actions'
p56
(lp57
(I0
S'East'
p58
tp59
a(I1
S'South'
p60
tp61
a(I0
g58
tp62
a(I1
S'West'
p63
tp64
a(I0
S'North'
p65
tp66
a(I1
g60
tp67
a(I0
g65
tp68
a(I1
g60
tp69
a(I0
g58
tp70
a(I1
g60
tp71
a(I0
g58
tp72
a(I1
g58
tp73
a(I0
g65
tp74
a(I1
g63
tp75
a(I0
g65
tp76
a(I1
g63
tp77
a(I0
g65
tp78
a(I1
g60
tp79
a(I0
g58
tp80
a(I1
g60
tp81
a(I0
g58
tp82
a(I1
g58
tp83
a(I0
g60
tp84
a(I1
g60
tp85
a(I0
g60
tp86
a(I1
g58
tp87
a(I0
g60
tp88
a(I1
g63
tp89
a(I0
g60
tp90
a(I1
g65
tp91
a(I0
g63
tp92
a(I1
g63
tp93
a(I0
S'Stop'
p94
tp95
a(I1
g65
tp96
a(I0
g58
tp97
a(I1
g65
tp98
a(I0
g65
tp99
a(I1
g58
tp100
a(I0
g65
tp101
a(I1
g58
tp102
a(I0
g60
tp103
a(I1
g63
tp104
a(I0
g63
tp105
a(I1
g65
tp106
a(I0
g60
tp107
a(I1
g63
tp108
a(I0
g60
tp109
a(I1
g60
tp110
a(I0
g60
tp111
a(I1
g58
tp112
a(I0
g58
tp113
a(I1
g58
tp114
a(I0
g63
tp115
a(I1
g63
tp116
a(I0
g94
tp117
a(I1
g65
tp118
a(I0
g63
tp119
a(I1
g65
tp120
a(I0
g65
tp121
a(I1
g65
tp122
a(I0
g63
tp123
a(I1
g58
tp124
a(I0
g58
tp125
a(I1
g65
tp126
a(I0
g63
tp127
a(I1
g63
tp128
a(I0
g63
tp129
a(I1
g63
tp130
a(I0
g65
tp131
a(I1
g63
tp132
a(I0
g65
tp133
a(I1
g60
tp134
a(I0
g65
tp135
a(I1
g60
tp136
a(I0
g65
tp137
a(I1
g60
tp138
a(I0
g94
tp139
a(I1
g58
tp140
a(I0
g94
tp141
a(I1
g58
tp142
a(I0
g65
tp143
a(I1
g60
tp144
a(I0
g63
tp145
a(I1
g58
tp146
a(I0
g94
tp147
a(I1
g63
tp148
a(I0
g94
tp149
a(I1
g65
tp150
a(I0
g58
tp151
a(I1
g65
tp152
a(I0
g63
tp153
a(I1
g65
tp154
a(I0
g63
tp155
a(I1
g58
tp156
a(I0
g94
tp157
a(I1
g65
tp158
a(I0
g58
tp159
a(I1
g63
tp160
a(I0
g94
tp161
a(I1
g60
tp162
a(I0
g63
tp163
a(I1
g60
tp164
a(I0
g60
tp165
a(I1
g60
tp166
a(I0
g60
tp167
a(I1
g60
tp168
a(I0
g58
tp169
a(I1
g58
tp170
a(I0
g58
tp171
a(I1
g63
tp172
a(I0
g60
tp173
a(I1
g63
tp174
a(I0
g94
tp175
a(I1
g65
tp176
a(I0
g65
tp177
a(I1
g58
tp178
a(I0
g63
tp179
a(I1
g60
tp180
a(I0
g58
tp181
a(I1
g58
tp182
a(I0
g94
tp183
a(I1
g63
tp184
a(I0
g60
tp185
a(I1
g65
tp186
a(I0
g60
tp187
a(I1
g65
tp188
a(I0
g94
tp189
a(I1
g65
tp190
a(I0
g94
tp191
a(I1
g65
tp192
a(I0
g58
tp193
a(I1
g58
tp194
a(I0
g60
tp195
a(I1
g60
tp196
a(I0
g94
tp197
a(I1
g63
tp198
a(I0
g65
tp199
a(I1
g65
tp200
a(I0
g65
tp201
a(I1
g58
tp202
a(I0
g60
tp203
a(I1
g60
tp204
a(I0
g63
tp205
a(I1
g63
tp206
a(I0
g65
tp207
a(I1
g65
tp208
a(I0
g58
tp209
a(I1
g63
tp210
a(I0
g63
tp211
a(I1
g63
tp212
a(I0
g94
tp213
a(I1
g60
tp214
a(I0
g94
tp215
a(I1
g60
tp216
a(I0
g60
tp217
a(I1
g63
tp218
a(I0
g94
tp219
a(I1
g63
tp220
a(I0
g94
tp221
a(I1
g65
tp222
a(I0
g58
tp223
a(I1
g65
tp224
a(I0
g63
tp225
a(I1
g63
tp226
a(I0
g94
tp227
a(I1
g63
tp228
a(I0
g65
tp229
a(I1
g60
tp230
a(I0
g58
tp231
a(I1
g60
tp232
a(I0
g63
tp233
a(I1
g58
tp234
a(I0
g94
tp235
a(I1
g58
tp236
a(I0
g58
tp237
a(I1
g58
tp238
a(I0
g60
tp239
a(I1
g58
tp240
a(I0
g94
tp241
a(I1
g65
tp242
a(I0
g94
tp243
a(I1
g65
tp244
a(I0
g60
tp245
a(I1
g58
tp246
a(I0
g63
tp247
a(I1
g58
tp248
a(I0
g94
tp249
a(I1
g58
tp250
a(I0
g58
tp251
a(I1
g60
tp252
a(I0
g65
tp253
a(I1
g63
tp254
a(I0
g65
tp255
a(I1
g60
tp256
a(I0
g94
tp257
a(I1
g60
tp258
a(I0
g63
tp259
a(I1
g60
tp260
a(I0
g58
tp261
a(I1
g63
tp262
a(I0
g65
tp263
a(I1
g60
tp264
a(I0
g58
tp265
a(I1
g63
tp266
a(I0
g63
tp267
a(I1
g60
tp268
a(I0
g94
tp269
a(I1
g60
tp270
a(I0
g58
tp271
a(I1
g58
tp272
a(I0
g60
tp273
a(I1
g65
tp274
a(I0
g94
tp275
a(I1
g63
tp276
a(I0
g65
tp277
a(I1
g65
tp278
a(I0
g63
tp279
a(I1
g63
tp280
a(I0
g63
tp281
a(I1
g63
tp282
a(I0
g63
tp283
a(I1
g63
tp284
a(I0
g63
tp285
a(I1
g63
tp286
a(I0
g65
tp287
a(I1
g58
tp288
a(I0
g94
tp289
a(I1
g58
tp290
a(I0
g60
tp291
a(I1
g60
tp292
a(I0
g94
tp293
a(I1
g60
tp294
a(I0
g65
tp295
a(I1
g63
tp296
a(I0
g65
tp297
a(I1
g63
tp298
a(I0
g60
tp299
a(I1
g58
tp300
a(I0
g65
tp301
a(I1
g58
tp302
a(I0
g60
tp303
a(I1
g65
tp304
a(I0
g65
tp305
a(I1
g65
tp306
a(I0
g60
tp307
a(I1
g65
tp308
a(I0
g60
tp309
a(I1
g63
tp310
a(I0
g65
tp311
a(I1
g60
tp312
a(I0
g94
tp313
a(I1
g63
tp314
a(I0
g60
tp315
a(I1
g58
tp316
a(I0
g58
tp317
a(I1
g58
tp318
a(I0
g94
tp319
a(I1
g65
tp320
a(I0
g94
tp321
a(I1
g58
tp322
a(I0
g94
tp323
a(I1
g65
tp324
a(I0
g58
tp325
a(I1
g65
tp326
a(I0
g94
tp327
a(I1
g63
tp328
as.