(dp1
S'layout'
p2
(ilayout
Layout
p3
(dp4
S'numGhosts'
p5
I1
sS'food'
p6
(igame
Grid
p7
(dp8
S'CELLS_PER_INT'
p9
I30
sS'width'
p10
I10
sS'data'
p11
(lp12
(lp13
I00
aI00
aI00
aI00
aI00
aI00
aI00
aI00
aI00
aI00
aa(lp14
I00
aI00
aI00
aI00
aI00
aI00
aI00
aI00
aI00
aI00
aa(lp15
I00
aI01
aI00
aI00
aI00
aI00
aI00
aI00
aI00
aI00
aa(lp16
I00
aI00
aI00
aI00
aI01
aI01
aI01
aI01
aI01
aI00
aa(lp17
I00
aI00
aI00
aI01
aI00
aI01
aI00
aI00
aI00
aI00
aa(lp18
I00
aI00
aI00
aI00
aI00
aI01
aI01
aI01
aI01
aI00
aa(lp19
I00
aI00
aI01
aI01
aI00
aI00
aI00
aI00
aI01
aI00
aa(lp20
I00
aI00
aI01
aI00
aI01
aI01
aI01
aI00
aI01
aI00
aa(lp21
I00
aI00
aI00
aI00
aI00
aI00
aI00
aI00
aI00
aI00
aa(lp22
I00
aI00
aI00
aI00
aI00
aI00
aI00
aI00
aI00
aI00
aasS'height'
p23
I10
sbsS'agentPositions'
p24
(lp25
(I01
(I1
I3
tp26
tp27
a(I00
(I8
I8
tp28
tp29
asg23
I10
sg10
I10
sS'walls'
p30
(igame
Grid
p31
(dp32
g9
I30
sg10
I10
sg11
(lp33
(lp34
I01
aI01
aI01
aI01
aI01
aI01
aI01
aI01
aI01
aI01
aa(lp35
I01
aI00
aI01
aI00
aI01
aI01
aI00
aI00
aI00
aI01
aa(lp36
I01
aI00
aI01
aI00
aI00
aI01
aI00
aI01
aI00
aI01
aa(lp37
I01
aI00
aI00
aI00
aI00
aI00
aI00
aI00
aI00
aI01
aa(lp38
I01
aI01
aI01
aI00
aI00
aI00
aI00
aI01
aI01
aI01
aa(lp39
I01
aI00
aI00
aI00
aI01
aI00
aI00
aI00
aI00
aI01
aa(lp40
I01
aI00
aI00
aI00
aI00
aI00
aI01
aI01
aI00
aI01
aa(lp41
I01
aI00
aI00
aI01
aI00
aI00
aI00
aI00
aI00
aI01
aa(lp42
I01
aI00
aI01
aI01
aI00
aI01
aI01
aI00
aI00
aI01
aa(lp43
I01
aI01
aI01
aI01
aI01
aI01
aI01
aI01
aI01
aI01
aasg23
I10
sbsS'layoutText'
p44
(lp45
S'%%%%%%%%%%'
p46
aS'%  .%...G%'
p47
aS'% %.%.%  %'
p48
aS'%  . .%.%%'
p49
aS'%%%... .%%'
p50
aS'%% . % . %'
p51
aS'%P  . .%%%'
p52
aS'%%% % ..%%'
p53
aS'% . %    %'
p54
aS'%%%%%%%%%%'
p55
asbsS'actions'
p56
(lp57
(I0
S'East'
p58
tp59
a(I1
S'South'
p60
tp61
a(I0
g58
tp62
a(I1
S'West'
p63
tp64
a(I0
S'North'
p65
tp66
a(I1
g60
tp67
a(I0
g65
tp68
a(I1
g60
tp69
a(I0
g58
tp70
a(I1
g60
tp71
a(I0
g58
tp72
a(I1
g63
tp73
a(I0
g65
tp74
a(I1
g60
tp75
a(I0
g65
tp76
a(I1
g60
tp77
a(I0
g65
tp78
a(I1
g60
tp79
a(I0
g58
tp80
a(I1
g63
tp81
a(I0
g58
tp82
a(I1
g65
tp83
a(I0
S'Stop'
p84
tp85
a(I1
g58
tp86
a(I0
g58
tp87
a(I1
g58
tp88
a(I0
g60
tp89
a(I1
g60
tp90
a(I0
g65
tp91
a(I1
g63
tp92
a(I0
g63
tp93
a(I1
g63
tp94
a(I0
g63
tp95
a(I1
g65
tp96
a(I0
g84
tp97
a(I1
g65
tp98
a(I0
g58
tp99
a(I1
g63
tp100
a(I0
g63
tp101
a(I1
g63
tp102
a(I0
g84
tp103
a(I1
g60
tp104
a(I0
g58
tp105
a(I1
g60
tp106
a(I0
g60
tp107
a(I1
g63
tp108
a(I0
g65
tp109
a(I1
g63
tp110
a(I0
g60
tp111
a(I1
g58
tp112
a(I0
g60
tp113
a(I1
g58
tp114
a(I0
g84
tp115
a(I1
g65
tp116
a(I0
g65
tp117
a(I1
g65
tp118
a(I0
g65
tp119
a(I1
g63
tp120
a(I0
g60
tp121
a(I1
g63
tp122
a(I0
g84
tp123
a(I1
g58
tp124
a(I0
g65
tp125
a(I1
g65
tp126
a(I0
g84
tp127
a(I1
g58
tp128
a(I0
g63
tp129
a(I1
g60
tp130
a(I0
g63
tp131
a(I1
g63
tp132
a(I0
g60
tp133
a(I1
g65
tp134
a(I0
g65
tp135
a(I1
g58
tp136
a(I0
g58
tp137
a(I1
g60
tp138
a(I0
g63
tp139
a(I1
g58
tp140
a(I0
g84
tp141
a(I1
g65
tp142
a(I0
g58
tp143
a(I1
g63
tp144
a(I0
g84
tp145
a(I1
g63
tp146
a(I0
g58
tp147
a(I1
g60
tp148
a(I0
g84
tp149
a(I1
g63
tp150
a(I0
g58
tp151
a(I1
g58
tp152
a(I0
g63
tp153
a(I1
g65
tp154
a(I0
g84
tp155
a(I1
g58
tp156
a(I0
g58
tp157
a(I1
g60
tp158
a(I0
g84
tp159
a(I1
g63
tp160
a(I0
g60
tp161
a(I1
g63
tp162
a(I0
g84
tp163
a(I1
g58
tp164
a(I0
g84
tp165
a(I1
g58
tp166
a(I0
g63
tp167
a(I1
g60
tp168
a(I0
g84
tp169
a(I1
g60
tp170
a(I0
g58
tp171
a(I1
g63
tp172
a(I0
g84
tp173
a(I1
g63
tp174
a(I0
g63
tp175
a(I1
g58
tp176
a(I0
g65
tp177
a(I1
g58
tp178
a(I0
g84
tp179
a(I1
g65
tp180
a(I0
g58
tp181
a(I1
g65
tp182
a(I0
g60
tp183
a(I1
g63
tp184
a(I0
g65
tp185
a(I1
g63
tp186
a(I0
g60
tp187
a(I1
g58
tp188
a(I0
g84
tp189
a(I1
g58
tp190
a(I0
g84
tp191
a(I1
g60
tp192
a(I0
g63
tp193
a(I1
g60
tp194
a(I0
g65
tp195
a(I1
g63
tp196
a(I0
g84
tp197
a(I1
g63
tp198
a(I0
g63
tp199
a(I1
g58
tp200
a(I0
g84
tp201
a(I1
g58
tp202
a(I0
g63
tp203
a(I1
g65
tp204
a(I0
g58
tp205
a(I1
g65
tp206
a(I0
g58
tp207
a(I1
g63
tp208
a(I0
g63
tp209
a(I1
g65
tp210
a(I0
g84
tp211
a(I1
g58
tp212
a(I0
g84
tp213
a(I1
g60
tp214
a(I0
g58
tp215
a(I1
g60
tp216
a(I0
g63
tp217
a(I1
g60
tp218
a(I0
g84
tp219
a(I1
g63
tp220
a(I0
g63
tp221
a(I1
g63
tp222
a(I0
g58
tp223
a(I1
g58
tp224
a(I0
g58
tp225
a(I1
g58
tp226
a(I0
g58
tp227
a(I1
g65
tp228
a(I0
g63
tp229
a(I1
g65
tp230
a(I0
g60
tp231
a(I1
g58
tp232
a(I0
g58
tp233
a(I1
g58
tp234
a(I0
g65
tp235
a(I1
g60
tp236
a(I0
g84
tp237
a(I1
g58
tp238
a(I0
g63
tp239
a(I1
g58
tp240
a(I0
g60
tp241
a(I1
g60
tp242
a(I0
g60
tp243
a(I1
g58
tp244
a(I0
g65
tp245
a(I1
g63
tp246
a(I0
g58
tp247
a(I1
g65
tp248
a(I0
g84
tp249
a(I1
g63
tp250
a(I0
g84
tp251
a(I1
g63
tp252
a(I0
g63
tp253
a(I1
g65
tp254
a(I0
g84
tp255
a(I1
g63
tp256
a(I0
g60
tp257
a(I1
g65
tp258
a(I0
g60
tp259
a(I1
g65
tp260
a(I0
g63
tp261
a(I1
g58
tp262
a(I0
g60
tp263
a(I1
g58
tp264
a(I0
g84
tp265
a(I1
g60
tp266
as.