(dp1
S'layout'
p2
(ilayout
Layout
p3
(dp4
S'numGhosts'
p5
I1
sS'food'
p6
(igame
Grid
p7
(dp8
S'CELLS_PER_INT'
p9
I30
sS'width'
p10
I10
sS'data'
p11
(lp12
(lp13
I00
aI00
aI00
aI00
aI00
aI00
aI00
aI00
aI00
aI00
aa(lp14
I00
aI00
aI00
aI00
aI00
aI00
aI00
aI00
aI00
aI00
aa(lp15
I00
aI01
aI00
aI00
aI00
aI00
aI00
aI00
aI00
aI00
aa(lp16
I00
aI00
aI00
aI00
aI01
aI01
aI01
aI01
aI01
aI00
aa(lp17
I00
aI00
aI00
aI01
aI00
aI01
aI00
aI00
aI00
aI00
aa(lp18
I00
aI00
aI00
aI00
aI00
aI01
aI01
aI01
aI01
aI00
aa(lp19
I00
aI00
aI01
aI01
aI00
aI00
aI00
aI00
aI01
aI00
aa(lp20
I00
aI00
aI01
aI00
aI01
aI01
aI01
aI00
aI01
aI00
aa(lp21
I00
aI00
aI00
aI00
aI00
aI00
aI00
aI00
aI00
aI00
aa(lp22
I00
aI00
aI00
aI00
aI00
aI00
aI00
aI00
aI00
aI00
aasS'height'
p23
I10
sbsS'agentPositions'
p24
(lp25
(I01
(I1
I3
tp26
tp27
a(I00
(I8
I8
tp28
tp29
asg23
I10
sg10
I10
sS'walls'
p30
(igame
Grid
p31
(dp32
g9
I30
sg10
I10
sg11
(lp33
(lp34
I01
aI01
aI01
aI01
aI01
aI01
aI01
aI01
aI01
aI01
aa(lp35
I01
aI00
aI01
aI00
aI01
aI01
aI00
aI00
aI00
aI01
aa(lp36
I01
aI00
aI01
aI00
aI00
aI01
aI00
aI01
aI00
aI01
aa(lp37
I01
aI00
aI00
aI00
aI00
aI00
aI00
aI00
aI00
aI01
aa(lp38
I01
aI01
aI01
aI00
aI00
aI00
aI00
aI01
aI01
aI01
aa(lp39
I01
aI00
aI00
aI00
aI01
aI00
aI00
aI00
aI00
aI01
aa(lp40
I01
aI00
aI00
aI00
aI00
aI00
aI01
aI01
aI00
aI01
aa(lp41
I01
aI00
aI00
aI01
aI00
aI00
aI00
aI00
aI00
aI01
aa(lp42
I01
aI00
aI01
aI01
aI00
aI01
aI01
aI00
aI00
aI01
aa(lp43
I01
aI01
aI01
aI01
aI01
aI01
aI01
aI01
aI01
aI01
aasg23
I10
sbsS'layoutText'
p44
(lp45
S'%%%%%%%%%%'
p46
aS'%  .%...G%'
p47
aS'% %.%.%  %'
p48
aS'%  . .%.%%'
p49
aS'%%%... .%%'
p50
aS'%% . % . %'
p51
aS'%P  . .%%%'
p52
aS'%%% % ..%%'
p53
aS'% . %    %'
p54
aS'%%%%%%%%%%'
p55
asbsS'actions'
p56
(lp57
(I0
S'East'
p58
tp59
a(I1
S'South'
p60
tp61
a(I0
g58
tp62
a(I1
S'West'
p63
tp64
a(I0
S'North'
p65
tp66
a(I1
g60
tp67
a(I0
g65
tp68
a(I1
g60
tp69
a(I0
g58
tp70
a(I1
g60
tp71
a(I0
g60
tp72
a(I1
g58
tp73
a(I0
g60
tp74
a(I1
g63
tp75
a(I0
g58
tp76
a(I1
g65
tp77
a(I0
g58
tp78
a(I1
g63
tp79
a(I0
g63
tp80
a(I1
g60
tp81
a(I0
g63
tp82
a(I1
g58
tp83
a(I0
g58
tp84
a(I1
g58
tp85
a(I0
g60
tp86
a(I1
g63
tp87
a(I0
g60
tp88
a(I1
g65
tp89
a(I0
g58
tp90
a(I1
g65
tp91
a(I0
g63
tp92
a(I1
g65
tp93
a(I0
g65
tp94
a(I1
g58
tp95
a(I0
g58
tp96
a(I1
g65
tp97
a(I0
g65
tp98
a(I1
g63
tp99
a(I0
g63
tp100
a(I1
g60
tp101
a(I0
g58
tp102
a(I1
g58
tp103
a(I0
S'Stop'
p104
tp105
a(I1
g65
tp106
a(I0
g65
tp107
a(I1
g63
tp108
a(I0
g58
tp109
a(I1
g60
tp110
a(I0
g58
tp111
a(I1
g58
tp112
a(I0
g63
tp113
a(I1
g65
tp114
a(I0
g104
tp115
a(I1
g63
tp116
a(I0
g58
tp117
a(I1
g63
tp118
a(I0
g104
tp119
a(I1
g63
tp120
a(I0
g63
tp121
a(I1
g60
tp122
a(I0
g65
tp123
a(I1
g60
tp124
a(I0
g63
tp125
a(I1
g60
tp126
a(I0
g104
tp127
a(I1
g63
tp128
a(I0
g63
tp129
a(I1
g60
tp130
a(I0
g58
tp131
a(I1
g60
tp132
a(I0
g58
tp133
a(I1
g58
tp134
a(I0
g104
tp135
a(I1
g60
tp136
a(I0
g63
tp137
a(I1
g58
tp138
a(I0
g104
tp139
a(I1
g58
tp140
a(I0
g58
tp141
a(I1
g60
tp142
a(I0
g104
tp143
a(I1
g58
tp144
a(I0
g60
tp145
a(I1
g63
tp146
a(I0
g104
tp147
a(I1
g65
tp148
a(I0
g58
tp149
a(I1
g63
tp150
a(I0
g63
tp151
a(I1
g63
tp152
a(I0
g65
tp153
a(I1
g65
tp154
a(I0
g104
tp155
a(I1
g58
tp156
a(I0
g65
tp157
a(I1
g60
tp158
a(I0
g65
tp159
a(I1
g58
tp160
a(I0
g65
tp161
a(I1
g60
tp162
a(I0
g58
tp163
a(I1
g58
tp164
a(I0
g104
tp165
a(I1
g63
tp166
a(I0
g63
tp167
a(I1
g65
tp168
a(I0
g63
tp169
a(I1
g63
tp170
a(I0
g104
tp171
a(I1
g60
tp172
a(I0
g63
tp173
a(I1
g58
tp174
a(I0
g60
tp175
a(I1
g58
tp176
a(I0
g65
tp177
a(I1
g63
tp178
a(I0
g58
tp179
a(I1
g65
tp180
a(I0
g58
tp181
a(I1
g63
tp182
a(I0
g104
tp183
a(I1
g63
tp184
a(I0
g60
tp185
a(I1
g65
tp186
a(I0
g58
tp187
a(I1
g58
tp188
a(I0
g104
tp189
a(I1
g60
tp190
a(I0
g63
tp191
a(I1
g58
tp192
a(I0
g60
tp193
a(I1
g60
tp194
a(I0
g65
tp195
a(I1
g58
tp196
a(I0
g65
tp197
a(I1
g63
tp198
a(I0
g63
tp199
a(I1
g65
tp200
a(I0
g58
tp201
a(I1
g63
tp202
a(I0
g104
tp203
a(I1
g65
tp204
a(I0
g58
tp205
a(I1
g63
tp206
a(I0
g63
tp207
a(I1
g60
tp208
a(I0
g60
tp209
a(I1
g58
tp210
a(I0
g58
tp211
a(I1
g60
tp212
a(I0
g65
tp213
a(I1
g58
tp214
a(I0
g63
tp215
a(I1
g65
tp216
a(I0
g63
tp217
a(I1
g63
tp218
a(I0
g58
tp219
a(I1
g63
tp220
a(I0
g60
tp221
a(I1
g60
tp222
a(I0
g65
tp223
a(I1
g58
tp224
a(I0
g60
tp225
a(I1
g58
tp226
a(I0
g104
tp227
a(I1
g65
tp228
a(I0
g104
tp229
a(I1
g63
tp230
a(I0
g104
tp231
a(I1
g65
tp232
a(I0
g60
tp233
a(I1
g63
tp234
a(I0
g104
tp235
a(I1
g63
tp236
a(I0
g104
tp237
a(I1
g63
tp238
a(I0
g65
tp239
a(I1
g63
tp240
a(I0
g60
tp241
a(I1
g63
tp242
a(I0
g60
tp243
a(I1
g58
tp244
a(I0
g60
tp245
a(I1
g58
tp246
a(I0
g104
tp247
a(I1
g60
tp248
a(I0
g58
tp249
a(I1
g60
tp250
a(I0
g63
tp251
a(I1
g63
tp252
a(I0
g58
tp253
a(I1
g63
tp254
a(I0
g104
tp255
a(I1
g58
tp256
a(I0
g104
tp257
a(I1
g58
tp258
a(I0
g63
tp259
a(I1
g65
tp260
a(I0
g58
tp261
a(I1
g65
tp262
a(I0
g63
tp263
a(I1
g63
tp264
a(I0
g104
tp265
a(I1
g65
tp266
a(I0
g65
tp267
a(I1
g58
tp268
a(I0
g65
tp269
a(I1
g60
tp270
a(I0
g104
tp271
a(I1
g60
tp272
a(I0
g104
tp273
a(I1
g60
tp274
a(I0
g60
tp275
a(I1
g63
tp276
a(I0
g104
tp277
a(I1
g63
tp278
a(I0
g60
tp279
a(I1
g58
tp280
a(I0
g65
tp281
a(I1
g58
tp282
a(I0
g104
tp283
a(I1
g65
tp284
a(I0
g65
tp285
a(I1
g65
tp286
a(I0
g65
tp287
a(I1
g63
tp288
a(I0
g104
tp289
a(I1
g63
tp290
a(I0
g104
tp291
a(I1
g58
tp292
a(I0
g60
tp293
a(I1
g65
tp294
a(I0
g104
tp295
a(I1
g58
tp296
a(I0
g65
tp297
a(I1
g60
tp298
a(I0
g104
tp299
a(I1
g60
tp300
a(I0
g65
tp301
a(I1
g60
tp302
a(I0
g63
tp303
a(I1
g63
tp304
a(I0
g58
tp305
a(I1
g63
tp306
a(I0
g60
tp307
a(I1
g58
tp308
a(I0
g60
tp309
a(I1
g58
tp310
a(I0
g65
tp311
a(I1
g65
tp312
a(I0
g60
tp313
a(I1
g65
tp314
a(I0
g65
tp315
a(I1
g63
tp316
a(I0
g58
tp317
a(I1
g63
tp318
a(I0
g63
tp319
a(I1
g58
tp320
a(I0
g58
tp321
a(I1
g58
tp322
a(I0
g65
tp323
a(I1
g60
tp324
a(I0
g63
tp325
a(I1
g60
tp326
a(I0
g60
tp327
a(I1
g63
tp328
a(I0
g58
tp329
a(I1
g63
tp330
a(I0
g104
tp331
a(I1
g58
tp332
a(I0
g104
tp333
a(I1
g58
tp334
a(I0
g63
tp335
a(I1
g65
tp336
a(I0
g65
tp337
a(I1
g65
tp338
a(I0
g60
tp339
a(I1
g63
tp340
a(I0
g60
tp341
a(I1
g65
tp342
a(I0
g104
tp343
a(I1
g58
tp344
a(I0
g104
tp345
a(I1
g60
tp346
a(I0
g60
tp347
a(I1
g60
tp348
a(I0
g65
tp349
a(I1
g60
tp350
a(I0
g65
tp351
a(I1
g63
tp352
a(I0
g104
tp353
a(I1
g63
tp354
a(I0
g104
tp355
a(I1
g58
tp356
a(I0
g58
tp357
a(I1
g58
tp358
a(I0
g104
tp359
a(I1
g65
tp360
a(I0
g104
tp361
a(I1
g65
tp362
a(I0
g65
tp363
a(I1
g63
tp364
a(I0
g104
tp365
a(I1
g63
tp366
a(I0
g63
tp367
a(I1
g58
tp368
a(I0
g60
tp369
a(I1
g65
tp370
a(I0
g104
tp371
a(I1
g58
tp372
a(I0
g104
tp373
a(I1
g58
tp374
a(I0
g65
tp375
a(I1
g60
tp376
a(I0
g60
tp377
a(I1
g63
tp378
a(I0
g65
tp379
a(I1
g63
tp380
a(I0
g104
tp381
a(I1
g63
tp382
a(I0
g104
tp383
a(I1
g58
tp384
a(I0
g60
tp385
a(I1
g65
tp386
a(I0
g58
tp387
a(I1
g58
tp388
a(I0
g63
tp389
a(I1
g65
tp390
a(I0
g58
tp391
a(I1
g65
tp392
a(I0
g65
tp393
a(I1
g65
tp394
a(I0
g60
tp395
a(I1
g65
tp396
a(I0
g104
tp397
a(I1
g63
tp398
a(I0
g104
tp399
a(I1
g63
tp400
a(I0
g63
tp401
a(I1
g60
tp402
a(I0
g104
tp403
a(I1
g60
tp404
a(I0
g104
tp405
a(I1
g58
tp406
a(I0
g60
tp407
a(I1
g58
tp408
a(I0
g65
tp409
a(I1
g58
tp410
a(I0
g58
tp411
a(I1
g58
tp412
a(I0
g65
tp413
a(I1
g65
tp414
a(I0
g60
tp415
a(I1
g65
tp416
a(I0
g104
tp417
a(I1
g58
tp418
a(I0
g104
tp419
a(I1
g58
tp420
a(I0
g104
tp421
a(I1
g60
tp422
a(I0
g63
tp423
as.