(dp1
S'layout'
p2
(ilayout
Layout
p3
(dp4
S'numGhosts'
p5
I1
sS'food'
p6
(igame
Grid
p7
(dp8
S'CELLS_PER_INT'
p9
I30
sS'width'
p10
I10
sS'data'
p11
(lp12
(lp13
I00
aI00
aI00
aI00
aI00
aI00
aI00
aI00
aI00
aI00
aa(lp14
I00
aI00
aI00
aI00
aI00
aI00
aI00
aI00
aI00
aI00
aa(lp15
I00
aI01
aI00
aI00
aI00
aI00
aI00
aI00
aI00
aI00
aa(lp16
I00
aI00
aI00
aI00
aI01
aI01
aI01
aI01
aI01
aI00
aa(lp17
I00
aI00
aI00
aI01
aI00
aI01
aI00
aI00
aI00
aI00
aa(lp18
I00
aI00
aI00
aI00
aI00
aI01
aI01
aI01
aI01
aI00
aa(lp19
I00
aI00
aI01
aI01
aI00
aI00
aI00
aI00
aI01
aI00
aa(lp20
I00
aI00
aI01
aI00
aI01
aI01
aI01
aI00
aI01
aI00
aa(lp21
I00
aI00
aI00
aI00
aI00
aI00
aI00
aI00
aI00
aI00
aa(lp22
I00
aI00
aI00
aI00
aI00
aI00
aI00
aI00
aI00
aI00
aasS'height'
p23
I10
sbsS'agentPositions'
p24
(lp25
(I01
(I1
I3
tp26
tp27
a(I00
(I8
I8
tp28
tp29
asg23
I10
sg10
I10
sS'walls'
p30
(igame
Grid
p31
(dp32
g9
I30
sg10
I10
sg11
(lp33
(lp34
I01
aI01
aI01
aI01
aI01
aI01
aI01
aI01
aI01
aI01
aa(lp35
I01
aI00
aI01
aI00
aI01
aI01
aI00
aI00
aI00
aI01
aa(lp36
I01
aI00
aI01
aI00
aI00
aI01
aI00
aI01
aI00
aI01
aa(lp37
I01
aI00
aI00
aI00
aI00
aI00
aI00
aI00
aI00
aI01
aa(lp38
I01
aI01
aI01
aI00
aI00
aI00
aI00
aI01
aI01
aI01
aa(lp39
I01
aI00
aI00
aI00
aI01
aI00
aI00
aI00
aI00
aI01
aa(lp40
I01
aI00
aI00
aI00
aI00
aI00
aI01
aI01
aI00
aI01
aa(lp41
I01
aI00
aI00
aI01
aI00
aI00
aI00
aI00
aI00
aI01
aa(lp42
I01
aI00
aI01
aI01
aI00
aI01
aI01
aI00
aI00
aI01
aa(lp43
I01
aI01
aI01
aI01
aI01
aI01
aI01
aI01
aI01
aI01
aasg23
I10
sbsS'layoutText'
p44
(lp45
S'%%%%%%%%%%'
p46
aS'%  .%...G%'
p47
aS'% %.%.%  %'
p48
aS'%  . .%.%%'
p49
aS'%%%... .%%'
p50
aS'%% . % . %'
p51
aS'%P  . .%%%'
p52
aS'%%% % ..%%'
p53
aS'% . %    %'
p54
aS'%%%%%%%%%%'
p55
asbsS'actions'
p56
(lp57
(I0
S'East'
p58
tp59
a(I1
S'South'
p60
tp61
a(I0
g58
tp62
a(I1
S'West'
p63
tp64
a(I0
S'North'
p65
tp66
a(I1
g60
tp67
a(I0
g65
tp68
a(I1
g60
tp69
a(I0
g58
tp70
a(I1
g63
tp71
a(I0
g65
tp72
a(I1
g60
tp73
a(I0
g58
tp74
a(I1
g60
tp75
a(I0
g65
tp76
a(I1
g60
tp77
a(I0
g65
tp78
a(I1
g58
tp79
a(I0
g58
tp80
a(I1
g60
tp81
a(I0
g58
tp82
a(I1
g58
tp83
a(I0
g60
tp84
a(I1
g63
tp85
a(I0
g60
tp86
a(I1
g65
tp87
a(I0
g60
tp88
a(I1
g63
tp89
a(I0
g60
tp90
a(I1
g60
tp91
a(I0
g63
tp92
a(I1
g58
tp93
a(I0
S'Stop'
p94
tp95
a(I1
g65
tp96
a(I0
g60
tp97
a(I1
g63
tp98
a(I0
g63
tp99
a(I1
g63
tp100
a(I0
g63
tp101
a(I1
g65
tp102
a(I0
g65
tp103
a(I1
g63
tp104
a(I0
g65
tp105
a(I1
g65
tp106
a(I0
g65
tp107
a(I1
g63
tp108
a(I0
g63
tp109
a(I1
g60
tp110
a(I0
g65
tp111
a(I1
g58
tp112
a(I0
g94
tp113
a(I1
g58
tp114
a(I0
g65
tp115
a(I1
g60
tp116
a(I0
g94
tp117
a(I1
g58
tp118
a(I0
g94
tp119
a(I1
g58
tp120
a(I0
g60
tp121
a(I1
g60
tp122
a(I0
g60
tp123
a(I1
g58
tp124
a(I0
g65
tp125
a(I1
g63
tp126
a(I0
g94
tp127
a(I1
g65
tp128
a(I0
g65
tp129
a(I1
g63
tp130
a(I0
g60
tp131
a(I1
g65
tp132
a(I0
g94
tp133
a(I1
g63
tp134
a(I0
g94
tp135
a(I1
g60
tp136
a(I0
g65
tp137
a(I1
g58
tp138
a(I0
g63
tp139
a(I1
g65
tp140
a(I0
g63
tp141
a(I1
g65
tp142
a(I0
g94
tp143
a(I1
g58
tp144
a(I0
g94
tp145
a(I1
g58
tp146
a(I0
g94
tp147
a(I1
g63
tp148
a(I0
g58
tp149
a(I1
g63
tp150
a(I0
g94
tp151
a(I1
g60
tp152
a(I0
g63
tp153
a(I1
g60
tp154
a(I0
g58
tp155
a(I1
g58
tp156
a(I0
g63
tp157
a(I1
g60
tp158
a(I0
g58
tp159
a(I1
g58
tp160
a(I0
g58
tp161
a(I1
g63
tp162
a(I0
g63
tp163
a(I1
g65
tp164
a(I0
g94
tp165
a(I1
g63
tp166
a(I0
g94
tp167
a(I1
g60
tp168
a(I0
g58
tp169
a(I1
g58
tp170
a(I0
g63
tp171
a(I1
g65
tp172
a(I0
g94
tp173
a(I1
g63
tp174
a(I0
g58
tp175
a(I1
g63
tp176
a(I0
g63
tp177
a(I1
g65
tp178
a(I0
g58
tp179
a(I1
g58
tp180
a(I0
g94
tp181
a(I1
g60
tp182
a(I0
g63
tp183
a(I1
g58
tp184
a(I0
g63
tp185
a(I1
g60
tp186
a(I0
g60
tp187
a(I1
g58
tp188
a(I0
g60
tp189
a(I1
g63
tp190
a(I0
g94
tp191
a(I1
g65
tp192
a(I0
g94
tp193
a(I1
g63
tp194
a(I0
g94
tp195
a(I1
g60
tp196
a(I0
g58
tp197
a(I1
g58
tp198
a(I0
g63
tp199
a(I1
g65
tp200
a(I0
g94
tp201
a(I1
g63
tp202
a(I0
g94
tp203
a(I1
g65
tp204
a(I0
g94
tp205
a(I1
g63
tp206
a(I0
g65
tp207
a(I1
g60
tp208
a(I0
g60
tp209
a(I1
g58
tp210
a(I0
g58
tp211
a(I1
g58
tp212
a(I0
g94
tp213
a(I1
g60
tp214
a(I0
g58
tp215
a(I1
g58
tp216
a(I0
g58
tp217
a(I1
g63
tp218
a(I0
g58
tp219
a(I1
g65
tp220
a(I0
g60
tp221
a(I1
g63
tp222
a(I0
g58
tp223
a(I1
g60
tp224
a(I0
g94
tp225
a(I1
g63
tp226
a(I0
g63
tp227
a(I1
g65
tp228
a(I0
g63
tp229
a(I1
g58
tp230
a(I0
g65
tp231
a(I1
g58
tp232
a(I0
g94
tp233
a(I1
g60
tp234
a(I0
g63
tp235
a(I1
g63
tp236
a(I0
g65
tp237
a(I1
g63
tp238
a(I0
g65
tp239
a(I1
g65
tp240
a(I0
g94
tp241
a(I1
g65
tp242
a(I0
g60
tp243
a(I1
g63
tp244
a(I0
g65
tp245
a(I1
g63
tp246
a(I0
g94
tp247
a(I1
g63
tp248
a(I0
g94
tp249
a(I1
g63
tp250
a(I0
g63
tp251
a(I1
g58
tp252
a(I0
g63
tp253
a(I1
g65
tp254
a(I0
g94
tp255
a(I1
g58
tp256
a(I0
g58
tp257
a(I1
g65
tp258
a(I0
g58
tp259
a(I1
g65
tp260
a(I0
g63
tp261
a(I1
g65
tp262
a(I0
g63
tp263
a(I1
g65
tp264
a(I0
g58
tp265
a(I1
g63
tp266
as.