(dp1
S'layout'
p2
(ilayout
Layout
p3
(dp4
S'numGhosts'
p5
I1
sS'food'
p6
(igame
Grid
p7
(dp8
S'CELLS_PER_INT'
p9
I30
sS'width'
p10
I10
sS'data'
p11
(lp12
(lp13
I00
aI00
aI00
aI00
aI00
aI00
aI00
aI00
aI00
aI00
aa(lp14
I00
aI00
aI00
aI00
aI00
aI00
aI00
aI00
aI00
aI00
aa(lp15
I00
aI01
aI00
aI00
aI00
aI00
aI00
aI00
aI00
aI00
aa(lp16
I00
aI00
aI00
aI00
aI01
aI01
aI01
aI01
aI01
aI00
aa(lp17
I00
aI00
aI00
aI01
aI00
aI01
aI00
aI00
aI00
aI00
aa(lp18
I00
aI00
aI00
aI00
aI00
aI01
aI01
aI01
aI01
aI00
aa(lp19
I00
aI00
aI01
aI01
aI00
aI00
aI00
aI00
aI01
aI00
aa(lp20
I00
aI00
aI01
aI00
aI01
aI01
aI01
aI00
aI01
aI00
aa(lp21
I00
aI00
aI00
aI00
aI00
aI00
aI00
aI00
aI00
aI00
aa(lp22
I00
aI00
aI00
aI00
aI00
aI00
aI00
aI00
aI00
aI00
aasS'height'
p23
I10
sbsS'agentPositions'
p24
(lp25
(I01
(I1
I3
tp26
tp27
a(I00
(I8
I8
tp28
tp29
asg23
I10
sg10
I10
sS'walls'
p30
(igame
Grid
p31
(dp32
g9
I30
sg10
I10
sg11
(lp33
(lp34
I01
aI01
aI01
aI01
aI01
aI01
aI01
aI01
aI01
aI01
aa(lp35
I01
aI00
aI01
aI00
aI01
aI01
aI00
aI00
aI00
aI01
aa(lp36
I01
aI00
aI01
aI00
aI00
aI01
aI00
aI01
aI00
aI01
aa(lp37
I01
aI00
aI00
aI00
aI00
aI00
aI00
aI00
aI00
aI01
aa(lp38
I01
aI01
aI01
aI00
aI00
aI00
aI00
aI01
aI01
aI01
aa(lp39
I01
aI00
aI00
aI00
aI01
aI00
aI00
aI00
aI00
aI01
aa(lp40
I01
aI00
aI00
aI00
aI00
aI00
aI01
aI01
aI00
aI01
aa(lp41
I01
aI00
aI00
aI01
aI00
aI00
aI00
aI00
aI00
aI01
aa(lp42
I01
aI00
aI01
aI01
aI00
aI01
aI01
aI00
aI00
aI01
aa(lp43
I01
aI01
aI01
aI01
aI01
aI01
aI01
aI01
aI01
aI01
aasg23
I10
sbsS'layoutText'
p44
(lp45
S'%%%%%%%%%%'
p46
aS'%  .%...G%'
p47
aS'% %.%.%  %'
p48
aS'%  . .%.%%'
p49
aS'%%%... .%%'
p50
aS'%% . % . %'
p51
aS'%P  . .%%%'
p52
aS'%%% % ..%%'
p53
aS'% . %    %'
p54
aS'%%%%%%%%%%'
p55
asbsS'actions'
p56
(lp57
(I0
S'East'
p58
tp59
a(I1
S'South'
p60
tp61
a(I0
S'North'
p62
tp63
a(I1
S'West'
p64
tp65
a(I0
g58
tp66
a(I1
g60
tp67
a(I0
g64
tp68
a(I1
g60
tp69
a(I0
g58
tp70
a(I1
g60
tp71
a(I0
g62
tp72
a(I1
g58
tp73
a(I0
g58
tp74
a(I1
g64
tp75
a(I0
g58
tp76
a(I1
g62
tp77
a(I0
g62
tp78
a(I1
g62
tp79
a(I0
g62
tp80
a(I1
g62
tp81
a(I0
g62
tp82
a(I1
g58
tp83
a(I0
g58
tp84
a(I1
g62
tp85
a(I0
S'Stop'
p86
tp87
a(I1
g64
tp88
a(I0
g64
tp89
a(I1
g60
tp90
a(I0
g58
tp91
a(I1
g58
tp92
a(I0
g58
tp93
a(I1
g62
tp94
a(I0
g60
tp95
a(I1
g64
tp96
a(I0
g60
tp97
a(I1
g60
tp98
a(I0
g60
tp99
a(I1
g60
tp100
a(I0
g60
tp101
a(I1
g60
tp102
a(I0
g64
tp103
a(I1
g60
tp104
a(I0
g60
tp105
a(I1
g58
tp106
a(I0
g86
tp107
a(I1
g64
tp108
a(I0
g60
tp109
a(I1
g64
tp110
a(I0
g58
tp111
a(I1
g60
tp112
a(I0
g86
tp113
a(I1
g60
tp114
a(I0
g60
tp115
a(I1
g58
tp116
a(I0
g64
tp117
a(I1
g60
tp118
a(I0
g62
tp119
a(I1
g64
tp120
a(I0
g64
tp121
a(I1
g62
tp122
a(I0
g62
tp123
a(I1
g64
tp124
a(I0
g64
tp125
a(I1
g62
tp126
a(I0
g62
tp127
a(I1
g64
tp128
a(I0
g62
tp129
a(I1
g62
tp130
a(I0
g62
tp131
a(I1
g62
tp132
a(I0
g64
tp133
a(I1
g64
tp134
a(I0
g62
tp135
a(I1
g60
tp136
a(I0
g62
tp137
a(I1
g58
tp138
a(I0
g64
tp139
a(I1
g60
tp140
a(I0
g58
tp141
a(I1
g58
tp142
a(I0
g60
tp143
a(I1
g60
tp144
a(I0
g86
tp145
a(I1
g58
tp146
a(I0
g60
tp147
a(I1
g58
tp148
a(I0
g58
tp149
a(I1
g60
tp150
a(I0
g60
tp151
a(I1
g58
tp152
a(I0
g58
tp153
a(I1
g64
tp154
a(I0
g58
tp155
a(I1
g62
tp156
a(I0
g60
tp157
a(I1
g64
tp158
a(I0
g86
tp159
a(I1
g64
tp160
a(I0
g58
tp161
a(I1
g60
tp162
a(I0
g58
tp163
a(I1
g58
tp164
a(I0
g86
tp165
a(I1
g58
tp166
a(I0
g64
tp167
a(I1
g58
tp168
a(I0
g64
tp169
a(I1
g64
tp170
a(I0
g58
tp171
a(I1
g62
tp172
a(I0
g62
tp173
a(I1
g64
tp174
a(I0
g64
tp175
a(I1
g62
tp176
a(I0
g58
tp177
a(I1
g62
tp178
a(I0
g62
tp179
a(I1
g58
tp180
a(I0
g62
tp181
a(I1
g58
tp182
a(I0
g86
tp183
a(I1
g64
tp184
a(I0
g86
tp185
a(I1
g64
tp186
a(I0
g86
tp187
a(I1
g60
tp188
a(I0
g62
tp189
a(I1
g60
tp190
a(I0
g60
tp191
a(I1
g58
tp192
a(I0
g62
tp193
a(I1
g60
tp194
a(I0
g58
tp195
a(I1
g58
tp196
a(I0
g64
tp197
a(I1
g64
tp198
a(I0
g64
tp199
a(I1
g62
tp200
a(I0
g86
tp201
a(I1
g64
tp202
a(I0
g86
tp203
a(I1
g64
tp204
a(I0
g86
tp205
a(I1
g62
tp206
a(I0
g58
tp207
a(I1
g58
tp208
a(I0
g60
tp209
a(I1
g60
tp210
a(I0
g58
tp211
a(I1
g58
tp212
a(I0
g64
tp213
a(I1
g60
tp214
a(I0
g86
tp215
a(I1
g58
tp216
a(I0
g86
tp217
a(I1
g64
tp218
a(I0
g60
tp219
a(I1
g62
tp220
a(I0
g86
tp221
a(I1
g64
tp222
a(I0
g62
tp223
a(I1
g60
tp224
a(I0
g86
tp225
a(I1
g58
tp226
a(I0
g62
tp227
a(I1
g62
tp228
a(I0
g64
tp229
a(I1
g64
tp230
a(I0
g86
tp231
a(I1
g60
tp232
a(I0
g64
tp233
a(I1
g58
tp234
a(I0
g60
tp235
a(I1
g62
tp236
a(I0
g62
tp237
a(I1
g64
tp238
a(I0
g86
tp239
a(I1
g64
tp240
a(I0
g58
tp241
a(I1
g60
tp242
a(I0
g58
tp243
a(I1
g58
tp244
a(I0
g86
tp245
a(I1
g62
tp246
a(I0
g58
tp247
a(I1
g58
tp248
a(I0
g86
tp249
a(I1
g60
tp250
a(I0
g60
tp251
a(I1
g58
tp252
a(I0
g64
tp253
a(I1
g64
tp254
a(I0
g58
tp255
a(I1
g62
tp256
a(I0
g86
tp257
a(I1
g64
tp258
a(I0
g64
tp259
a(I1
g62
tp260
a(I0
g60
tp261
a(I1
g62
tp262
a(I0
g62
tp263
a(I1
g58
tp264
a(I0
g60
tp265
a(I1
g58
tp266
a(I0
g62
tp267
a(I1
g64
tp268
a(I0
g62
tp269
a(I1
g64
tp270
a(I0
g60
tp271
a(I1
g60
tp272
a(I0
g60
tp273
a(I1
g60
tp274
a(I0
g60
tp275
a(I1
g58
tp276
a(I0
g62
tp277
a(I1
g60
tp278
a(I0
g62
tp279
a(I1
g58
tp280
a(I0
g58
tp281
a(I1
g64
tp282
a(I0
g64
tp283
a(I1
g62
tp284
a(I0
g86
tp285
a(I1
g64
tp286
a(I0
g60
tp287
a(I1
g60
tp288
a(I0
g60
tp289
a(I1
g58
tp290
a(I0
g64
tp291
a(I1
g62
tp292
a(I0
g64
tp293
a(I1
g64
tp294
a(I0
g62
tp295
a(I1
g60
tp296
a(I0
g60
tp297
a(I1
g58
tp298
a(I0
g58
tp299
a(I1
g62
tp300
a(I0
g86
tp301
a(I1
g64
tp302
a(I0
g58
tp303
a(I1
g64
tp304
a(I0
g64
tp305
a(I1
g62
tp306
a(I0
g58
tp307
a(I1
g64
tp308
a(I0
g64
tp309
a(I1
g64
tp310
a(I0
g60
tp311
a(I1
g60
tp312
a(I0
g58
tp313
a(I1
g60
tp314
a(I0
g62
tp315
a(I1
g64
tp316
a(I0
g60
tp317
a(I1
g64
tp318
a(I0
g64
tp319
a(I1
g58
tp320
a(I0
g86
tp321
a(I1
g58
tp322
a(I0
g62
tp323
a(I1
g62
tp324
a(I0
g60
tp325
a(I1
g62
tp326
a(I0
g58
tp327
a(I1
g58
tp328
a(I0
g64
tp329
a(I1
g62
tp330
a(I0
g58
tp331
a(I1
g64
tp332
a(I0
g58
tp333
a(I1
g62
tp334
a(I0
g64
tp335
a(I1
g62
tp336
a(I0
g58
tp337
a(I1
g58
tp338
a(I0
g64
tp339
a(I1
g60
tp340
a(I0
g58
tp341
a(I1
g58
tp342
a(I0
g86
tp343
a(I1
g62
tp344
a(I0
g86
tp345
a(I1
g64
tp346
a(I0
g86
tp347
a(I1
g64
tp348
a(I0
g64
tp349
a(I1
g60
tp350
a(I0
g58
tp351
a(I1
g60
tp352
a(I0
g64
tp353
a(I1
g58
tp354
a(I0
g62
tp355
a(I1
g60
tp356
a(I0
g62
tp357
a(I1
g58
tp358
a(I0
g60
tp359
a(I1
g58
tp360
a(I0
g86
tp361
a(I1
g60
tp362
a(I0
g60
tp363
a(I1
g58
tp364
a(I0
g86
tp365
a(I1
g60
tp366
a(I0
g64
tp367
a(I1
g58
tp368
a(I0
g58
tp369
a(I1
g64
tp370
a(I0
g62
tp371
a(I1
g62
tp372
a(I0
g86
tp373
a(I1
g64
tp374
a(I0
g64
tp375
a(I1
g60
tp376
a(I0
g58
tp377
a(I1
g58
tp378
a(I0
g60
tp379
a(I1
g62
tp380
a(I0
g86
tp381
a(I1
g64
tp382
a(I0
g64
tp383
a(I1
g60
tp384
a(I0
g62
tp385
a(I1
g58
tp386
a(I0
g58
tp387
a(I1
g58
tp388
a(I0
g86
tp389
a(I1
g64
tp390
a(I0
g64
tp391
a(I1
g62
tp392
a(I0
g64
tp393
a(I1
g64
tp394
a(I0
g62
tp395
a(I1
g60
tp396
a(I0
g60
tp397
a(I1
g58
tp398
a(I0
g86
tp399
a(I1
g62
tp400
a(I0
g86
tp401
a(I1
g64
tp402
a(I0
g62
tp403
a(I1
g64
tp404
a(I0
g62
tp405
a(I1
g60
tp406
a(I0
g62
tp407
a(I1
g58
tp408
a(I0
g58
tp409
a(I1
g58
tp410
a(I0
g86
tp411
a(I1
g62
tp412
a(I0
g86
tp413
a(I1
g64
tp414
a(I0
g64
tp415
a(I1
g62
tp416
a(I0
g86
tp417
a(I1
g64
tp418
a(I0
g86
tp419
a(I1
g60
tp420
a(I0
g60
tp421
a(I1
g58
tp422
a(I0
g60
tp423
a(I1
g58
tp424
a(I0
g64
tp425
a(I1
g60
tp426
a(I0
g86
tp427
a(I1
g64
tp428
a(I0
g60
tp429
a(I1
g62
tp430
a(I0
g62
tp431
a(I1
g58
tp432
a(I0
g64
tp433
a(I1
g60
tp434
a(I0
g58
tp435
a(I1
g58
tp436
a(I0
g64
tp437
a(I1
g64
tp438
a(I0
g58
tp439
a(I1
g62
tp440
a(I0
g58
tp441
a(I1
g64
tp442
a(I0
g60
tp443
a(I1
g64
tp444
a(I0
g62
tp445
a(I1
g62
tp446
a(I0
g64
tp447
a(I1
g64
tp448
a(I0
g60
tp449
a(I1
g62
tp450
a(I0
g64
tp451
a(I1
g62
tp452
a(I0
g62
tp453
a(I1
g64
tp454
a(I0
g58
tp455
a(I1
g62
tp456
a(I0
g86
tp457
a(I1
g58
tp458
as.