(dp1
S'layout'
p2
(ilayout
Layout
p3
(dp4
S'numGhosts'
p5
I1
sS'food'
p6
(igame
Grid
p7
(dp8
S'CELLS_PER_INT'
p9
I30
sS'width'
p10
I10
sS'data'
p11
(lp12
(lp13
I00
aI00
aI00
aI00
aI00
aI00
aI00
aI00
aI00
aI00
aa(lp14
I00
aI00
aI00
aI00
aI00
aI00
aI00
aI00
aI00
aI00
aa(lp15
I00
aI01
aI00
aI00
aI00
aI00
aI00
aI00
aI00
aI00
aa(lp16
I00
aI00
aI00
aI00
aI01
aI01
aI01
aI01
aI01
aI00
aa(lp17
I00
aI00
aI00
aI01
aI00
aI01
aI00
aI00
aI00
aI00
aa(lp18
I00
aI00
aI00
aI00
aI00
aI01
aI01
aI01
aI01
aI00
aa(lp19
I00
aI00
aI01
aI01
aI00
aI00
aI00
aI00
aI01
aI00
aa(lp20
I00
aI00
aI01
aI00
aI01
aI01
aI01
aI00
aI01
aI00
aa(lp21
I00
aI00
aI00
aI00
aI00
aI00
aI00
aI00
aI00
aI00
aa(lp22
I00
aI00
aI00
aI00
aI00
aI00
aI00
aI00
aI00
aI00
aasS'height'
p23
I10
sbsS'agentPositions'
p24
(lp25
(I01
(I1
I3
tp26
tp27
a(I00
(I8
I8
tp28
tp29
asg23
I10
sg10
I10
sS'walls'
p30
(igame
Grid
p31
(dp32
g9
I30
sg10
I10
sg11
(lp33
(lp34
I01
aI01
aI01
aI01
aI01
aI01
aI01
aI01
aI01
aI01
aa(lp35
I01
aI00
aI01
aI00
aI01
aI01
aI00
aI00
aI00
aI01
aa(lp36
I01
aI00
aI01
aI00
aI00
aI01
aI00
aI01
aI00
aI01
aa(lp37
I01
aI00
aI00
aI00
aI00
aI00
aI00
aI00
aI00
aI01
aa(lp38
I01
aI01
aI01
aI00
aI00
aI00
aI00
aI01
aI01
aI01
aa(lp39
I01
aI00
aI00
aI00
aI01
aI00
aI00
aI00
aI00
aI01
aa(lp40
I01
aI00
aI00
aI00
aI00
aI00
aI01
aI01
aI00
aI01
aa(lp41
I01
aI00
aI00
aI01
aI00
aI00
aI00
aI00
aI00
aI01
aa(lp42
I01
aI00
aI01
aI01
aI00
aI01
aI01
aI00
aI00
aI01
aa(lp43
I01
aI01
aI01
aI01
aI01
aI01
aI01
aI01
aI01
aI01
aasg23
I10
sbsS'layoutText'
p44
(lp45
S'%%%%%%%%%%'
p46
aS'%  .%...G%'
p47
aS'% %.%.%  %'
p48
aS'%  . .%.%%'
p49
aS'%%%... .%%'
p50
aS'%% . % . %'
p51
aS'%P  . .%%%'
p52
aS'%%% % ..%%'
p53
aS'% . %    %'
p54
aS'%%%%%%%%%%'
p55
asbsS'actions'
p56
(lp57
(I0
S'East'
p58
tp59
a(I1
S'South'
p60
tp61
a(I0
g58
tp62
a(I1
S'West'
p63
tp64
a(I0
g63
tp65
a(I1
g60
tp66
a(I0
g58
tp67
a(I1
g60
tp68
a(I0
S'North'
p69
tp70
a(I1
g60
tp71
a(I0
g69
tp72
a(I1
g63
tp73
a(I0
g58
tp74
a(I1
g60
tp75
a(I0
g58
tp76
a(I1
g63
tp77
a(I0
g69
tp78
a(I1
g60
tp79
a(I0
g69
tp80
a(I1
g60
tp81
a(I0
g69
tp82
a(I1
g58
tp83
a(I0
g58
tp84
a(I1
g69
tp85
a(I0
g58
tp86
a(I1
g63
tp87
a(I0
g60
tp88
a(I1
g69
tp89
a(I0
g60
tp90
a(I1
g63
tp91
a(I0
g60
tp92
a(I1
g63
tp93
a(I0
g60
tp94
a(I1
g60
tp95
a(I0
g63
tp96
a(I1
g60
tp97
a(I0
g69
tp98
a(I1
g63
tp99
a(I0
g60
tp100
a(I1
g63
tp101
a(I0
g60
tp102
a(I1
g58
tp103
a(I0
g60
tp104
a(I1
g58
tp105
a(I0
g58
tp106
a(I1
g69
tp107
a(I0
S'Stop'
p108
tp109
a(I1
g69
tp110
a(I0
g63
tp111
a(I1
g58
tp112
a(I0
g58
tp113
a(I1
g58
tp114
a(I0
g63
tp115
a(I1
g60
tp116
a(I0
g69
tp117
a(I1
g58
tp118
a(I0
g63
tp119
a(I1
g69
tp120
a(I0
g63
tp121
a(I1
g63
tp122
a(I0
g69
tp123
a(I1
g60
tp124
a(I0
g63
tp125
a(I1
g58
tp126
a(I0
g108
tp127
a(I1
g60
tp128
a(I0
g69
tp129
a(I1
g63
tp130
a(I0
g69
tp131
a(I1
g69
tp132
a(I0
g69
tp133
a(I1
g58
tp134
a(I0
g69
tp135
a(I1
g60
tp136
a(I0
g108
tp137
a(I1
g63
tp138
a(I0
g108
tp139
a(I1
g69
tp140
a(I0
g108
tp141
a(I1
g69
tp142
a(I0
g60
tp143
a(I1
g63
tp144
a(I0
g69
tp145
a(I1
g69
tp146
a(I0
g108
tp147
a(I1
g63
tp148
a(I0
g60
tp149
a(I1
g63
tp150
a(I0
g108
tp151
a(I1
g60
tp152
a(I0
g108
tp153
a(I1
g63
tp154
a(I0
g69
tp155
a(I1
g58
tp156
a(I0
g108
tp157
a(I1
g69
tp158
a(I0
g60
tp159
a(I1
g58
tp160
a(I0
g108
tp161
a(I1
g60
tp162
a(I0
g69
tp163
a(I1
g60
tp164
a(I0
g63
tp165
a(I1
g60
tp166
a(I0
g58
tp167
a(I1
g63
tp168
a(I0
g60
tp169
a(I1
g63
tp170
a(I0
g108
tp171
a(I1
g58
tp172
a(I0
g60
tp173
a(I1
g58
tp174
a(I0
g63
tp175
a(I1
g69
tp176
a(I0
g108
tp177
a(I1
g69
tp178
a(I0
g108
tp179
a(I1
g63
tp180
a(I0
g108
tp181
a(I1
g63
tp182
a(I0
g58
tp183
a(I1
g58
tp184
a(I0
g108
tp185
a(I1
g58
tp186
a(I0
g108
tp187
a(I1
g60
tp188
a(I0
g60
tp189
a(I1
g60
tp190
a(I0
g60
tp191
a(I1
g63
tp192
a(I0
g69
tp193
a(I1
g63
tp194
a(I0
g69
tp195
a(I1
g58
tp196
a(I0
g69
tp197
a(I1
g58
tp198
a(I0
g69
tp199
a(I1
g69
tp200
a(I0
g60
tp201
a(I1
g69
tp202
a(I0
g108
tp203
a(I1
g63
tp204
a(I0
g60
tp205
a(I1
g63
tp206
a(I0
g60
tp207
a(I1
g58
tp208
a(I0
g108
tp209
a(I1
g58
tp210
a(I0
g69
tp211
a(I1
g60
tp212
a(I0
g69
tp213
a(I1
g60
tp214
a(I0
g69
tp215
a(I1
g63
tp216
a(I0
g108
tp217
a(I1
g63
tp218
a(I0
g63
tp219
a(I1
g58
tp220
a(I0
g108
tp221
a(I1
g58
tp222
a(I0
g63
tp223
a(I1
g69
tp224
a(I0
g108
tp225
a(I1
g69
tp226
a(I0
g60
tp227
a(I1
g63
tp228
a(I0
g69
tp229
a(I1
g63
tp230
a(I0
g108
tp231
a(I1
g58
tp232
a(I0
g58
tp233
a(I1
g58
tp234
a(I0
g63
tp235
a(I1
g60
tp236
a(I0
g58
tp237
a(I1
g60
tp238
a(I0
g63
tp239
a(I1
g63
tp240
a(I0
g60
tp241
a(I1
g63
tp242
a(I0
g69
tp243
a(I1
g58
tp244
a(I0
g108
tp245
a(I1
g58
tp246
a(I0
g60
tp247
a(I1
g69
tp248
a(I0
g69
tp249
a(I1
g69
tp250
a(I0
g60
tp251
a(I1
g63
tp252
a(I0
g69
tp253
a(I1
g63
tp254
a(I0
g60
tp255
a(I1
g58
tp256
a(I0
g108
tp257
a(I1
g58
tp258
a(I0
g69
tp259
a(I1
g60
tp260
a(I0
g108
tp261
a(I1
g60
tp262
a(I0
g60
tp263
a(I1
g63
tp264
a(I0
g69
tp265
a(I1
g63
tp266
a(I0
g108
tp267
a(I1
g58
tp268
a(I0
g60
tp269
a(I1
g58
tp270
a(I0
g108
tp271
a(I1
g69
tp272
a(I0
g60
tp273
a(I1
g69
tp274
a(I0
g108
tp275
a(I1
g63
tp276
a(I0
g58
tp277
a(I1
g69
tp278
a(I0
g63
tp279
a(I1
g58
tp280
a(I0
g69
tp281
a(I1
g60
tp282
a(I0
g69
tp283
a(I1
g60
tp284
a(I0
g60
tp285
a(I1
g60
tp286
a(I0
g60
tp287
a(I1
g63
tp288
a(I0
g69
tp289
a(I1
g63
tp290
a(I0
g69
tp291
a(I1
g58
tp292
a(I0
g60
tp293
a(I1
g58
tp294
a(I0
g60
tp295
a(I1
g69
tp296
a(I0
g69
tp297
a(I1
g69
tp298
a(I0
g69
tp299
a(I1
g63
tp300
a(I0
g60
tp301
a(I1
g63
tp302
a(I0
g60
tp303
a(I1
g58
tp304
a(I0
g58
tp305
a(I1
g58
tp306
a(I0
g58
tp307
a(I1
g60
tp308
a(I0
g63
tp309
a(I1
g60
tp310
a(I0
g58
tp311
a(I1
g63
tp312
a(I0
g58
tp313
a(I1
g63
tp314
a(I0
g58
tp315
a(I1
g58
tp316
a(I0
g69
tp317
a(I1
g58
tp318
a(I0
g108
tp319
a(I1
g69
tp320
a(I0
g60
tp321
a(I1
g69
tp322
a(I0
g108
tp323
a(I1
g63
tp324
a(I0
g63
tp325
a(I1
g63
tp326
a(I0
g63
tp327
a(I1
g58
tp328
a(I0
g108
tp329
a(I1
g69
tp330
a(I0
g69
tp331
a(I1
g58
tp332
a(I0
g69
tp333
a(I1
g60
tp334
a(I0
g60
tp335
a(I1
g63
tp336
a(I0
g60
tp337
a(I1
g63
tp338
a(I0
g58
tp339
a(I1
g58
tp340
a(I0
g108
tp341
a(I1
g58
tp342
a(I0
g108
tp343
a(I1
g60
tp344
a(I0
g108
tp345
a(I1
g60
tp346
a(I0
g58
tp347
a(I1
g63
tp348
a(I0
g108
tp349
a(I1
g63
tp350
a(I0
g63
tp351
a(I1
g58
tp352
a(I0
g60
tp353
a(I1
g58
tp354
a(I0
g60
tp355
a(I1
g69
tp356
a(I0
g63
tp357
a(I1
g69
tp358
a(I0
g60
tp359
as.